
uart.elf：     文件格式 elf32-littlearm


Disassembly of section .text:

87800000 <_start>:
87800000:	e59ff108 	ldr	pc, [pc, #264]	; 87800110 <FIQ_Handler+0x8>
87800004:	e59ff108 	ldr	pc, [pc, #264]	; 87800114 <FIQ_Handler+0xc>
87800008:	e59ff108 	ldr	pc, [pc, #264]	; 87800118 <FIQ_Handler+0x10>
8780000c:	e59ff108 	ldr	pc, [pc, #264]	; 8780011c <FIQ_Handler+0x14>
87800010:	e59ff108 	ldr	pc, [pc, #264]	; 87800120 <FIQ_Handler+0x18>
87800014:	e59ff108 	ldr	pc, [pc, #264]	; 87800124 <FIQ_Handler+0x1c>
87800018:	e59ff108 	ldr	pc, [pc, #264]	; 87800128 <FIQ_Handler+0x20>
8780001c:	e59ff108 	ldr	pc, [pc, #264]	; 8780012c <FIQ_Handler+0x24>

87800020 <Reset_Handler>:
87800020:	f10c0080 	cpsid	i
87800024:	ee110f10 	mrc	15, 0, r0, cr1, cr0, {0}
87800028:	e3c00a01 	bic	r0, r0, #4096	; 0x1000
8780002c:	e3c00004 	bic	r0, r0, #4
87800030:	e3c00002 	bic	r0, r0, #2
87800034:	e3c00b02 	bic	r0, r0, #2048	; 0x800
87800038:	e3c00001 	bic	r0, r0, #1
8780003c:	ee010f10 	mcr	15, 0, r0, cr1, cr0, {0}
87800040:	e10f0000 	mrs	r0, CPSR
87800044:	e3c0001f 	bic	r0, r0, #31
87800048:	e3800012 	orr	r0, r0, #18
8780004c:	e129f000 	msr	CPSR_fc, r0
87800050:	e59fd0d8 	ldr	sp, [pc, #216]	; 87800130 <FIQ_Handler+0x28>
87800054:	e10f0000 	mrs	r0, CPSR
87800058:	e3c0001f 	bic	r0, r0, #31
8780005c:	e380001f 	orr	r0, r0, #31
87800060:	e129f000 	msr	CPSR_fc, r0
87800064:	e59fd0c8 	ldr	sp, [pc, #200]	; 87800134 <FIQ_Handler+0x2c>
87800068:	e10f0000 	mrs	r0, CPSR
8780006c:	e3c0001f 	bic	r0, r0, #31
87800070:	e3800013 	orr	r0, r0, #19
87800074:	e129f000 	msr	CPSR_fc, r0
87800078:	e59fd0b8 	ldr	sp, [pc, #184]	; 87800138 <FIQ_Handler+0x30>
8780007c:	e59f00b8 	ldr	r0, [pc, #184]	; 8780013c <FIQ_Handler+0x34>
87800080:	e12fff30 	blx	r0
87800084:	f1080080 	cpsie	i
87800088:	ea001882 	b	87806298 <__main_from_arm>

8780008c <Undefined_Handler>:
8780008c:	e59f0080 	ldr	r0, [pc, #128]	; 87800114 <FIQ_Handler+0xc>
87800090:	e12fff10 	bx	r0

87800094 <SVC_Handler>:
87800094:	e59f00a4 	ldr	r0, [pc, #164]	; 87800140 <FIQ_Handler+0x38>
87800098:	e12fff10 	bx	r0

8780009c <PrefAbort_Handler>:
8780009c:	e59f0078 	ldr	r0, [pc, #120]	; 8780011c <FIQ_Handler+0x14>
878000a0:	e12fff10 	bx	r0

878000a4 <DataAbort_Handler>:
878000a4:	e59f0074 	ldr	r0, [pc, #116]	; 87800120 <FIQ_Handler+0x18>
878000a8:	e12fff10 	bx	r0

878000ac <NotUsed_Handler>:
878000ac:	e59f0070 	ldr	r0, [pc, #112]	; 87800124 <FIQ_Handler+0x1c>
878000b0:	e12fff10 	bx	r0

878000b4 <IRQ_Handler>:
878000b4:	e52de004 	push	{lr}		; (str lr, [sp, #-4]!)
878000b8:	e92d100f 	push	{r0, r1, r2, r3, ip}
878000bc:	e14f0000 	mrs	r0, SPSR
878000c0:	e52d0004 	push	{r0}		; (str r0, [sp, #-4]!)
878000c4:	ee9f1f10 	mrc	15, 4, r1, cr15, cr0, {0}
878000c8:	e2811a02 	add	r1, r1, #8192	; 0x2000
878000cc:	e591000c 	ldr	r0, [r1, #12]
878000d0:	e92d0003 	push	{r0, r1}
878000d4:	f1020013 	cps	#19
878000d8:	e52de004 	push	{lr}		; (str lr, [sp, #-4]!)
878000dc:	e59f2060 	ldr	r2, [pc, #96]	; 87800144 <FIQ_Handler+0x3c>
878000e0:	e12fff32 	blx	r2
878000e4:	e49de004 	pop	{lr}		; (ldr lr, [sp], #4)
878000e8:	f1020012 	cps	#18
878000ec:	e8bd0003 	pop	{r0, r1}
878000f0:	e5810010 	str	r0, [r1, #16]
878000f4:	e49d0004 	pop	{r0}		; (ldr r0, [sp], #4)
878000f8:	e16ff000 	msr	SPSR_fsxc, r0
878000fc:	e8bd100f 	pop	{r0, r1, r2, r3, ip}
87800100:	e49de004 	pop	{lr}		; (ldr lr, [sp], #4)
87800104:	e25ef004 	subs	pc, lr, #4

87800108 <FIQ_Handler>:
87800108:	e59f001c 	ldr	r0, [pc, #28]	; 8780012c <FIQ_Handler+0x24>
8780010c:	e12fff10 	bx	r0
87800110:	87800020 	strhi	r0, [r0, r0, lsr #32]
87800114:	8780008c 	strhi	r0, [r0, ip, lsl #1]
87800118:	87800170 			; <UNDEFINED> instruction: 0x87800170
8780011c:	8780009c 			; <UNDEFINED> instruction: 0x8780009c
87800120:	878000a4 	strhi	r0, [r0, r4, lsr #1]
87800124:	878000ac 	strhi	r0, [r0, ip, lsr #1]
87800128:	87800280 	strhi	r0, [r0, r0, lsl #5]
8780012c:	87800108 	strhi	r0, [r0, r8, lsl #2]
87800130:	80600000 	rsbhi	r0, r0, r0
87800134:	80400000 	subhi	r0, r0, r0
87800138:	80200000 	eorhi	r0, r0, r0
8780013c:	878006f9 			; <UNDEFINED> instruction: 0x878006f9
87800140:	87800094 			; <UNDEFINED> instruction: 0x87800094
87800144:	87800b25 	strhi	r0, [r0, r5, lsr #22]
87800148:	00002041 	andeq	r2, r0, r1, asr #32
8780014c:	61656100 	cmnvs	r5, r0, lsl #2
87800150:	01006962 	tsteq	r0, r2, ror #18
87800154:	00000016 	andeq	r0, r0, r6, lsl r0
87800158:	412d3705 	teqmi	sp, r5, lsl #14
8780015c:	070a0600 	streq	r0, [sl, -r0, lsl #12]
87800160:	09010841 	stmdbeq	r1, {r0, r6, fp}
87800164:	0c050a02 	stceq	10, cr0, [r5], {2}
87800168:	00000002 	andeq	r0, r0, r2
8780016c:	00000000 	andeq	r0, r0, r0

87800170 <FreeRTOS_SWI_Handler>:
87800170:	f96d051f 	srsdb	sp!, #31
87800174:	f102001f 	cps	#31
87800178:	e92d5fff 	push	{r0, r1, r2, r3, r4, r5, r6, r7, r8, r9, sl, fp, ip, lr}
8780017c:	e59f22ac 	ldr	r2, [pc, #684]	; 87800430 <ulCriticalNestingConst>
87800180:	e5921000 	ldr	r1, [r2]
87800184:	e52d1004 	push	{r1}		; (str r1, [sp, #-4]!)
87800188:	e59f22a4 	ldr	r2, [pc, #676]	; 87800434 <ulPortTaskHasFPUContextConst>
8780018c:	e5923000 	ldr	r3, [r2]
87800190:	e3530000 	cmp	r3, #0
87800194:	1ef11a10 	vmrsne	r1, fpscr
87800198:	1d2d0b20 	vpushne	{d0-d15}
8780019c:	1d6d0b20 	vpushne	{d16-d31}
878001a0:	152d1004 	pushne	{r1}		; (strne r1, [sp, #-4]!)
878001a4:	e52d3004 	push	{r3}		; (str r3, [sp, #-4]!)
878001a8:	e59f027c 	ldr	r0, [pc, #636]	; 8780042c <pxCurrentTCBConst>
878001ac:	e5901000 	ldr	r1, [r0]
878001b0:	e581d000 	str	sp, [r1]
878001b4:	e59f0280 	ldr	r0, [pc, #640]	; 8780043c <vTaskSwitchContextConst>
878001b8:	e12fff30 	blx	r0
878001bc:	e59f0268 	ldr	r0, [pc, #616]	; 8780042c <pxCurrentTCBConst>
878001c0:	e5901000 	ldr	r1, [r0]
878001c4:	e591d000 	ldr	sp, [r1]
878001c8:	e59f0264 	ldr	r0, [pc, #612]	; 87800434 <ulPortTaskHasFPUContextConst>
878001cc:	e49d1004 	pop	{r1}		; (ldr r1, [sp], #4)
878001d0:	e5801000 	str	r1, [r0]
878001d4:	e3510000 	cmp	r1, #0
878001d8:	149d0004 	popne	{r0}		; (ldrne r0, [sp], #4)
878001dc:	1cfd0b20 	vpopne	{d16-d31}
878001e0:	1cbd0b20 	vpopne	{d0-d15}
878001e4:	1ee10a10 	vmsrne	fpscr, r0
878001e8:	e59f0240 	ldr	r0, [pc, #576]	; 87800430 <ulCriticalNestingConst>
878001ec:	e49d1004 	pop	{r1}		; (ldr r1, [sp], #4)
878001f0:	e5801000 	str	r1, [r0]
878001f4:	e59f222c 	ldr	r2, [pc, #556]	; 87800428 <ulICCPMRConst>
878001f8:	e5922000 	ldr	r2, [r2]
878001fc:	e3510000 	cmp	r1, #0
87800200:	03a040ff 	moveq	r4, #255	; 0xff
87800204:	159f422c 	ldrne	r4, [pc, #556]	; 87800438 <ulMaxAPIPriorityMaskConst>
87800208:	15944000 	ldrne	r4, [r4]
8780020c:	e5824000 	str	r4, [r2]
87800210:	e8bd5fff 	pop	{r0, r1, r2, r3, r4, r5, r6, r7, r8, r9, sl, fp, ip, lr}
87800214:	f8bd0a00 	rfeia	sp!

87800218 <vPortRestoreTaskContext>:
87800218:	f102001f 	cps	#31
8780021c:	e59f0208 	ldr	r0, [pc, #520]	; 8780042c <pxCurrentTCBConst>
87800220:	e5901000 	ldr	r1, [r0]
87800224:	e591d000 	ldr	sp, [r1]
87800228:	e59f0204 	ldr	r0, [pc, #516]	; 87800434 <ulPortTaskHasFPUContextConst>
8780022c:	e49d1004 	pop	{r1}		; (ldr r1, [sp], #4)
87800230:	e5801000 	str	r1, [r0]
87800234:	e3510000 	cmp	r1, #0
87800238:	149d0004 	popne	{r0}		; (ldrne r0, [sp], #4)
8780023c:	1cfd0b20 	vpopne	{d16-d31}
87800240:	1cbd0b20 	vpopne	{d0-d15}
87800244:	1ee10a10 	vmsrne	fpscr, r0
87800248:	e59f01e0 	ldr	r0, [pc, #480]	; 87800430 <ulCriticalNestingConst>
8780024c:	e49d1004 	pop	{r1}		; (ldr r1, [sp], #4)
87800250:	e5801000 	str	r1, [r0]
87800254:	e59f21cc 	ldr	r2, [pc, #460]	; 87800428 <ulICCPMRConst>
87800258:	e5922000 	ldr	r2, [r2]
8780025c:	e3510000 	cmp	r1, #0
87800260:	03a040ff 	moveq	r4, #255	; 0xff
87800264:	159f41cc 	ldrne	r4, [pc, #460]	; 87800438 <ulMaxAPIPriorityMaskConst>
87800268:	15944000 	ldrne	r4, [r4]
8780026c:	e5824000 	str	r4, [r2]
87800270:	e8bd5fff 	pop	{r0, r1, r2, r3, r4, r5, r6, r7, r8, r9, sl, fp, ip, lr}
87800274:	f8bd0a00 	rfeia	sp!
87800278:	e320f000 	nop	{0}
8780027c:	e320f000 	nop	{0}

87800280 <FreeRTOS_IRQ_Handler>:
87800280:	e24ee004 	sub	lr, lr, #4
87800284:	e52de004 	push	{lr}		; (str lr, [sp, #-4]!)
87800288:	e14fe000 	mrs	lr, SPSR
8780028c:	e52de004 	push	{lr}		; (str lr, [sp, #-4]!)
87800290:	f1020013 	cps	#19
87800294:	e92d101f 	push	{r0, r1, r2, r3, r4, ip}
87800298:	e59f31a4 	ldr	r3, [pc, #420]	; 87800444 <ulPortInterruptNestingConst>
8780029c:	e5931000 	ldr	r1, [r3]
878002a0:	e2814001 	add	r4, r1, #1
878002a4:	e5834000 	str	r4, [r3]
878002a8:	e59f2170 	ldr	r2, [pc, #368]	; 87800420 <ulICCIARConst>
878002ac:	e5922000 	ldr	r2, [r2]
878002b0:	e5920000 	ldr	r0, [r2]
878002b4:	e1a0200d 	mov	r2, sp
878002b8:	e2022004 	and	r2, r2, #4
878002bc:	e04dd002 	sub	sp, sp, r2
878002c0:	e92d400f 	push	{r0, r1, r2, r3, lr}
878002c4:	e59f1174 	ldr	r1, [pc, #372]	; 87800440 <vApplicationIRQHandlerConst>
878002c8:	e12fff31 	blx	r1
878002cc:	e8bd400f 	pop	{r0, r1, r2, r3, lr}
878002d0:	e08dd002 	add	sp, sp, r2
878002d4:	f10c0080 	cpsid	i
878002d8:	f57ff04f 	dsb	sy
878002dc:	f57ff06f 	isb	sy
878002e0:	e59f413c 	ldr	r4, [pc, #316]	; 87800424 <ulICCEOIRConst>
878002e4:	e5944000 	ldr	r4, [r4]
878002e8:	e5840000 	str	r0, [r4]
878002ec:	e5831000 	str	r1, [r3]
878002f0:	e3510000 	cmp	r1, #0
878002f4:	1a000003 	bne	87800308 <exit_without_switch>
878002f8:	e59f114c 	ldr	r1, [pc, #332]	; 8780044c <vApplicationFPUSafeIRQHandlerConst+0x4>
878002fc:	e5910000 	ldr	r0, [r1]
87800300:	e3500000 	cmp	r0, #0
87800304:	1a000005 	bne	87800320 <switch_before_exit>

87800308 <exit_without_switch>:
87800308:	e8bd101f 	pop	{r0, r1, r2, r3, r4, ip}
8780030c:	f1020012 	cps	#18
87800310:	e49de004 	pop	{lr}		; (ldr lr, [sp], #4)
87800314:	e16ff00e 	msr	SPSR_fsxc, lr
87800318:	e49de004 	pop	{lr}		; (ldr lr, [sp], #4)
8780031c:	e1b0f00e 	movs	pc, lr

87800320 <switch_before_exit>:
87800320:	e3a00000 	mov	r0, #0
87800324:	e5810000 	str	r0, [r1]
87800328:	e8bd101f 	pop	{r0, r1, r2, r3, r4, ip}
8780032c:	f1020012 	cps	#18
87800330:	e49de004 	pop	{lr}		; (ldr lr, [sp], #4)
87800334:	e16ff00e 	msr	SPSR_fsxc, lr
87800338:	e49de004 	pop	{lr}		; (ldr lr, [sp], #4)
8780033c:	f96d051f 	srsdb	sp!, #31
87800340:	f102001f 	cps	#31
87800344:	e92d5fff 	push	{r0, r1, r2, r3, r4, r5, r6, r7, r8, r9, sl, fp, ip, lr}
87800348:	e59f20e0 	ldr	r2, [pc, #224]	; 87800430 <ulCriticalNestingConst>
8780034c:	e5921000 	ldr	r1, [r2]
87800350:	e52d1004 	push	{r1}		; (str r1, [sp, #-4]!)
87800354:	e59f20d8 	ldr	r2, [pc, #216]	; 87800434 <ulPortTaskHasFPUContextConst>
87800358:	e5923000 	ldr	r3, [r2]
8780035c:	e3530000 	cmp	r3, #0
87800360:	1ef11a10 	vmrsne	r1, fpscr
87800364:	1d2d0b20 	vpushne	{d0-d15}
87800368:	1d6d0b20 	vpushne	{d16-d31}
8780036c:	152d1004 	pushne	{r1}		; (strne r1, [sp, #-4]!)
87800370:	e52d3004 	push	{r3}		; (str r3, [sp, #-4]!)
87800374:	e59f00b0 	ldr	r0, [pc, #176]	; 8780042c <pxCurrentTCBConst>
87800378:	e5901000 	ldr	r1, [r0]
8780037c:	e581d000 	str	sp, [r1]
87800380:	e59f00b4 	ldr	r0, [pc, #180]	; 8780043c <vTaskSwitchContextConst>
87800384:	e12fff30 	blx	r0
87800388:	e59f009c 	ldr	r0, [pc, #156]	; 8780042c <pxCurrentTCBConst>
8780038c:	e5901000 	ldr	r1, [r0]
87800390:	e591d000 	ldr	sp, [r1]
87800394:	e59f0098 	ldr	r0, [pc, #152]	; 87800434 <ulPortTaskHasFPUContextConst>
87800398:	e49d1004 	pop	{r1}		; (ldr r1, [sp], #4)
8780039c:	e5801000 	str	r1, [r0]
878003a0:	e3510000 	cmp	r1, #0
878003a4:	149d0004 	popne	{r0}		; (ldrne r0, [sp], #4)
878003a8:	1cfd0b20 	vpopne	{d16-d31}
878003ac:	1cbd0b20 	vpopne	{d0-d15}
878003b0:	1ee10a10 	vmsrne	fpscr, r0
878003b4:	e59f0074 	ldr	r0, [pc, #116]	; 87800430 <ulCriticalNestingConst>
878003b8:	e49d1004 	pop	{r1}		; (ldr r1, [sp], #4)
878003bc:	e5801000 	str	r1, [r0]
878003c0:	e59f2060 	ldr	r2, [pc, #96]	; 87800428 <ulICCPMRConst>
878003c4:	e5922000 	ldr	r2, [r2]
878003c8:	e3510000 	cmp	r1, #0
878003cc:	03a040ff 	moveq	r4, #255	; 0xff
878003d0:	159f4060 	ldrne	r4, [pc, #96]	; 87800438 <ulMaxAPIPriorityMaskConst>
878003d4:	15944000 	ldrne	r4, [r4]
878003d8:	e5824000 	str	r4, [r2]
878003dc:	e8bd5fff 	pop	{r0, r1, r2, r3, r4, r5, r6, r7, r8, r9, sl, fp, ip, lr}
878003e0:	f8bd0a00 	rfeia	sp!
878003e4:	e320f000 	nop	{0}
878003e8:	e320f000 	nop	{0}
878003ec:	e320f000 	nop	{0}

878003f0 <vApplicationIRQHandler>:
878003f0:	e52de004 	push	{lr}		; (str lr, [sp, #-4]!)
878003f4:	eef11a10 	vmrs	r1, fpscr
878003f8:	ed2d0b20 	vpush	{d0-d15}
878003fc:	ed6d0b20 	vpush	{d16-d31}
87800400:	e52d1004 	push	{r1}		; (str r1, [sp, #-4]!)
87800404:	e59f103c 	ldr	r1, [pc, #60]	; 87800448 <vApplicationFPUSafeIRQHandlerConst>
87800408:	e12fff31 	blx	r1
8780040c:	e49d0004 	pop	{r0}		; (ldr r0, [sp], #4)
87800410:	ecfd0b20 	vpop	{d16-d31}
87800414:	ecbd0b20 	vpop	{d0-d15}
87800418:	eee10a10 	vmsr	fpscr, r0
8780041c:	e49df004 	pop	{pc}		; (ldr pc, [sp], #4)

87800420 <ulICCIARConst>:
87800420:	8780ac1c 	usada8hi	r0, ip, ip, sl

87800424 <ulICCEOIRConst>:
87800424:	8780ac18 	usada8hi	r0, r8, ip, sl

87800428 <ulICCPMRConst>:
87800428:	8780ac14 	usada8hi	r0, r4, ip, sl

8780042c <pxCurrentTCBConst>:
8780042c:	8780b258 			; <UNDEFINED> instruction: 0x8780b258

87800430 <ulCriticalNestingConst>:
87800430:	8780ac48 	strhi	sl, [r0, r8, asr #24]

87800434 <ulPortTaskHasFPUContextConst>:
87800434:	8780b35c 			; <UNDEFINED> instruction: 0x8780b35c

87800438 <ulMaxAPIPriorityMaskConst>:
87800438:	8780ac10 	usada8hi	r0, r0, ip, sl

8780043c <vTaskSwitchContextConst>:
8780043c:	87803631 			; <UNDEFINED> instruction: 0x87803631

87800440 <vApplicationIRQHandlerConst>:
87800440:	878003f0 			; <UNDEFINED> instruction: 0x878003f0

87800444 <ulPortInterruptNestingConst>:
87800444:	8780b360 	strhi	fp, [r0, r0, ror #6]

87800448 <vApplicationFPUSafeIRQHandlerConst>:
87800448:	87804399 			; <UNDEFINED> instruction: 0x87804399
8780044c:	8780b358 			; <UNDEFINED> instruction: 0x8780b358
87800450:	00002041 	andeq	r2, r0, r1, asr #32
87800454:	61656100 	cmnvs	r5, r0, lsl #2
87800458:	01006962 	tsteq	r0, r2, ror #18
8780045c:	00000016 	andeq	r0, r0, r6, lsl r0
87800460:	412d3705 	teqmi	sp, r5, lsl #14
87800464:	070a0600 	streq	r0, [sl, -r0, lsl #12]
87800468:	09010841 	stmdbeq	r1, {r0, r6, fp}
8780046c:	0c050a02 	stceq	10, cr0, [r5], {2}
87800470:	00000002 	andeq	r0, r0, r2
	...

87800480 <__umodsi3>:
87800480:	e2512001 	subs	r2, r1, #1
87800484:	3a000062 	bcc	87800614 <Ldiv0>
87800488:	11500001 	cmpne	r0, r1
8780048c:	03a00000 	moveq	r0, #0
87800490:	81110002 	tsthi	r1, r2
87800494:	00000002 	andeq	r0, r0, r2
87800498:	91a0f00e 	movls	pc, lr
8780049c:	e3a02000 	mov	r2, #0
878004a0:	e3510201 	cmp	r1, #268435456	; 0x10000000
878004a4:	31510000 	cmpcc	r1, r0
878004a8:	31a01201 	lslcc	r1, r1, #4
878004ac:	32822004 	addcc	r2, r2, #4
878004b0:	3afffffa 	bcc	878004a0 <__umodsi3+0x20>
878004b4:	e3510102 	cmp	r1, #-2147483648	; 0x80000000
878004b8:	31510000 	cmpcc	r1, r0
878004bc:	31a01081 	lslcc	r1, r1, #1
878004c0:	32822001 	addcc	r2, r2, #1
878004c4:	3afffffa 	bcc	878004b4 <__umodsi3+0x34>
878004c8:	e2522003 	subs	r2, r2, #3
878004cc:	ba00000e 	blt	8780050c <__umodsi3+0x8c>
878004d0:	e1500001 	cmp	r0, r1
878004d4:	20400001 	subcs	r0, r0, r1
878004d8:	e15000a1 	cmp	r0, r1, lsr #1
878004dc:	204000a1 	subcs	r0, r0, r1, lsr #1
878004e0:	e1500121 	cmp	r0, r1, lsr #2
878004e4:	20400121 	subcs	r0, r0, r1, lsr #2
878004e8:	e15001a1 	cmp	r0, r1, lsr #3
878004ec:	204001a1 	subcs	r0, r0, r1, lsr #3
878004f0:	e3500001 	cmp	r0, #1
878004f4:	e1a01221 	lsr	r1, r1, #4
878004f8:	a2522004 	subsge	r2, r2, #4
878004fc:	aafffff3 	bge	878004d0 <__umodsi3+0x50>
87800500:	e3120003 	tst	r2, #3
87800504:	13300000 	teqne	r0, #0
87800508:	0a00000a 	beq	87800538 <__umodsi3+0xb8>
8780050c:	e3720002 	cmn	r2, #2
87800510:	ba000006 	blt	87800530 <__umodsi3+0xb0>
87800514:	0a000002 	beq	87800524 <__umodsi3+0xa4>
87800518:	e1500001 	cmp	r0, r1
8780051c:	20400001 	subcs	r0, r0, r1
87800520:	e1a010a1 	lsr	r1, r1, #1
87800524:	e1500001 	cmp	r0, r1
87800528:	20400001 	subcs	r0, r0, r1
8780052c:	e1a010a1 	lsr	r1, r1, #1
87800530:	e1500001 	cmp	r0, r1
87800534:	20400001 	subcs	r0, r0, r1
87800538:	e1a0f00e 	mov	pc, lr
8780053c:	90909090 	umullsls	r9, r0, r0, r0

87800540 <__modsi3>:
87800540:	e3510000 	cmp	r1, #0
87800544:	0a000032 	beq	87800614 <Ldiv0>
87800548:	42611000 	rsbmi	r1, r1, #0
8780054c:	e1b0c000 	movs	ip, r0
87800550:	42600000 	rsbmi	r0, r0, #0
87800554:	e2512001 	subs	r2, r1, #1
87800558:	11500001 	cmpne	r0, r1
8780055c:	03a00000 	moveq	r0, #0
87800560:	81110002 	tsthi	r1, r2
87800564:	00000002 	andeq	r0, r0, r2
87800568:	9a000026 	bls	87800608 <__modsi3+0xc8>
8780056c:	e3a02000 	mov	r2, #0
87800570:	e3510201 	cmp	r1, #268435456	; 0x10000000
87800574:	31510000 	cmpcc	r1, r0
87800578:	31a01201 	lslcc	r1, r1, #4
8780057c:	32822004 	addcc	r2, r2, #4
87800580:	3afffffa 	bcc	87800570 <__modsi3+0x30>
87800584:	e3510102 	cmp	r1, #-2147483648	; 0x80000000
87800588:	31510000 	cmpcc	r1, r0
8780058c:	31a01081 	lslcc	r1, r1, #1
87800590:	32822001 	addcc	r2, r2, #1
87800594:	3afffffa 	bcc	87800584 <__modsi3+0x44>
87800598:	e2522003 	subs	r2, r2, #3
8780059c:	ba00000e 	blt	878005dc <__modsi3+0x9c>
878005a0:	e1500001 	cmp	r0, r1
878005a4:	20400001 	subcs	r0, r0, r1
878005a8:	e15000a1 	cmp	r0, r1, lsr #1
878005ac:	204000a1 	subcs	r0, r0, r1, lsr #1
878005b0:	e1500121 	cmp	r0, r1, lsr #2
878005b4:	20400121 	subcs	r0, r0, r1, lsr #2
878005b8:	e15001a1 	cmp	r0, r1, lsr #3
878005bc:	204001a1 	subcs	r0, r0, r1, lsr #3
878005c0:	e3500001 	cmp	r0, #1
878005c4:	e1a01221 	lsr	r1, r1, #4
878005c8:	a2522004 	subsge	r2, r2, #4
878005cc:	aafffff3 	bge	878005a0 <__modsi3+0x60>
878005d0:	e3120003 	tst	r2, #3
878005d4:	13300000 	teqne	r0, #0
878005d8:	0a00000a 	beq	87800608 <__modsi3+0xc8>
878005dc:	e3720002 	cmn	r2, #2
878005e0:	ba000006 	blt	87800600 <__modsi3+0xc0>
878005e4:	0a000002 	beq	878005f4 <__modsi3+0xb4>
878005e8:	e1500001 	cmp	r0, r1
878005ec:	20400001 	subcs	r0, r0, r1
878005f0:	e1a010a1 	lsr	r1, r1, #1
878005f4:	e1500001 	cmp	r0, r1
878005f8:	20400001 	subcs	r0, r0, r1
878005fc:	e1a010a1 	lsr	r1, r1, #1
87800600:	e1500001 	cmp	r0, r1
87800604:	20400001 	subcs	r0, r0, r1
87800608:	e35c0000 	cmp	ip, #0
8780060c:	42600000 	rsbmi	r0, r0, #0
87800610:	e1a0f00e 	mov	pc, lr

87800614 <Ldiv0>:
87800614:	e52de004 	push	{lr}		; (str lr, [sp, #-4]!)
87800618:	e3a00000 	mov	r0, #0
8780061c:	e49df004 	pop	{pc}		; (ldr pc, [sp], #4)

87800620 <put>:
87800620:	b538      	push	{r3, r4, r5, lr}
87800622:	f246 34ac 	movw	r4, #25516	; 0x63ac
87800626:	f2c8 7480 	movt	r4, #34688	; 0x8780
8780062a:	4605      	mov	r5, r0
8780062c:	4620      	mov	r0, r4
8780062e:	f001 fd03 	bl	87802038 <puts>
87800632:	0e28      	lsrs	r0, r5, #24
87800634:	f001 fcf4 	bl	87802020 <putc>
87800638:	f3c5 4007 	ubfx	r0, r5, #16, #8
8780063c:	f001 fcf0 	bl	87802020 <putc>
87800640:	f3c5 2007 	ubfx	r0, r5, #8, #8
87800644:	f001 fcec 	bl	87802020 <putc>
87800648:	b2e8      	uxtb	r0, r5
8780064a:	f001 fce9 	bl	87802020 <putc>
8780064e:	4620      	mov	r0, r4
87800650:	e8bd 4038 	ldmia.w	sp!, {r3, r4, r5, lr}
87800654:	f001 bcf0 	b.w	87802038 <puts>

87800658 <lcd_with_uart>:
87800658:	b570      	push	{r4, r5, r6, lr}
8780065a:	4606      	mov	r6, r0
8780065c:	f64a 554c 	movw	r5, #44364	; 0xad4c
87800660:	2000      	movs	r0, #0
87800662:	b082      	sub	sp, #8
87800664:	f2c8 7580 	movt	r5, #34688	; 0x8780
87800668:	4631      	mov	r1, r6
8780066a:	f2c0 2002 	movt	r0, #514	; 0x202
8780066e:	f001 fd15 	bl	8780209c <uart_send_string>
87800672:	882c      	ldrh	r4, [r5, #0]
87800674:	2310      	movs	r3, #16
87800676:	f64f 71fc 	movw	r1, #65532	; 0xfffc
8780067a:	e88d 0048 	stmia.w	sp, {r3, r6}
8780067e:	22f0      	movs	r2, #240	; 0xf0
87800680:	200a      	movs	r0, #10
87800682:	ebc4 04c4 	rsb	r4, r4, r4, lsl #3
87800686:	00a4      	lsls	r4, r4, #2
87800688:	3428      	adds	r4, #40	; 0x28
8780068a:	4021      	ands	r1, r4
8780068c:	f000 ff28 	bl	878014e0 <lcd_show_string>
87800690:	882b      	ldrh	r3, [r5, #0]
87800692:	3301      	adds	r3, #1
87800694:	b29b      	uxth	r3, r3
87800696:	2b16      	cmp	r3, #22
87800698:	bf98      	it	ls
8780069a:	802b      	strhls	r3, [r5, #0]
8780069c:	d801      	bhi.n	878006a2 <lcd_with_uart+0x4a>
8780069e:	b002      	add	sp, #8
878006a0:	bd70      	pop	{r4, r5, r6, pc}
878006a2:	2300      	movs	r3, #0
878006a4:	f06f 407f 	mvn.w	r0, #4278190080	; 0xff000000
878006a8:	802b      	strh	r3, [r5, #0]
878006aa:	b002      	add	sp, #8
878006ac:	e8bd 4070 	ldmia.w	sp!, {r4, r5, r6, lr}
878006b0:	f001 bad4 	b.w	87801c5c <lcd_clear>

878006b4 <uart_task>:
878006b4:	b508      	push	{r3, lr}
878006b6:	f246 30c0 	movw	r0, #25536	; 0x63c0
878006ba:	f2c8 7080 	movt	r0, #34688	; 0x8780
878006be:	f7ff ffcb 	bl	87800658 <lcd_with_uart>
878006c2:	f44f 707a 	mov.w	r0, #1000	; 0x3e8
878006c6:	f002 ff61 	bl	8780358c <vTaskDelay>
878006ca:	e7f4      	b.n	878006b6 <uart_task+0x2>

878006cc <led_task>:
878006cc:	b510      	push	{r4, lr}
878006ce:	2400      	movs	r4, #0
878006d0:	f084 0401 	eor.w	r4, r4, #1
878006d4:	2000      	movs	r0, #0
878006d6:	4621      	mov	r1, r4
878006d8:	f000 fb20 	bl	87800d1c <led_switch>
878006dc:	f246 30d4 	movw	r0, #25556	; 0x63d4
878006e0:	f2c8 7080 	movt	r0, #34688	; 0x8780
878006e4:	f7ff ffb8 	bl	87800658 <lcd_with_uart>
878006e8:	f44f 70fa 	mov.w	r0, #500	; 0x1f4
878006ec:	f002 ff4e 	bl	8780358c <vTaskDelay>
878006f0:	e7ee      	b.n	878006d0 <led_task+0x4>
878006f2:	bf00      	nop

878006f4 <CAN1_DriverIRQHandler>:
878006f4:	e7fe      	b.n	878006f4 <CAN1_DriverIRQHandler>
878006f6:	bf00      	nop

878006f8 <SystemInit>:
878006f8:	e92d 4ff0 	stmdb	sp!, {r4, r5, r6, r7, r8, r9, sl, fp, lr}
878006fc:	f04f 0900 	mov.w	r9, #0
87800700:	ee07 9f15 	mcr	15, 0, r9, cr7, cr5, {0}
87800704:	ee07 9fd5 	mcr	15, 0, r9, cr7, cr5, {6}
87800708:	f3bf 8f4f 	dsb	sy
8780070c:	f3bf 8f6f 	isb	sy
87800710:	ee30 af30 	mrc	15, 1, sl, cr0, cr0, {1}
87800714:	f3ca 6b02 	ubfx	fp, sl, #24, #3
87800718:	f04f 0801 	mov.w	r8, #1
8780071c:	46cc      	mov	ip, r9
8780071e:	f1bb 0f00 	cmp.w	fp, #0
87800722:	d037      	beq.n	87800794 <SystemInit+0x9c>
87800724:	fa2a f309 	lsr.w	r3, sl, r9
87800728:	f003 0307 	and.w	r3, r3, #7
8780072c:	3b02      	subs	r3, #2
8780072e:	2b02      	cmp	r3, #2
87800730:	d82a      	bhi.n	87800788 <SystemInit+0x90>
87800732:	ea4f 0e4c 	mov.w	lr, ip, lsl #1
87800736:	ee40 ef10 	mcr	15, 2, lr, cr0, cr0, {0}
8780073a:	ee30 3f10 	mrc	15, 1, r3, cr0, cr0, {0}
8780073e:	f3c3 344e 	ubfx	r4, r3, #13, #15
87800742:	f3c3 07c9 	ubfx	r7, r3, #3, #10
87800746:	f003 0307 	and.w	r3, r3, #7
8780074a:	3401      	adds	r4, #1
8780074c:	3701      	adds	r7, #1
8780074e:	1d18      	adds	r0, r3, #4
87800750:	2601      	movs	r6, #1
87800752:	fa08 f306 	lsl.w	r3, r8, r6
87800756:	429f      	cmp	r7, r3
87800758:	d96a      	bls.n	87800830 <SystemInit+0x138>
8780075a:	3601      	adds	r6, #1
8780075c:	2e0a      	cmp	r6, #10
8780075e:	d1f8      	bne.n	87800752 <SystemInit+0x5a>
87800760:	2616      	movs	r6, #22
87800762:	2500      	movs	r5, #0
87800764:	fa05 f106 	lsl.w	r1, r5, r6
87800768:	2300      	movs	r3, #0
8780076a:	ea41 010e 	orr.w	r1, r1, lr
8780076e:	fa03 f200 	lsl.w	r2, r3, r0
87800772:	430a      	orrs	r2, r1
87800774:	ee07 2f56 	mcr	15, 0, r2, cr7, cr6, {2}
87800778:	3301      	adds	r3, #1
8780077a:	429c      	cmp	r4, r3
8780077c:	d1f7      	bne.n	8780076e <SystemInit+0x76>
8780077e:	3501      	adds	r5, #1
87800780:	42af      	cmp	r7, r5
87800782:	d1ef      	bne.n	87800764 <SystemInit+0x6c>
87800784:	f3bf 8f4f 	dsb	sy
87800788:	f10c 0c01 	add.w	ip, ip, #1
8780078c:	f109 0903 	add.w	r9, r9, #3
87800790:	45dc      	cmp	ip, fp
87800792:	d1c7      	bne.n	87800724 <SystemInit+0x2c>
87800794:	f3bf 8f4f 	dsb	sy
87800798:	ee11 3f30 	mrc	15, 0, r3, cr1, cr0, {1}
8780079c:	f043 0340 	orr.w	r3, r3, #64	; 0x40
878007a0:	ee01 3f30 	mcr	15, 0, r3, cr1, cr0, {1}
878007a4:	ee11 3f10 	mrc	15, 0, r3, cr1, cr0, {0}
878007a8:	f423 5360 	bic.w	r3, r3, #14336	; 0x3800
878007ac:	f023 0327 	bic.w	r3, r3, #39	; 0x27
878007b0:	f443 53c1 	orr.w	r3, r3, #6176	; 0x1820
878007b4:	f043 0304 	orr.w	r3, r3, #4
878007b8:	ee01 3f10 	mcr	15, 0, r3, cr1, cr0, {0}
878007bc:	ee9f 1f10 	mrc	15, 4, r1, cr15, cr0, {0}
878007c0:	0c09      	lsrs	r1, r1, #16
878007c2:	f241 0204 	movw	r2, #4100	; 0x1004
878007c6:	2300      	movs	r3, #0
878007c8:	0409      	lsls	r1, r1, #16
878007ca:	f04f 34ff 	mov.w	r4, #4294967295	; 0xffffffff
878007ce:	5888      	ldr	r0, [r1, r2]
878007d0:	f000 001f 	and.w	r0, r0, #31
878007d4:	3001      	adds	r0, #1
878007d6:	f503 628c 	add.w	r2, r3, #1120	; 0x460
878007da:	3301      	adds	r3, #1
878007dc:	4298      	cmp	r0, r3
878007de:	f841 4022 	str.w	r4, [r1, r2, lsl #2]
878007e2:	d1f8      	bne.n	878007d6 <SystemInit+0xde>
878007e4:	f242 0304 	movw	r3, #8196	; 0x2004
878007e8:	27f8      	movs	r7, #248	; 0xf8
878007ea:	50cf      	str	r7, [r1, r3]
878007ec:	2201      	movs	r2, #1
878007ee:	f242 0508 	movw	r5, #8200	; 0x2008
878007f2:	2602      	movs	r6, #2
878007f4:	f501 5480 	add.w	r4, r1, #4096	; 0x1000
878007f8:	f501 5000 	add.w	r0, r1, #8192	; 0x2000
878007fc:	2300      	movs	r3, #0
878007fe:	514e      	str	r6, [r1, r5]
87800800:	f2c8 7380 	movt	r3, #34688	; 0x8780
87800804:	6022      	str	r2, [r4, #0]
87800806:	6002      	str	r2, [r0, #0]
87800808:	ee0c 3f10 	mcr	15, 0, r3, cr12, cr0, {0}
8780080c:	ee11 3f50 	mrc	15, 0, r3, cr1, cr0, {2}
87800810:	f023 4340 	bic.w	r3, r3, #3221225472	; 0xc0000000
87800814:	f423 0370 	bic.w	r3, r3, #15728640	; 0xf00000
87800818:	f443 0370 	orr.w	r3, r3, #15728640	; 0xf00000
8780081c:	ee01 3f50 	mcr	15, 0, r3, cr1, cr0, {2}
87800820:	eef8 3a10 	vmrs	r3, fpexc
87800824:	f043 4380 	orr.w	r3, r3, #1073741824	; 0x40000000
87800828:	eee8 3a10 	vmsr	fpexc, r3
8780082c:	e8bd 8ff0 	ldmia.w	sp!, {r4, r5, r6, r7, r8, r9, sl, fp, pc}
87800830:	f1c6 0620 	rsb	r6, r6, #32
87800834:	e795      	b.n	87800762 <SystemInit+0x6a>
87800836:	bf00      	nop

87800838 <SystemCoreClockUpdate>:
87800838:	f44f 4380 	mov.w	r3, #16384	; 0x4000
8780083c:	b510      	push	{r4, lr}
8780083e:	f2c0 230c 	movt	r3, #524	; 0x20c
87800842:	68da      	ldr	r2, [r3, #12]
87800844:	0752      	lsls	r2, r2, #29
87800846:	d545      	bpl.n	878008d4 <SystemCoreClockUpdate+0x9c>
87800848:	68db      	ldr	r3, [r3, #12]
8780084a:	05db      	lsls	r3, r3, #23
8780084c:	bf5c      	itt	pl
8780084e:	f44f 5158 	movpl.w	r1, #13824	; 0x3600
87800852:	f2c0 116e 	movtpl	r1, #366	; 0x16e
87800856:	d52c      	bpl.n	878008b2 <SystemCoreClockUpdate+0x7a>
87800858:	f44f 4200 	mov.w	r2, #32768	; 0x8000
8780085c:	f44f 5158 	mov.w	r1, #13824	; 0x3600
87800860:	f2c0 220c 	movt	r2, #524	; 0x20c
87800864:	f2c0 116e 	movt	r1, #366	; 0x16e
87800868:	6b13      	ldr	r3, [r2, #48]	; 0x30
8780086a:	6d10      	ldr	r0, [r2, #80]	; 0x50
8780086c:	6e12      	ldr	r2, [r2, #96]	; 0x60
8780086e:	f013 0301 	ands.w	r3, r3, #1
87800872:	d13e      	bne.n	878008f2 <SystemCoreClockUpdate+0xba>
87800874:	fba0 0101 	umull	r0, r1, r0, r1
87800878:	f005 fc62 	bl	87806140 <__aeabi_uldivmod>
8780087c:	f44f 5160 	mov.w	r1, #14336	; 0x3800
87800880:	f6c1 419c 	movt	r1, #7324	; 0x1c9c
87800884:	4401      	add	r1, r0
87800886:	f44f 4380 	mov.w	r3, #16384	; 0x4000
8780088a:	f2c0 230c 	movt	r3, #524	; 0x20c
8780088e:	68db      	ldr	r3, [r3, #12]
87800890:	f013 0308 	ands.w	r3, r3, #8
87800894:	d10d      	bne.n	878008b2 <SystemCoreClockUpdate+0x7a>
87800896:	f44f 4200 	mov.w	r2, #32768	; 0x8000
8780089a:	2012      	movs	r0, #18
8780089c:	f2c0 220c 	movt	r2, #524	; 0x20c
878008a0:	fba1 0100 	umull	r0, r1, r1, r0
878008a4:	f8d2 2100 	ldr.w	r2, [r2, #256]	; 0x100
878008a8:	f3c2 4205 	ubfx	r2, r2, #16, #6
878008ac:	f005 fc48 	bl	87806140 <__aeabi_uldivmod>
878008b0:	4601      	mov	r1, r0
878008b2:	f44f 4380 	mov.w	r3, #16384	; 0x4000
878008b6:	4608      	mov	r0, r1
878008b8:	f2c0 230c 	movt	r3, #524	; 0x20c
878008bc:	f64a 4440 	movw	r4, #44096	; 0xac40
878008c0:	6919      	ldr	r1, [r3, #16]
878008c2:	f2c8 7480 	movt	r4, #34688	; 0x8780
878008c6:	f001 0107 	and.w	r1, r1, #7
878008ca:	3101      	adds	r1, #1
878008cc:	f005 fafc 	bl	87805ec8 <__aeabi_uidiv>
878008d0:	6020      	str	r0, [r4, #0]
878008d2:	bd10      	pop	{r4, pc}
878008d4:	f44f 4200 	mov.w	r2, #32768	; 0x8000
878008d8:	f44f 5358 	mov.w	r3, #13824	; 0x3600
878008dc:	f2c0 220c 	movt	r2, #524	; 0x20c
878008e0:	f2c0 136e 	movt	r3, #366	; 0x16e
878008e4:	6811      	ldr	r1, [r2, #0]
878008e6:	f001 017f 	and.w	r1, r1, #127	; 0x7f
878008ea:	fb03 f101 	mul.w	r1, r3, r1
878008ee:	0849      	lsrs	r1, r1, #1
878008f0:	e7df      	b.n	878008b2 <SystemCoreClockUpdate+0x7a>
878008f2:	2300      	movs	r3, #0
878008f4:	fba0 0101 	umull	r0, r1, r0, r1
878008f8:	f005 fc22 	bl	87806140 <__aeabi_uldivmod>
878008fc:	f44f 4124 	mov.w	r1, #41984	; 0xa400
87800900:	f6c1 7178 	movt	r1, #8056	; 0x1f78
87800904:	4401      	add	r1, r0
87800906:	e7be      	b.n	87800886 <SystemCoreClockUpdate+0x4e>

87800908 <SystemInitIrqTable>:
87800908:	e92d 41f0 	stmdb	sp!, {r4, r5, r6, r7, r8, lr}
8780090c:	f64a 5550 	movw	r5, #44368	; 0xad50
87800910:	f2c8 7580 	movt	r5, #34688	; 0x8780
87800914:	f240 61f5 	movw	r1, #1781	; 0x6f5
87800918:	f2c8 7180 	movt	r1, #34688	; 0x8780
8780091c:	462b      	mov	r3, r5
8780091e:	f505 64a0 	add.w	r4, r5, #1280	; 0x500
87800922:	2000      	movs	r0, #0
87800924:	6019      	str	r1, [r3, #0]
87800926:	3308      	adds	r3, #8
87800928:	f843 0c04 	str.w	r0, [r3, #-4]
8780092c:	42a3      	cmp	r3, r4
8780092e:	f04f 0200 	mov.w	r2, #0
87800932:	d1f7      	bne.n	87800924 <SystemInitIrqTable+0x1c>
87800934:	f240 63f5 	movw	r3, #1781	; 0x6f5
87800938:	f240 64f5 	movw	r4, #1781	; 0x6f5
8780093c:	f2c8 7380 	movt	r3, #34688	; 0x8780
87800940:	f240 60f5 	movw	r0, #1781	; 0x6f5
87800944:	f8c5 31f8 	str.w	r3, [r5, #504]	; 0x1f8
87800948:	f240 61f5 	movw	r1, #1781	; 0x6f5
8780094c:	f240 63f5 	movw	r3, #1781	; 0x6f5
87800950:	f2c8 7480 	movt	r4, #34688	; 0x8780
87800954:	f2c8 7080 	movt	r0, #34688	; 0x8780
87800958:	f2c8 7180 	movt	r1, #34688	; 0x8780
8780095c:	f2c8 7380 	movt	r3, #34688	; 0x8780
87800960:	f8c5 4470 	str.w	r4, [r5, #1136]	; 0x470
87800964:	f8c5 0208 	str.w	r0, [r5, #520]	; 0x208
87800968:	f240 67f5 	movw	r7, #1781	; 0x6f5
8780096c:	f8c5 14b0 	str.w	r1, [r5, #1200]	; 0x4b0
87800970:	f240 66f5 	movw	r6, #1781	; 0x6f5
87800974:	f8c5 34c8 	str.w	r3, [r5, #1224]	; 0x4c8
87800978:	f240 64f5 	movw	r4, #1781	; 0x6f5
8780097c:	f240 60f5 	movw	r0, #1781	; 0x6f5
87800980:	f240 61f5 	movw	r1, #1781	; 0x6f5
87800984:	f240 63f5 	movw	r3, #1781	; 0x6f5
87800988:	f2c8 7780 	movt	r7, #34688	; 0x8780
8780098c:	f2c8 7680 	movt	r6, #34688	; 0x8780
87800990:	f2c8 7480 	movt	r4, #34688	; 0x8780
87800994:	f2c8 7080 	movt	r0, #34688	; 0x8780
87800998:	f2c8 7180 	movt	r1, #34688	; 0x8780
8780099c:	f2c8 7380 	movt	r3, #34688	; 0x8780
878009a0:	f8c5 7210 	str.w	r7, [r5, #528]	; 0x210
878009a4:	f8c5 64b8 	str.w	r6, [r5, #1208]	; 0x4b8
878009a8:	f240 6cf5 	movw	ip, #1781	; 0x6f5
878009ac:	f8c5 44c0 	str.w	r4, [r5, #1216]	; 0x4c0
878009b0:	f240 6ef5 	movw	lr, #1781	; 0x6f5
878009b4:	f8c5 0220 	str.w	r0, [r5, #544]	; 0x220
878009b8:	f240 67f5 	movw	r7, #1781	; 0x6f5
878009bc:	f8c5 1230 	str.w	r1, [r5, #560]	; 0x230
878009c0:	f240 66f5 	movw	r6, #1781	; 0x6f5
878009c4:	f8c5 3410 	str.w	r3, [r5, #1040]	; 0x410
878009c8:	f240 64f5 	movw	r4, #1781	; 0x6f5
878009cc:	f240 60f5 	movw	r0, #1781	; 0x6f5
878009d0:	f240 61f5 	movw	r1, #1781	; 0x6f5
878009d4:	f240 63f5 	movw	r3, #1781	; 0x6f5
878009d8:	f2c8 7c80 	movt	ip, #34688	; 0x8780
878009dc:	f2c8 7e80 	movt	lr, #34688	; 0x8780
878009e0:	f2c8 7780 	movt	r7, #34688	; 0x8780
878009e4:	f2c8 7680 	movt	r6, #34688	; 0x8780
878009e8:	f2c8 7480 	movt	r4, #34688	; 0x8780
878009ec:	f2c8 7080 	movt	r0, #34688	; 0x8780
878009f0:	f2c8 7180 	movt	r1, #34688	; 0x8780
878009f4:	f2c8 7380 	movt	r3, #34688	; 0x8780
878009f8:	f8c5 2474 	str.w	r2, [r5, #1140]	; 0x474
878009fc:	f8c5 247c 	str.w	r2, [r5, #1148]	; 0x47c
87800a00:	f240 68f5 	movw	r8, #1781	; 0x6f5
87800a04:	f8c5 21fc 	str.w	r2, [r5, #508]	; 0x1fc
87800a08:	f2c8 7880 	movt	r8, #34688	; 0x8780
87800a0c:	f8c5 2204 	str.w	r2, [r5, #516]	; 0x204
87800a10:	f8c5 220c 	str.w	r2, [r5, #524]	; 0x20c
87800a14:	f8c5 2214 	str.w	r2, [r5, #532]	; 0x214
87800a18:	f8c5 24b4 	str.w	r2, [r5, #1204]	; 0x4b4
87800a1c:	f8c5 24bc 	str.w	r2, [r5, #1212]	; 0x4bc
87800a20:	f8c5 24c4 	str.w	r2, [r5, #1220]	; 0x4c4
87800a24:	f8c5 24cc 	str.w	r2, [r5, #1228]	; 0x4cc
87800a28:	f8c5 2224 	str.w	r2, [r5, #548]	; 0x224
87800a2c:	f8c5 222c 	str.w	r2, [r5, #556]	; 0x22c
87800a30:	f8c5 2234 	str.w	r2, [r5, #564]	; 0x234
87800a34:	f8c5 221c 	str.w	r2, [r5, #540]	; 0x21c
87800a38:	f8c5 240c 	str.w	r2, [r5, #1036]	; 0x40c
87800a3c:	f8c5 2414 	str.w	r2, [r5, #1044]	; 0x414
87800a40:	f8c5 c478 	str.w	ip, [r5, #1144]	; 0x478
87800a44:	f240 6cf5 	movw	ip, #1781	; 0x6f5
87800a48:	f8c5 e200 	str.w	lr, [r5, #512]	; 0x200
87800a4c:	f240 6ef5 	movw	lr, #1781	; 0x6f5
87800a50:	f8c5 7228 	str.w	r7, [r5, #552]	; 0x228
87800a54:	f240 67f5 	movw	r7, #1781	; 0x6f5
87800a58:	f8c5 6218 	str.w	r6, [r5, #536]	; 0x218
87800a5c:	f240 66f5 	movw	r6, #1781	; 0x6f5
87800a60:	f8c5 4408 	str.w	r4, [r5, #1032]	; 0x408
87800a64:	f240 64f5 	movw	r4, #1781	; 0x6f5
87800a68:	f8c5 01c8 	str.w	r0, [r5, #456]	; 0x1c8
87800a6c:	f240 60f5 	movw	r0, #1781	; 0x6f5
87800a70:	f8c5 21cc 	str.w	r2, [r5, #460]	; 0x1cc
87800a74:	f2c8 7c80 	movt	ip, #34688	; 0x8780
87800a78:	f8c5 21c4 	str.w	r2, [r5, #452]	; 0x1c4
87800a7c:	f2c8 7e80 	movt	lr, #34688	; 0x8780
87800a80:	f8c5 21d4 	str.w	r2, [r5, #468]	; 0x1d4
87800a84:	f2c8 7780 	movt	r7, #34688	; 0x8780
87800a88:	f8c5 21dc 	str.w	r2, [r5, #476]	; 0x1dc
87800a8c:	f2c8 7680 	movt	r6, #34688	; 0x8780
87800a90:	f8c5 21e4 	str.w	r2, [r5, #484]	; 0x1e4
87800a94:	f2c8 7480 	movt	r4, #34688	; 0x8780
87800a98:	f8c5 21ec 	str.w	r2, [r5, #492]	; 0x1ec
87800a9c:	f2c8 7080 	movt	r0, #34688	; 0x8780
87800aa0:	f8c5 21f4 	str.w	r2, [r5, #500]	; 0x1f4
87800aa4:	f8c5 218c 	str.w	r2, [r5, #396]	; 0x18c
87800aa8:	f8c5 223c 	str.w	r2, [r5, #572]	; 0x23c
87800aac:	f8c5 2244 	str.w	r2, [r5, #580]	; 0x244
87800ab0:	f8c5 21b4 	str.w	r2, [r5, #436]	; 0x1b4
87800ab4:	f8c5 21bc 	str.w	r2, [r5, #444]	; 0x1bc
87800ab8:	f8c5 2114 	str.w	r2, [r5, #276]	; 0x114
87800abc:	f240 62f5 	movw	r2, #1781	; 0x6f5
87800ac0:	f8c5 11d0 	str.w	r1, [r5, #464]	; 0x1d0
87800ac4:	f240 61f5 	movw	r1, #1781	; 0x6f5
87800ac8:	f8c5 31e8 	str.w	r3, [r5, #488]	; 0x1e8
87800acc:	f240 63f5 	movw	r3, #1781	; 0x6f5
87800ad0:	f2c8 7180 	movt	r1, #34688	; 0x8780
87800ad4:	f2c8 7280 	movt	r2, #34688	; 0x8780
87800ad8:	f2c8 7380 	movt	r3, #34688	; 0x8780
87800adc:	f8c5 81c0 	str.w	r8, [r5, #448]	; 0x1c0
87800ae0:	f8c5 c1d8 	str.w	ip, [r5, #472]	; 0x1d8
87800ae4:	f8c5 e1e0 	str.w	lr, [r5, #480]	; 0x1e0
87800ae8:	f8c5 71f0 	str.w	r7, [r5, #496]	; 0x1f0
87800aec:	f8c5 6188 	str.w	r6, [r5, #392]	; 0x188
87800af0:	f8c5 4238 	str.w	r4, [r5, #568]	; 0x238
87800af4:	f8c5 0240 	str.w	r0, [r5, #576]	; 0x240
87800af8:	f8c5 11b0 	str.w	r1, [r5, #432]	; 0x1b0
87800afc:	f8c5 21b8 	str.w	r2, [r5, #440]	; 0x1b8
87800b00:	f8c5 3110 	str.w	r3, [r5, #272]	; 0x110
87800b04:	e8bd 81f0 	ldmia.w	sp!, {r4, r5, r6, r7, r8, pc}

87800b08 <SystemInstallIrqHandler>:
87800b08:	f64a 5350 	movw	r3, #44368	; 0xad50
87800b0c:	b410      	push	{r4}
87800b0e:	f2c8 7380 	movt	r3, #34688	; 0x8780
87800b12:	eb03 04c0 	add.w	r4, r3, r0, lsl #3
87800b16:	f843 1030 	str.w	r1, [r3, r0, lsl #3]
87800b1a:	6062      	str	r2, [r4, #4]
87800b1c:	f85d 4b04 	ldr.w	r4, [sp], #4
87800b20:	4770      	bx	lr
87800b22:	bf00      	nop

87800b24 <SystemIrqHandler>:
87800b24:	f3c0 0309 	ubfx	r3, r0, #0, #10
87800b28:	2b9f      	cmp	r3, #159	; 0x9f
87800b2a:	d900      	bls.n	87800b2e <SystemIrqHandler+0xa>
87800b2c:	4770      	bx	lr
87800b2e:	b510      	push	{r4, lr}
87800b30:	f64a 5450 	movw	r4, #44368	; 0xad50
87800b34:	f2c8 7480 	movt	r4, #34688	; 0x8780
87800b38:	f8d4 2500 	ldr.w	r2, [r4, #1280]	; 0x500
87800b3c:	3201      	adds	r2, #1
87800b3e:	f8c4 2500 	str.w	r2, [r4, #1280]	; 0x500
87800b42:	b662      	cpsie	i
87800b44:	eb04 02c3 	add.w	r2, r4, r3, lsl #3
87800b48:	f854 3033 	ldr.w	r3, [r4, r3, lsl #3]
87800b4c:	6851      	ldr	r1, [r2, #4]
87800b4e:	4798      	blx	r3
87800b50:	b672      	cpsid	i
87800b52:	f8d4 3500 	ldr.w	r3, [r4, #1280]	; 0x500
87800b56:	3b01      	subs	r3, #1
87800b58:	f8c4 3500 	str.w	r3, [r4, #1280]	; 0x500
87800b5c:	bd10      	pop	{r4, pc}
87800b5e:	bf00      	nop

87800b60 <SystemGetIRQNestingLevel>:
87800b60:	f64a 5350 	movw	r3, #44368	; 0xad50
87800b64:	f2c8 7380 	movt	r3, #34688	; 0x8780
87800b68:	f8d3 0500 	ldr.w	r0, [r3, #1280]	; 0x500
87800b6c:	4770      	bx	lr
87800b6e:	bf00      	nop

87800b70 <SystemSetupSystick>:
87800b70:	b5f8      	push	{r3, r4, r5, r6, r7, lr}
87800b72:	f44f 4300 	mov.w	r3, #32768	; 0x8000
87800b76:	f2c0 2309 	movt	r3, #521	; 0x209
87800b7a:	4606      	mov	r6, r0
87800b7c:	4615      	mov	r5, r2
87800b7e:	4618      	mov	r0, r3
87800b80:	f64a 5250 	movw	r2, #44368	; 0xad50
87800b84:	2400      	movs	r4, #0
87800b86:	f2c8 7280 	movt	r2, #34688	; 0x8780
87800b8a:	f44f 4700 	mov.w	r7, #32768	; 0x8000
87800b8e:	f8c2 12b8 	str.w	r1, [r2, #696]	; 0x2b8
87800b92:	f8c2 42bc 	str.w	r4, [r2, #700]	; 0x2bc
87800b96:	601c      	str	r4, [r3, #0]
87800b98:	601f      	str	r7, [r3, #0]
87800b9a:	6803      	ldr	r3, [r0, #0]
87800b9c:	f44f 4400 	mov.w	r4, #32768	; 0x8000
87800ba0:	f2c0 2409 	movt	r4, #521	; 0x209
87800ba4:	041b      	lsls	r3, r3, #16
87800ba6:	d4f8      	bmi.n	87800b9a <SystemSetupSystick+0x2a>
87800ba8:	2240      	movs	r2, #64	; 0x40
87800baa:	2341      	movs	r3, #65	; 0x41
87800bac:	f244 2040 	movw	r0, #16960	; 0x4240
87800bb0:	6022      	str	r2, [r4, #0]
87800bb2:	4631      	mov	r1, r6
87800bb4:	6063      	str	r3, [r4, #4]
87800bb6:	f2c0 000f 	movt	r0, #15
87800bba:	f005 f985 	bl	87805ec8 <__aeabi_uidiv>
87800bbe:	3801      	subs	r0, #1
87800bc0:	6120      	str	r0, [r4, #16]
87800bc2:	68e3      	ldr	r3, [r4, #12]
87800bc4:	f043 0301 	orr.w	r3, r3, #1
87800bc8:	60e3      	str	r3, [r4, #12]
87800bca:	ee9f 3f10 	mrc	15, 4, r3, cr15, cr0, {0}
87800bce:	0c1b      	lsrs	r3, r3, #16
87800bd0:	00ed      	lsls	r5, r5, #3
87800bd2:	041b      	lsls	r3, r3, #16
87800bd4:	b2ed      	uxtb	r5, r5
87800bd6:	f241 4257 	movw	r2, #5207	; 0x1457
87800bda:	549d      	strb	r5, [r3, r2]
87800bdc:	ee9f 3f10 	mrc	15, 4, r3, cr15, cr0, {0}
87800be0:	0c1b      	lsrs	r3, r3, #16
87800be2:	f241 1208 	movw	r2, #4360	; 0x1108
87800be6:	f44f 0100 	mov.w	r1, #8388608	; 0x800000
87800bea:	041b      	lsls	r3, r3, #16
87800bec:	5099      	str	r1, [r3, r2]
87800bee:	6823      	ldr	r3, [r4, #0]
87800bf0:	f043 0301 	orr.w	r3, r3, #1
87800bf4:	6023      	str	r3, [r4, #0]
87800bf6:	bdf8      	pop	{r3, r4, r5, r6, r7, pc}

87800bf8 <SystemClearSystickFlag>:
87800bf8:	f44f 4300 	mov.w	r3, #32768	; 0x8000
87800bfc:	2201      	movs	r2, #1
87800bfe:	f2c0 2309 	movt	r3, #521	; 0x209
87800c02:	609a      	str	r2, [r3, #8]
87800c04:	4770      	bx	lr
87800c06:	bf00      	nop

87800c08 <clk_enable>:
87800c08:	f44f 4380 	mov.w	r3, #16384	; 0x4000
87800c0c:	f04f 32ff 	mov.w	r2, #4294967295	; 0xffffffff
87800c10:	f2c0 230c 	movt	r3, #524	; 0x20c
87800c14:	669a      	str	r2, [r3, #104]	; 0x68
87800c16:	66da      	str	r2, [r3, #108]	; 0x6c
87800c18:	671a      	str	r2, [r3, #112]	; 0x70
87800c1a:	675a      	str	r2, [r3, #116]	; 0x74
87800c1c:	679a      	str	r2, [r3, #120]	; 0x78
87800c1e:	67da      	str	r2, [r3, #124]	; 0x7c
87800c20:	f8c3 2080 	str.w	r2, [r3, #128]	; 0x80
87800c24:	4770      	bx	lr
87800c26:	bf00      	nop

87800c28 <imx6u_clkinit>:
87800c28:	f44f 4380 	mov.w	r3, #16384	; 0x4000
87800c2c:	b470      	push	{r4, r5, r6}
87800c2e:	f2c0 230c 	movt	r3, #524	; 0x20c
87800c32:	68da      	ldr	r2, [r3, #12]
87800c34:	0751      	lsls	r1, r2, #29
87800c36:	d407      	bmi.n	87800c48 <imx6u_clkinit+0x20>
87800c38:	68da      	ldr	r2, [r3, #12]
87800c3a:	f422 7280 	bic.w	r2, r2, #256	; 0x100
87800c3e:	60da      	str	r2, [r3, #12]
87800c40:	68da      	ldr	r2, [r3, #12]
87800c42:	f042 0204 	orr.w	r2, r2, #4
87800c46:	60da      	str	r2, [r3, #12]
87800c48:	f44f 4200 	mov.w	r2, #32768	; 0x8000
87800c4c:	f44f 4380 	mov.w	r3, #16384	; 0x4000
87800c50:	f2c0 230c 	movt	r3, #524	; 0x20c
87800c54:	f2c0 220c 	movt	r2, #524	; 0x20c
87800c58:	f242 0142 	movw	r1, #8258	; 0x2042
87800c5c:	2600      	movs	r6, #0
87800c5e:	6011      	str	r1, [r2, #0]
87800c60:	f241 041b 	movw	r4, #4123	; 0x101b
87800c64:	68dd      	ldr	r5, [r3, #12]
87800c66:	f2c2 0418 	movt	r4, #8216	; 0x2018
87800c6a:	f241 000c 	movw	r0, #4108	; 0x100c
87800c6e:	4619      	mov	r1, r3
87800c70:	f2c1 3011 	movt	r0, #4881	; 0x1311
87800c74:	f025 0504 	bic.w	r5, r5, #4
87800c78:	60dd      	str	r5, [r3, #12]
87800c7a:	611e      	str	r6, [r3, #16]
87800c7c:	f8d2 5100 	ldr.w	r5, [r2, #256]	; 0x100
87800c80:	f005 35c0 	and.w	r5, r5, #3233857728	; 0xc0c0c0c0
87800c84:	432c      	orrs	r4, r5
87800c86:	f8c2 4100 	str.w	r4, [r2, #256]	; 0x100
87800c8a:	f8d2 40f0 	ldr.w	r4, [r2, #240]	; 0xf0
87800c8e:	f004 34c0 	and.w	r4, r4, #3233857728	; 0xc0c0c0c0
87800c92:	4320      	orrs	r0, r4
87800c94:	f8c2 00f0 	str.w	r0, [r2, #240]	; 0xf0
87800c98:	699a      	ldr	r2, [r3, #24]
87800c9a:	f422 2240 	bic.w	r2, r2, #786432	; 0xc0000
87800c9e:	619a      	str	r2, [r3, #24]
87800ca0:	699a      	ldr	r2, [r3, #24]
87800ca2:	f442 2280 	orr.w	r2, r2, #262144	; 0x40000
87800ca6:	619a      	str	r2, [r3, #24]
87800ca8:	695a      	ldr	r2, [r3, #20]
87800caa:	f022 7200 	bic.w	r2, r2, #33554432	; 0x2000000
87800cae:	615a      	str	r2, [r3, #20]
87800cb0:	6c8a      	ldr	r2, [r1, #72]	; 0x48
87800cb2:	f44f 4380 	mov.w	r3, #16384	; 0x4000
87800cb6:	f2c0 230c 	movt	r3, #524	; 0x20c
87800cba:	0692      	lsls	r2, r2, #26
87800cbc:	d4f8      	bmi.n	87800cb0 <imx6u_clkinit+0x88>
87800cbe:	695a      	ldr	r2, [r3, #20]
87800cc0:	bc70      	pop	{r4, r5, r6}
87800cc2:	f422 7240 	bic.w	r2, r2, #768	; 0x300
87800cc6:	615a      	str	r2, [r3, #20]
87800cc8:	695a      	ldr	r2, [r3, #20]
87800cca:	f442 7280 	orr.w	r2, r2, #256	; 0x100
87800cce:	615a      	str	r2, [r3, #20]
87800cd0:	69da      	ldr	r2, [r3, #28]
87800cd2:	f022 0240 	bic.w	r2, r2, #64	; 0x40
87800cd6:	61da      	str	r2, [r3, #28]
87800cd8:	69da      	ldr	r2, [r3, #28]
87800cda:	f022 0207 	bic.w	r2, r2, #7
87800cde:	61da      	str	r2, [r3, #28]
87800ce0:	4770      	bx	lr
87800ce2:	bf00      	nop

87800ce4 <led_init>:
87800ce4:	2168      	movs	r1, #104	; 0x68
87800ce6:	f44f 723d 	mov.w	r2, #756	; 0x2f4
87800cea:	f44f 4340 	mov.w	r3, #49152	; 0xc000
87800cee:	b410      	push	{r4}
87800cf0:	f2c0 2309 	movt	r3, #521	; 0x209
87800cf4:	2405      	movs	r4, #5
87800cf6:	f2c0 220e 	movt	r2, #526	; 0x20e
87800cfa:	f2c0 210e 	movt	r1, #526	; 0x20e
87800cfe:	f241 00b0 	movw	r0, #4272	; 0x10b0
87800d02:	600c      	str	r4, [r1, #0]
87800d04:	6010      	str	r0, [r2, #0]
87800d06:	685a      	ldr	r2, [r3, #4]
87800d08:	f85d 4b04 	ldr.w	r4, [sp], #4
87800d0c:	f042 0208 	orr.w	r2, r2, #8
87800d10:	605a      	str	r2, [r3, #4]
87800d12:	681a      	ldr	r2, [r3, #0]
87800d14:	f022 0208 	bic.w	r2, r2, #8
87800d18:	601a      	str	r2, [r3, #0]
87800d1a:	4770      	bx	lr

87800d1c <led_switch>:
87800d1c:	b950      	cbnz	r0, 87800d34 <led_switch+0x18>
87800d1e:	2901      	cmp	r1, #1
87800d20:	d009      	beq.n	87800d36 <led_switch+0x1a>
87800d22:	b939      	cbnz	r1, 87800d34 <led_switch+0x18>
87800d24:	f44f 4340 	mov.w	r3, #49152	; 0xc000
87800d28:	f2c0 2309 	movt	r3, #521	; 0x209
87800d2c:	681a      	ldr	r2, [r3, #0]
87800d2e:	f042 0208 	orr.w	r2, r2, #8
87800d32:	601a      	str	r2, [r3, #0]
87800d34:	4770      	bx	lr
87800d36:	f44f 4340 	mov.w	r3, #49152	; 0xc000
87800d3a:	f2c0 2309 	movt	r3, #521	; 0x209
87800d3e:	681a      	ldr	r2, [r3, #0]
87800d40:	f022 0208 	bic.w	r2, r2, #8
87800d44:	601a      	str	r2, [r3, #0]
87800d46:	4770      	bx	lr

87800d48 <delay_init>:
87800d48:	f44f 4300 	mov.w	r3, #32768	; 0x8000
87800d4c:	2000      	movs	r0, #0
87800d4e:	f2c0 230e 	movt	r3, #526	; 0x20e
87800d52:	f44f 4200 	mov.w	r2, #32768	; 0x8000
87800d56:	4619      	mov	r1, r3
87800d58:	6018      	str	r0, [r3, #0]
87800d5a:	601a      	str	r2, [r3, #0]
87800d5c:	680a      	ldr	r2, [r1, #0]
87800d5e:	f44f 4300 	mov.w	r3, #32768	; 0x8000
87800d62:	f2c0 230e 	movt	r3, #526	; 0x20e
87800d66:	0412      	lsls	r2, r2, #16
87800d68:	d4f8      	bmi.n	87800d5c <delay_init+0x14>
87800d6a:	f04f 32ff 	mov.w	r2, #4294967295	; 0xffffffff
87800d6e:	2040      	movs	r0, #64	; 0x40
87800d70:	2141      	movs	r1, #65	; 0x41
87800d72:	6018      	str	r0, [r3, #0]
87800d74:	6059      	str	r1, [r3, #4]
87800d76:	611a      	str	r2, [r3, #16]
87800d78:	681a      	ldr	r2, [r3, #0]
87800d7a:	f042 0201 	orr.w	r2, r2, #1
87800d7e:	601a      	str	r2, [r3, #0]
87800d80:	4770      	bx	lr
87800d82:	bf00      	nop

87800d84 <delayus>:
87800d84:	f44f 4100 	mov.w	r1, #32768	; 0x8000
87800d88:	b430      	push	{r4, r5}
87800d8a:	f2c0 210e 	movt	r1, #526	; 0x20e
87800d8e:	2400      	movs	r4, #0
87800d90:	6a4a      	ldr	r2, [r1, #36]	; 0x24
87800d92:	6a4b      	ldr	r3, [r1, #36]	; 0x24
87800d94:	4293      	cmp	r3, r2
87800d96:	d0fc      	beq.n	87800d92 <delayus+0xe>
87800d98:	1e65      	subs	r5, r4, #1
87800d9a:	429a      	cmp	r2, r3
87800d9c:	eba4 0402 	sub.w	r4, r4, r2
87800da0:	eba5 0502 	sub.w	r5, r5, r2
87800da4:	bf34      	ite	cc
87800da6:	18e4      	addcc	r4, r4, r3
87800da8:	18ec      	addcs	r4, r5, r3
87800daa:	4284      	cmp	r4, r0
87800dac:	461a      	mov	r2, r3
87800dae:	d3f0      	bcc.n	87800d92 <delayus+0xe>
87800db0:	bc30      	pop	{r4, r5}
87800db2:	4770      	bx	lr

87800db4 <delayms>:
87800db4:	b1d8      	cbz	r0, 87800dee <delayms+0x3a>
87800db6:	f44f 4100 	mov.w	r1, #32768	; 0x8000
87800dba:	b470      	push	{r4, r5, r6}
87800dbc:	f2c0 210e 	movt	r1, #526	; 0x20e
87800dc0:	2600      	movs	r6, #0
87800dc2:	2400      	movs	r4, #0
87800dc4:	6a4a      	ldr	r2, [r1, #36]	; 0x24
87800dc6:	6a4b      	ldr	r3, [r1, #36]	; 0x24
87800dc8:	4293      	cmp	r3, r2
87800dca:	d0fc      	beq.n	87800dc6 <delayms+0x12>
87800dcc:	1e65      	subs	r5, r4, #1
87800dce:	429a      	cmp	r2, r3
87800dd0:	eba4 0402 	sub.w	r4, r4, r2
87800dd4:	eba5 0502 	sub.w	r5, r5, r2
87800dd8:	bf34      	ite	cc
87800dda:	18e4      	addcc	r4, r4, r3
87800ddc:	18ec      	addcs	r4, r5, r3
87800dde:	f5b4 7f7a 	cmp.w	r4, #1000	; 0x3e8
87800de2:	461a      	mov	r2, r3
87800de4:	d3ef      	bcc.n	87800dc6 <delayms+0x12>
87800de6:	3601      	adds	r6, #1
87800de8:	4286      	cmp	r6, r0
87800dea:	d1ea      	bne.n	87800dc2 <delayms+0xe>
87800dec:	bc70      	pop	{r4, r5, r6}
87800dee:	4770      	bx	lr

87800df0 <delay_short>:
87800df0:	b082      	sub	sp, #8
87800df2:	9001      	str	r0, [sp, #4]
87800df4:	9b01      	ldr	r3, [sp, #4]
87800df6:	1e5a      	subs	r2, r3, #1
87800df8:	9201      	str	r2, [sp, #4]
87800dfa:	2b00      	cmp	r3, #0
87800dfc:	d1fa      	bne.n	87800df4 <delay_short+0x4>
87800dfe:	b002      	add	sp, #8
87800e00:	4770      	bx	lr
87800e02:	bf00      	nop

87800e04 <delay>:
87800e04:	b082      	sub	sp, #8
87800e06:	9001      	str	r0, [sp, #4]
87800e08:	9b01      	ldr	r3, [sp, #4]
87800e0a:	1e5a      	subs	r2, r3, #1
87800e0c:	9201      	str	r2, [sp, #4]
87800e0e:	b153      	cbz	r3, 87800e26 <delay+0x22>
87800e10:	f240 73ff 	movw	r3, #2047	; 0x7ff
87800e14:	461a      	mov	r2, r3
87800e16:	3b01      	subs	r3, #1
87800e18:	2a00      	cmp	r2, #0
87800e1a:	d1fb      	bne.n	87800e14 <delay+0x10>
87800e1c:	9b01      	ldr	r3, [sp, #4]
87800e1e:	1e5a      	subs	r2, r3, #1
87800e20:	9201      	str	r2, [sp, #4]
87800e22:	2b00      	cmp	r3, #0
87800e24:	d1f4      	bne.n	87800e10 <delay+0xc>
87800e26:	b002      	add	sp, #8
87800e28:	4770      	bx	lr
87800e2a:	bf00      	nop

87800e2c <gpio_pinread>:
87800e2c:	6800      	ldr	r0, [r0, #0]
87800e2e:	40c8      	lsrs	r0, r1
87800e30:	f000 0001 	and.w	r0, r0, #1
87800e34:	4770      	bx	lr
87800e36:	bf00      	nop

87800e38 <gpio_pinwrite>:
87800e38:	2301      	movs	r3, #1
87800e3a:	b122      	cbz	r2, 87800e46 <gpio_pinwrite+0xe>
87800e3c:	6802      	ldr	r2, [r0, #0]
87800e3e:	408b      	lsls	r3, r1
87800e40:	4313      	orrs	r3, r2
87800e42:	6003      	str	r3, [r0, #0]
87800e44:	4770      	bx	lr
87800e46:	6802      	ldr	r2, [r0, #0]
87800e48:	408b      	lsls	r3, r1
87800e4a:	ea22 0303 	bic.w	r3, r2, r3
87800e4e:	6003      	str	r3, [r0, #0]
87800e50:	4770      	bx	lr
87800e52:	bf00      	nop

87800e54 <gpio_intconfig>:
87800e54:	b430      	push	{r4, r5}
87800e56:	2301      	movs	r3, #1
87800e58:	69c4      	ldr	r4, [r0, #28]
87800e5a:	408b      	lsls	r3, r1
87800e5c:	290f      	cmp	r1, #15
87800e5e:	f102 32ff 	add.w	r2, r2, #4294967295	; 0xffffffff
87800e62:	bf88      	it	hi
87800e64:	3910      	subhi	r1, #16
87800e66:	ea24 0403 	bic.w	r4, r4, r3
87800e6a:	61c4      	str	r4, [r0, #28]
87800e6c:	bf94      	ite	ls
87800e6e:	f100 040c 	addls.w	r4, r0, #12
87800e72:	f100 0410 	addhi.w	r4, r0, #16
87800e76:	2a04      	cmp	r2, #4
87800e78:	d80f      	bhi.n	87800e9a <gpio_intconfig+0x46>
87800e7a:	e8df f002 	tbb	[pc, r2]
87800e7e:	231e0315 	tstcs	lr, #1409286144	; 0x54000000
87800e82:	68200010 	stmdavs	r0!, {r4}
87800e86:	0049      	lsls	r1, r1, #1
87800e88:	2503      	movs	r5, #3
87800e8a:	2301      	movs	r3, #1
87800e8c:	408d      	lsls	r5, r1
87800e8e:	fa03 f201 	lsl.w	r2, r3, r1
87800e92:	ea20 0305 	bic.w	r3, r0, r5
87800e96:	4313      	orrs	r3, r2
87800e98:	6023      	str	r3, [r4, #0]
87800e9a:	bc30      	pop	{r4, r5}
87800e9c:	4770      	bx	lr
87800e9e:	69c2      	ldr	r2, [r0, #28]
87800ea0:	bc30      	pop	{r4, r5}
87800ea2:	4313      	orrs	r3, r2
87800ea4:	61c3      	str	r3, [r0, #28]
87800ea6:	4770      	bx	lr
87800ea8:	0049      	lsls	r1, r1, #1
87800eaa:	6822      	ldr	r2, [r4, #0]
87800eac:	2303      	movs	r3, #3
87800eae:	408b      	lsls	r3, r1
87800eb0:	ea22 0303 	bic.w	r3, r2, r3
87800eb4:	6023      	str	r3, [r4, #0]
87800eb6:	bc30      	pop	{r4, r5}
87800eb8:	4770      	bx	lr
87800eba:	0049      	lsls	r1, r1, #1
87800ebc:	2503      	movs	r5, #3
87800ebe:	6820      	ldr	r0, [r4, #0]
87800ec0:	2302      	movs	r3, #2
87800ec2:	e7e3      	b.n	87800e8c <gpio_intconfig+0x38>
87800ec4:	0049      	lsls	r1, r1, #1
87800ec6:	6822      	ldr	r2, [r4, #0]
87800ec8:	2303      	movs	r3, #3
87800eca:	408b      	lsls	r3, r1
87800ecc:	4313      	orrs	r3, r2
87800ece:	6023      	str	r3, [r4, #0]
87800ed0:	bc30      	pop	{r4, r5}
87800ed2:	4770      	bx	lr

87800ed4 <gpio_init>:
87800ed4:	2301      	movs	r3, #1
87800ed6:	b470      	push	{r4, r5, r6}
87800ed8:	408b      	lsls	r3, r1
87800eda:	6944      	ldr	r4, [r0, #20]
87800edc:	6816      	ldr	r6, [r2, #0]
87800ede:	43dd      	mvns	r5, r3
87800ee0:	402c      	ands	r4, r5
87800ee2:	6144      	str	r4, [r0, #20]
87800ee4:	b15e      	cbz	r6, 87800efe <gpio_init+0x2a>
87800ee6:	6844      	ldr	r4, [r0, #4]
87800ee8:	431c      	orrs	r4, r3
87800eea:	6044      	str	r4, [r0, #4]
87800eec:	7914      	ldrb	r4, [r2, #4]
87800eee:	b16c      	cbz	r4, 87800f0c <gpio_init+0x38>
87800ef0:	6804      	ldr	r4, [r0, #0]
87800ef2:	6892      	ldr	r2, [r2, #8]
87800ef4:	4323      	orrs	r3, r4
87800ef6:	bc70      	pop	{r4, r5, r6}
87800ef8:	6003      	str	r3, [r0, #0]
87800efa:	f7ff bfab 	b.w	87800e54 <gpio_intconfig>
87800efe:	6843      	ldr	r3, [r0, #4]
87800f00:	6892      	ldr	r2, [r2, #8]
87800f02:	401d      	ands	r5, r3
87800f04:	6045      	str	r5, [r0, #4]
87800f06:	bc70      	pop	{r4, r5, r6}
87800f08:	f7ff bfa4 	b.w	87800e54 <gpio_intconfig>
87800f0c:	6803      	ldr	r3, [r0, #0]
87800f0e:	6892      	ldr	r2, [r2, #8]
87800f10:	401d      	ands	r5, r3
87800f12:	6005      	str	r5, [r0, #0]
87800f14:	bc70      	pop	{r4, r5, r6}
87800f16:	f7ff bf9d 	b.w	87800e54 <gpio_intconfig>
87800f1a:	bf00      	nop

87800f1c <gpio_enableint>:
87800f1c:	6943      	ldr	r3, [r0, #20]
87800f1e:	2201      	movs	r2, #1
87800f20:	408a      	lsls	r2, r1
87800f22:	4313      	orrs	r3, r2
87800f24:	6143      	str	r3, [r0, #20]
87800f26:	4770      	bx	lr

87800f28 <gpio_disableint>:
87800f28:	6943      	ldr	r3, [r0, #20]
87800f2a:	2201      	movs	r2, #1
87800f2c:	408a      	lsls	r2, r1
87800f2e:	ea23 0302 	bic.w	r3, r3, r2
87800f32:	6143      	str	r3, [r0, #20]
87800f34:	4770      	bx	lr
87800f36:	bf00      	nop

87800f38 <gpio_clearintflags>:
87800f38:	6983      	ldr	r3, [r0, #24]
87800f3a:	2201      	movs	r2, #1
87800f3c:	408a      	lsls	r2, r1
87800f3e:	4313      	orrs	r3, r2
87800f40:	6183      	str	r3, [r0, #24]
87800f42:	4770      	bx	lr

87800f44 <key_init>:
87800f44:	b570      	push	{r4, r5, r6, lr}
87800f46:	218c      	movs	r1, #140	; 0x8c
87800f48:	b084      	sub	sp, #16
87800f4a:	f44f 7346 	mov.w	r3, #792	; 0x318
87800f4e:	f2c0 230e 	movt	r3, #526	; 0x20e
87800f52:	aa04      	add	r2, sp, #16
87800f54:	f2c0 210e 	movt	r1, #526	; 0x20e
87800f58:	2605      	movs	r6, #5
87800f5a:	f24f 0580 	movw	r5, #61568	; 0xf080
87800f5e:	2400      	movs	r4, #0
87800f60:	f44f 4040 	mov.w	r0, #49152	; 0xc000
87800f64:	600e      	str	r6, [r1, #0]
87800f66:	f2c0 2009 	movt	r0, #521	; 0x209
87800f6a:	601d      	str	r5, [r3, #0]
87800f6c:	2112      	movs	r1, #18
87800f6e:	f842 4d0c 	str.w	r4, [r2, #-12]!
87800f72:	f7ff ffaf 	bl	87800ed4 <gpio_init>
87800f76:	b004      	add	sp, #16
87800f78:	bd70      	pop	{r4, r5, r6, pc}
87800f7a:	bf00      	nop

87800f7c <key_getvalue>:
87800f7c:	b538      	push	{r3, r4, r5, lr}
87800f7e:	f64a 4444 	movw	r4, #44100	; 0xac44
87800f82:	f2c8 7480 	movt	r4, #34688	; 0x8780
87800f86:	7823      	ldrb	r3, [r4, #0]
87800f88:	2b01      	cmp	r3, #1
87800f8a:	d00b      	beq.n	87800fa4 <key_getvalue+0x28>
87800f8c:	f44f 4040 	mov.w	r0, #49152	; 0xc000
87800f90:	2112      	movs	r1, #18
87800f92:	f2c0 2009 	movt	r0, #521	; 0x209
87800f96:	f7ff ff49 	bl	87800e2c <gpio_pinread>
87800f9a:	2801      	cmp	r0, #1
87800f9c:	bf08      	it	eq
87800f9e:	7020      	strbeq	r0, [r4, #0]
87800fa0:	2000      	movs	r0, #0
87800fa2:	bd38      	pop	{r3, r4, r5, pc}
87800fa4:	f44f 4040 	mov.w	r0, #49152	; 0xc000
87800fa8:	2112      	movs	r1, #18
87800faa:	f2c0 2009 	movt	r0, #521	; 0x209
87800fae:	f7ff ff3d 	bl	87800e2c <gpio_pinread>
87800fb2:	4605      	mov	r5, r0
87800fb4:	2800      	cmp	r0, #0
87800fb6:	d1e9      	bne.n	87800f8c <key_getvalue+0x10>
87800fb8:	200a      	movs	r0, #10
87800fba:	f7ff ff23 	bl	87800e04 <delay>
87800fbe:	f44f 4040 	mov.w	r0, #49152	; 0xc000
87800fc2:	2112      	movs	r1, #18
87800fc4:	f2c0 2009 	movt	r0, #521	; 0x209
87800fc8:	7025      	strb	r5, [r4, #0]
87800fca:	f7ff ff2f 	bl	87800e2c <gpio_pinread>
87800fce:	fab0 f080 	clz	r0, r0
87800fd2:	0940      	lsrs	r0, r0, #5
87800fd4:	bd38      	pop	{r3, r4, r5, pc}
87800fd6:	bf00      	nop

87800fd8 <epit1_irqhandler>:
87800fd8:	f246 407c 	movw	r0, #25724	; 0x647c
87800fdc:	b508      	push	{r3, lr}
87800fde:	f2c8 7080 	movt	r0, #34688	; 0x8780
87800fe2:	f003 fb59 	bl	87804698 <printf>
87800fe6:	2300      	movs	r3, #0
87800fe8:	f2c0 230d 	movt	r3, #525	; 0x20d
87800fec:	685a      	ldr	r2, [r3, #4]
87800fee:	f042 0201 	orr.w	r2, r2, #1
87800ff2:	605a      	str	r2, [r3, #4]
87800ff4:	bd08      	pop	{r3, pc}
87800ff6:	bf00      	nop

87800ff8 <epit1_init>:
87800ff8:	b538      	push	{r3, r4, r5, lr}
87800ffa:	f640 73ff 	movw	r3, #4095	; 0xfff
87800ffe:	4298      	cmp	r0, r3
87801000:	f04f 0400 	mov.w	r4, #0
87801004:	bf28      	it	cs
87801006:	4618      	movcs	r0, r3
87801008:	f2c0 240d 	movt	r4, #525	; 0x20d
8780100c:	0100      	lsls	r0, r0, #4
8780100e:	2200      	movs	r2, #0
87801010:	6022      	str	r2, [r4, #0]
87801012:	f040 7080 	orr.w	r0, r0, #16777216	; 0x1000000
87801016:	f040 000e 	orr.w	r0, r0, #14
8780101a:	6020      	str	r0, [r4, #0]
8780101c:	60a1      	str	r1, [r4, #8]
8780101e:	60e2      	str	r2, [r4, #12]
87801020:	ee9f 3f10 	mrc	15, 4, r3, cr15, cr0, {0}
87801024:	0c1b      	lsrs	r3, r3, #16
87801026:	f241 4158 	movw	r1, #5208	; 0x1458
8780102a:	20a8      	movs	r0, #168	; 0xa8
8780102c:	041b      	lsls	r3, r3, #16
8780102e:	5458      	strb	r0, [r3, r1]
87801030:	ee9f 3f10 	mrc	15, 4, r3, cr15, cr0, {0}
87801034:	0c1b      	lsrs	r3, r3, #16
87801036:	f241 1008 	movw	r0, #4360	; 0x1108
8780103a:	f04f 7580 	mov.w	r5, #16777216	; 0x1000000
8780103e:	041b      	lsls	r3, r3, #16
87801040:	f640 71d9 	movw	r1, #4057	; 0xfd9
87801044:	f2c8 7180 	movt	r1, #34688	; 0x8780
87801048:	501d      	str	r5, [r3, r0]
8780104a:	2058      	movs	r0, #88	; 0x58
8780104c:	f7ff fd5c 	bl	87800b08 <SystemInstallIrqHandler>
87801050:	6823      	ldr	r3, [r4, #0]
87801052:	f043 0301 	orr.w	r3, r3, #1
87801056:	6023      	str	r3, [r4, #0]
87801058:	bd38      	pop	{r3, r4, r5, pc}
8780105a:	bf00      	nop

8780105c <lcd_drawline>:
8780105c:	e92d 4ff0 	stmdb	sp!, {r4, r5, r6, r7, r8, r9, sl, fp, lr}
87801060:	ebc0 0902 	rsb	r9, r0, r2
87801064:	f1b9 0f00 	cmp.w	r9, #0
87801068:	b085      	sub	sp, #20
8780106a:	ebc1 0a03 	rsb	sl, r1, r3
8780106e:	bfc8      	it	gt
87801070:	2301      	movgt	r3, #1
87801072:	4607      	mov	r7, r0
87801074:	4688      	mov	r8, r1
87801076:	bfc8      	it	gt
87801078:	9302      	strgt	r3, [sp, #8]
8780107a:	dd33      	ble.n	878010e4 <lcd_drawline+0x88>
8780107c:	f1ba 0f00 	cmp.w	sl, #0
87801080:	bfc4      	itt	gt
87801082:	2301      	movgt	r3, #1
87801084:	9303      	strgt	r3, [sp, #12]
87801086:	dd36      	ble.n	878010f6 <lcd_drawline+0x9a>
87801088:	2500      	movs	r5, #0
8780108a:	45ca      	cmp	sl, r9
8780108c:	46d3      	mov	fp, sl
8780108e:	f248 337c 	movw	r3, #33660	; 0x837c
87801092:	bfb8      	it	lt
87801094:	46cb      	movlt	fp, r9
87801096:	462e      	mov	r6, r5
87801098:	462c      	mov	r4, r5
8780109a:	f10b 0201 	add.w	r2, fp, #1
8780109e:	f2c8 7381 	movt	r3, #34689	; 0x8781
878010a2:	9200      	str	r2, [sp, #0]
878010a4:	9301      	str	r3, [sp, #4]
878010a6:	9b01      	ldr	r3, [sp, #4]
878010a8:	444e      	add	r6, r9
878010aa:	fa1f f188 	uxth.w	r1, r8
878010ae:	b2b8      	uxth	r0, r7
878010b0:	699a      	ldr	r2, [r3, #24]
878010b2:	4455      	add	r5, sl
878010b4:	f000 fdb2 	bl	87801c1c <lcd_drawpoint>
878010b8:	455e      	cmp	r6, fp
878010ba:	f104 0401 	add.w	r4, r4, #1
878010be:	bfc4      	itt	gt
878010c0:	9b02      	ldrgt	r3, [sp, #8]
878010c2:	ebcb 0606 	rsbgt	r6, fp, r6
878010c6:	b2a4      	uxth	r4, r4
878010c8:	bfc8      	it	gt
878010ca:	18ff      	addgt	r7, r7, r3
878010cc:	455d      	cmp	r5, fp
878010ce:	bfc2      	ittt	gt
878010d0:	9b03      	ldrgt	r3, [sp, #12]
878010d2:	ebcb 0505 	rsbgt	r5, fp, r5
878010d6:	4498      	addgt	r8, r3
878010d8:	9b00      	ldr	r3, [sp, #0]
878010da:	429c      	cmp	r4, r3
878010dc:	dde3      	ble.n	878010a6 <lcd_drawline+0x4a>
878010de:	b005      	add	sp, #20
878010e0:	e8bd 8ff0 	ldmia.w	sp!, {r4, r5, r6, r7, r8, r9, sl, fp, pc}
878010e4:	bf1d      	ittte	ne
878010e6:	f04f 33ff 	movne.w	r3, #4294967295	; 0xffffffff
878010ea:	f1c9 0900 	rsbne	r9, r9, #0
878010ee:	9302      	strne	r3, [sp, #8]
878010f0:	f8cd 9008 	streq.w	r9, [sp, #8]
878010f4:	e7c2      	b.n	8780107c <lcd_drawline+0x20>
878010f6:	bf1d      	ittte	ne
878010f8:	f04f 33ff 	movne.w	r3, #4294967295	; 0xffffffff
878010fc:	f1ca 0a00 	rsbne	sl, sl, #0
87801100:	9303      	strne	r3, [sp, #12]
87801102:	f8cd a00c 	streq.w	sl, [sp, #12]
87801106:	e7bf      	b.n	87801088 <lcd_drawline+0x2c>

87801108 <lcd_draw_rectangle>:
87801108:	e92d 41f0 	stmdb	sp!, {r4, r5, r6, r7, r8, lr}
8780110c:	461c      	mov	r4, r3
8780110e:	4606      	mov	r6, r0
87801110:	460d      	mov	r5, r1
87801112:	460b      	mov	r3, r1
87801114:	4617      	mov	r7, r2
87801116:	f7ff ffa1 	bl	8780105c <lcd_drawline>
8780111a:	4623      	mov	r3, r4
8780111c:	4632      	mov	r2, r6
8780111e:	4629      	mov	r1, r5
87801120:	4630      	mov	r0, r6
87801122:	f7ff ff9b 	bl	8780105c <lcd_drawline>
87801126:	4623      	mov	r3, r4
87801128:	463a      	mov	r2, r7
8780112a:	4621      	mov	r1, r4
8780112c:	4630      	mov	r0, r6
8780112e:	f7ff ff95 	bl	8780105c <lcd_drawline>
87801132:	4623      	mov	r3, r4
87801134:	463a      	mov	r2, r7
87801136:	4629      	mov	r1, r5
87801138:	4638      	mov	r0, r7
8780113a:	e8bd 41f0 	ldmia.w	sp!, {r4, r5, r6, r7, r8, lr}
8780113e:	f7ff bf8d 	b.w	8780105c <lcd_drawline>
87801142:	bf00      	nop

87801144 <lcd_draw_Circle>:
87801144:	4613      	mov	r3, r2
87801146:	e92d 4ff0 	stmdb	sp!, {r4, r5, r6, r7, r8, r9, sl, fp, lr}
8780114a:	f1c2 0201 	rsb	r2, r2, #1
8780114e:	b085      	sub	sp, #20
87801150:	9000      	str	r0, [sp, #0]
87801152:	9201      	str	r2, [sp, #4]
87801154:	2b00      	cmp	r3, #0
87801156:	d066      	beq.n	87801226 <lcd_draw_Circle+0xe2>
87801158:	f248 367c 	movw	r6, #33660	; 0x837c
8780115c:	2700      	movs	r7, #0
8780115e:	f2c8 7681 	movt	r6, #34689	; 0x8781
87801162:	468b      	mov	fp, r1
87801164:	b29d      	uxth	r5, r3
87801166:	9303      	str	r3, [sp, #12]
87801168:	9b00      	ldr	r3, [sp, #0]
8780116a:	b2bc      	uxth	r4, r7
8780116c:	eb05 0a0b 	add.w	sl, r5, fp
87801170:	69b2      	ldr	r2, [r6, #24]
87801172:	fa1f fa8a 	uxth.w	sl, sl
87801176:	eb0b 0904 	add.w	r9, fp, r4
8780117a:	18e1      	adds	r1, r4, r3
8780117c:	fa1f f989 	uxth.w	r9, r9
87801180:	b289      	uxth	r1, r1
87801182:	4608      	mov	r0, r1
87801184:	9102      	str	r1, [sp, #8]
87801186:	4651      	mov	r1, sl
87801188:	f000 fd48 	bl	87801c1c <lcd_drawpoint>
8780118c:	9a00      	ldr	r2, [sp, #0]
8780118e:	4649      	mov	r1, r9
87801190:	eb05 0802 	add.w	r8, r5, r2
87801194:	69b2      	ldr	r2, [r6, #24]
87801196:	fa1f f888 	uxth.w	r8, r8
8780119a:	4640      	mov	r0, r8
8780119c:	f000 fd3e 	bl	87801c1c <lcd_drawpoint>
878011a0:	9a00      	ldr	r2, [sp, #0]
878011a2:	4651      	mov	r1, sl
878011a4:	1b12      	subs	r2, r2, r4
878011a6:	ebc4 040b 	rsb	r4, r4, fp
878011aa:	fa1f fa82 	uxth.w	sl, r2
878011ae:	69b2      	ldr	r2, [r6, #24]
878011b0:	b2a4      	uxth	r4, r4
878011b2:	4650      	mov	r0, sl
878011b4:	f000 fd32 	bl	87801c1c <lcd_drawpoint>
878011b8:	9a00      	ldr	r2, [sp, #0]
878011ba:	4649      	mov	r1, r9
878011bc:	1b52      	subs	r2, r2, r5
878011be:	ebc5 050b 	rsb	r5, r5, fp
878011c2:	fa1f f982 	uxth.w	r9, r2
878011c6:	b2ad      	uxth	r5, r5
878011c8:	69b2      	ldr	r2, [r6, #24]
878011ca:	4648      	mov	r0, r9
878011cc:	f000 fd26 	bl	87801c1c <lcd_drawpoint>
878011d0:	4650      	mov	r0, sl
878011d2:	69b2      	ldr	r2, [r6, #24]
878011d4:	4629      	mov	r1, r5
878011d6:	f000 fd21 	bl	87801c1c <lcd_drawpoint>
878011da:	4648      	mov	r0, r9
878011dc:	69b2      	ldr	r2, [r6, #24]
878011de:	4621      	mov	r1, r4
878011e0:	f000 fd1c 	bl	87801c1c <lcd_drawpoint>
878011e4:	4629      	mov	r1, r5
878011e6:	9802      	ldr	r0, [sp, #8]
878011e8:	69b2      	ldr	r2, [r6, #24]
878011ea:	f000 fd17 	bl	87801c1c <lcd_drawpoint>
878011ee:	4621      	mov	r1, r4
878011f0:	69b2      	ldr	r2, [r6, #24]
878011f2:	4640      	mov	r0, r8
878011f4:	f000 fd12 	bl	87801c1c <lcd_drawpoint>
878011f8:	9901      	ldr	r1, [sp, #4]
878011fa:	9b03      	ldr	r3, [sp, #12]
878011fc:	2900      	cmp	r1, #0
878011fe:	eba7 0203 	sub.w	r2, r7, r3
87801202:	bfa8      	it	ge
87801204:	f103 33ff 	addge.w	r3, r3, #4294967295	; 0xffffffff
87801208:	eb01 0242 	add.w	r2, r1, r2, lsl #1
8780120c:	bfba      	itte	lt
8780120e:	460a      	movlt	r2, r1
87801210:	eb02 0247 	addlt.w	r2, r2, r7, lsl #1
87801214:	3205      	addge	r2, #5
87801216:	f107 0701 	add.w	r7, r7, #1
8780121a:	bfae      	itee	ge
8780121c:	9201      	strge	r2, [sp, #4]
8780121e:	3203      	addlt	r2, #3
87801220:	9201      	strlt	r2, [sp, #4]
87801222:	42bb      	cmp	r3, r7
87801224:	dc9e      	bgt.n	87801164 <lcd_draw_Circle+0x20>
87801226:	b005      	add	sp, #20
87801228:	e8bd 8ff0 	ldmia.w	sp!, {r4, r5, r6, r7, r8, r9, sl, fp, pc}

8780122c <lcd_showchar>:
8780122c:	e92d 4ff0 	stmdb	sp!, {r4, r5, r6, r7, r8, r9, sl, fp, lr}
87801230:	461e      	mov	r6, r3
87801232:	f013 0307 	ands.w	r3, r3, #7
87801236:	ea4f 0456 	mov.w	r4, r6, lsr #1
8780123a:	bf18      	it	ne
8780123c:	2301      	movne	r3, #1
8780123e:	eb03 05d6 	add.w	r5, r3, r6, lsr #3
87801242:	4689      	mov	r9, r1
87801244:	b087      	sub	sp, #28
87801246:	fb15 f104 	smulbb	r1, r5, r4
8780124a:	3a20      	subs	r2, #32
8780124c:	b2d2      	uxtb	r2, r2
8780124e:	9001      	str	r0, [sp, #4]
87801250:	f89d b040 	ldrb.w	fp, [sp, #64]	; 0x40
87801254:	f011 01ff 	ands.w	r1, r1, #255	; 0xff
87801258:	d06c      	beq.n	87801334 <lcd_showchar+0x108>
8780125a:	b217      	sxth	r7, r2
8780125c:	483d      	ldr	r0, [pc, #244]	; (87801354 <lcd_showchar+0x128>)
8780125e:	3901      	subs	r1, #1
87801260:	ea4f 0887 	mov.w	r8, r7, lsl #2
87801264:	b2c9      	uxtb	r1, r1
87801266:	013c      	lsls	r4, r7, #4
87801268:	eb08 1e47 	add.w	lr, r8, r7, lsl #5
8780126c:	f246 4590 	movw	r5, #25744	; 0x6490
87801270:	f500 6cbe 	add.w	ip, r0, #1520	; 0x5f0
87801274:	eb0c 13c7 	add.w	r3, ip, r7, lsl #7
87801278:	f2c8 7580 	movt	r5, #34688	; 0x8780
8780127c:	f10e 0201 	add.w	r2, lr, #1
87801280:	440a      	add	r2, r1
87801282:	f205 4a74 	addw	sl, r5, #1140	; 0x474
87801286:	ebc8 0104 	rsb	r1, r8, r4
8780128a:	9302      	str	r3, [sp, #8]
8780128c:	eb0a 0302 	add.w	r3, sl, r2
87801290:	f248 377c 	movw	r7, #33660	; 0x837c
87801294:	9305      	str	r3, [sp, #20]
87801296:	186b      	adds	r3, r5, r1
87801298:	9303      	str	r3, [sp, #12]
8780129a:	1903      	adds	r3, r0, r4
8780129c:	44f2      	add	sl, lr
8780129e:	9304      	str	r3, [sp, #16]
878012a0:	465b      	mov	r3, fp
878012a2:	f2c8 7781 	movt	r7, #34689	; 0x8781
878012a6:	46d3      	mov	fp, sl
878012a8:	464c      	mov	r4, r9
878012aa:	469a      	mov	sl, r3
878012ac:	2e0c      	cmp	r6, #12
878012ae:	d04a      	beq.n	87801346 <lcd_showchar+0x11a>
878012b0:	2e10      	cmp	r6, #16
878012b2:	d04b      	beq.n	8780134c <lcd_showchar+0x120>
878012b4:	2e18      	cmp	r6, #24
878012b6:	bf08      	it	eq
878012b8:	f89b 5000 	ldrbeq.w	r5, [fp]
878012bc:	d003      	beq.n	878012c6 <lcd_showchar+0x9a>
878012be:	2e20      	cmp	r6, #32
878012c0:	d138      	bne.n	87801334 <lcd_showchar+0x108>
878012c2:	9b02      	ldr	r3, [sp, #8]
878012c4:	781d      	ldrb	r5, [r3, #0]
878012c6:	f104 0808 	add.w	r8, r4, #8
878012ca:	fa1f f888 	uxth.w	r8, r8
878012ce:	e00c      	b.n	878012ea <lcd_showchar+0xbe>
878012d0:	3401      	adds	r4, #1
878012d2:	883b      	ldrh	r3, [r7, #0]
878012d4:	b2a4      	uxth	r4, r4
878012d6:	006d      	lsls	r5, r5, #1
878012d8:	42a3      	cmp	r3, r4
878012da:	ebc9 0204 	rsb	r2, r9, r4
878012de:	b2ed      	uxtb	r5, r5
878012e0:	d928      	bls.n	87801334 <lcd_showchar+0x108>
878012e2:	42b2      	cmp	r2, r6
878012e4:	d00c      	beq.n	87801300 <lcd_showchar+0xd4>
878012e6:	4544      	cmp	r4, r8
878012e8:	d016      	beq.n	87801318 <lcd_showchar+0xec>
878012ea:	062b      	lsls	r3, r5, #24
878012ec:	d425      	bmi.n	8780133a <lcd_showchar+0x10e>
878012ee:	f1ba 0f00 	cmp.w	sl, #0
878012f2:	d1ed      	bne.n	878012d0 <lcd_showchar+0xa4>
878012f4:	69fa      	ldr	r2, [r7, #28]
878012f6:	4621      	mov	r1, r4
878012f8:	9801      	ldr	r0, [sp, #4]
878012fa:	f000 fc8f 	bl	87801c1c <lcd_drawpoint>
878012fe:	e7e7      	b.n	878012d0 <lcd_showchar+0xa4>
87801300:	9b01      	ldr	r3, [sp, #4]
87801302:	f248 327c 	movw	r2, #33660	; 0x837c
87801306:	f2c8 7281 	movt	r2, #34689	; 0x8781
8780130a:	8852      	ldrh	r2, [r2, #2]
8780130c:	3301      	adds	r3, #1
8780130e:	b29b      	uxth	r3, r3
87801310:	429a      	cmp	r2, r3
87801312:	9301      	str	r3, [sp, #4]
87801314:	d90e      	bls.n	87801334 <lcd_showchar+0x108>
87801316:	464c      	mov	r4, r9
87801318:	9b03      	ldr	r3, [sp, #12]
8780131a:	f10b 0b01 	add.w	fp, fp, #1
8780131e:	3301      	adds	r3, #1
87801320:	9303      	str	r3, [sp, #12]
87801322:	9b04      	ldr	r3, [sp, #16]
87801324:	3301      	adds	r3, #1
87801326:	9304      	str	r3, [sp, #16]
87801328:	9b02      	ldr	r3, [sp, #8]
8780132a:	3301      	adds	r3, #1
8780132c:	9302      	str	r3, [sp, #8]
8780132e:	9b05      	ldr	r3, [sp, #20]
87801330:	459b      	cmp	fp, r3
87801332:	d1bb      	bne.n	878012ac <lcd_showchar+0x80>
87801334:	b007      	add	sp, #28
87801336:	e8bd 8ff0 	ldmia.w	sp!, {r4, r5, r6, r7, r8, r9, sl, fp, pc}
8780133a:	69ba      	ldr	r2, [r7, #24]
8780133c:	4621      	mov	r1, r4
8780133e:	9801      	ldr	r0, [sp, #4]
87801340:	f000 fc6c 	bl	87801c1c <lcd_drawpoint>
87801344:	e7c4      	b.n	878012d0 <lcd_showchar+0xa4>
87801346:	9b03      	ldr	r3, [sp, #12]
87801348:	781d      	ldrb	r5, [r3, #0]
8780134a:	e7bc      	b.n	878012c6 <lcd_showchar+0x9a>
8780134c:	9b04      	ldr	r3, [sp, #16]
8780134e:	781d      	ldrb	r5, [r3, #0]
87801350:	e7b9      	b.n	878012c6 <lcd_showchar+0x9a>
87801352:	bf00      	nop
87801354:	87807660 	strhi	r7, [r0, r0, ror #12]

87801358 <lcd_pow>:
87801358:	1e4b      	subs	r3, r1, #1
8780135a:	2201      	movs	r2, #1
8780135c:	b2db      	uxtb	r3, r3
8780135e:	b129      	cbz	r1, 8780136c <lcd_pow+0x14>
87801360:	3b01      	subs	r3, #1
87801362:	fb00 f202 	mul.w	r2, r0, r2
87801366:	b2db      	uxtb	r3, r3
87801368:	2bff      	cmp	r3, #255	; 0xff
8780136a:	d1f9      	bne.n	87801360 <lcd_pow+0x8>
8780136c:	4610      	mov	r0, r2
8780136e:	4770      	bx	lr

87801370 <lcd_shownum>:
87801370:	e92d 4ff0 	stmdb	sp!, {r4, r5, r6, r7, r8, r9, sl, fp, lr}
87801374:	b087      	sub	sp, #28
87801376:	f89d a040 	ldrb.w	sl, [sp, #64]	; 0x40
8780137a:	2b00      	cmp	r3, #0
8780137c:	d042      	beq.n	87801404 <lcd_shownum+0x94>
8780137e:	4617      	mov	r7, r2
87801380:	1e5a      	subs	r2, r3, #1
87801382:	2500      	movs	r5, #0
87801384:	fa5f f982 	uxtb.w	r9, r2
87801388:	f64c 48cd 	movw	r8, #52429	; 0xcccd
8780138c:	ea4f 0b5a 	mov.w	fp, sl, lsr #1
87801390:	3b02      	subs	r3, #2
87801392:	9104      	str	r1, [sp, #16]
87801394:	4604      	mov	r4, r0
87801396:	462e      	mov	r6, r5
87801398:	f6cc 48cc 	movt	r8, #52428	; 0xcccc
8780139c:	9303      	str	r3, [sp, #12]
8780139e:	f109 0301 	add.w	r3, r9, #1
878013a2:	9205      	str	r2, [sp, #20]
878013a4:	9302      	str	r3, [sp, #8]
878013a6:	b2ea      	uxtb	r2, r5
878013a8:	9b03      	ldr	r3, [sp, #12]
878013aa:	2101      	movs	r1, #1
878013ac:	454a      	cmp	r2, r9
878013ae:	eba3 0302 	sub.w	r3, r3, r2
878013b2:	b2db      	uxtb	r3, r3
878013b4:	d006      	beq.n	878013c4 <lcd_shownum+0x54>
878013b6:	3b01      	subs	r3, #1
878013b8:	00ca      	lsls	r2, r1, #3
878013ba:	b2db      	uxtb	r3, r3
878013bc:	eb02 0141 	add.w	r1, r2, r1, lsl #1
878013c0:	2bff      	cmp	r3, #255	; 0xff
878013c2:	d1f8      	bne.n	878013b6 <lcd_shownum+0x46>
878013c4:	4638      	mov	r0, r7
878013c6:	f004 fd7f 	bl	87805ec8 <__aeabi_uidiv>
878013ca:	fba0 2308 	umull	r2, r3, r0, r8
878013ce:	08db      	lsrs	r3, r3, #3
878013d0:	00da      	lsls	r2, r3, #3
878013d2:	eb02 0343 	add.w	r3, r2, r3, lsl #1
878013d6:	1ac3      	subs	r3, r0, r3
878013d8:	b2da      	uxtb	r2, r3
878013da:	b91e      	cbnz	r6, 878013e4 <lcd_shownum+0x74>
878013dc:	9905      	ldr	r1, [sp, #20]
878013de:	42a9      	cmp	r1, r5
878013e0:	dd01      	ble.n	878013e6 <lcd_shownum+0x76>
878013e2:	b193      	cbz	r3, 8780140a <lcd_shownum+0x9a>
878013e4:	2601      	movs	r6, #1
878013e6:	2300      	movs	r3, #0
878013e8:	3230      	adds	r2, #48	; 0x30
878013ea:	9300      	str	r3, [sp, #0]
878013ec:	b2d2      	uxtb	r2, r2
878013ee:	4653      	mov	r3, sl
878013f0:	9904      	ldr	r1, [sp, #16]
878013f2:	4620      	mov	r0, r4
878013f4:	f7ff ff1a 	bl	8780122c <lcd_showchar>
878013f8:	9b02      	ldr	r3, [sp, #8]
878013fa:	3501      	adds	r5, #1
878013fc:	445c      	add	r4, fp
878013fe:	b2a4      	uxth	r4, r4
87801400:	429d      	cmp	r5, r3
87801402:	d1d0      	bne.n	878013a6 <lcd_shownum+0x36>
87801404:	b007      	add	sp, #28
87801406:	e8bd 8ff0 	ldmia.w	sp!, {r4, r5, r6, r7, r8, r9, sl, fp, pc}
8780140a:	9600      	str	r6, [sp, #0]
8780140c:	4653      	mov	r3, sl
8780140e:	2220      	movs	r2, #32
87801410:	9904      	ldr	r1, [sp, #16]
87801412:	4620      	mov	r0, r4
87801414:	f7ff ff0a 	bl	8780122c <lcd_showchar>
87801418:	e7ee      	b.n	878013f8 <lcd_shownum+0x88>
8780141a:	bf00      	nop

8780141c <lcd_showxnum>:
8780141c:	e92d 4ff0 	stmdb	sp!, {r4, r5, r6, r7, r8, r9, sl, fp, lr}
87801420:	b089      	sub	sp, #36	; 0x24
87801422:	f89d a048 	ldrb.w	sl, [sp, #72]	; 0x48
87801426:	f89d e04c 	ldrb.w	lr, [sp, #76]	; 0x4c
8780142a:	2b00      	cmp	r3, #0
8780142c:	d04a      	beq.n	878014c4 <lcd_showxnum+0xa8>
8780142e:	4617      	mov	r7, r2
87801430:	1e5a      	subs	r2, r3, #1
87801432:	fa5f f982 	uxtb.w	r9, r2
87801436:	3b02      	subs	r3, #2
87801438:	2500      	movs	r5, #0
8780143a:	ea4f 0b5a 	mov.w	fp, sl, lsr #1
8780143e:	f64c 48cd 	movw	r8, #52429	; 0xcccd
87801442:	9206      	str	r2, [sp, #24]
87801444:	9303      	str	r3, [sp, #12]
87801446:	fa4f f28e 	sxtb.w	r2, lr
8780144a:	f109 0301 	add.w	r3, r9, #1
8780144e:	9105      	str	r1, [sp, #20]
87801450:	4604      	mov	r4, r0
87801452:	462e      	mov	r6, r5
87801454:	f6cc 48cc 	movt	r8, #52428	; 0xcccc
87801458:	9302      	str	r3, [sp, #8]
8780145a:	f00e 0301 	and.w	r3, lr, #1
8780145e:	9207      	str	r2, [sp, #28]
87801460:	9304      	str	r3, [sp, #16]
87801462:	b2ea      	uxtb	r2, r5
87801464:	9b03      	ldr	r3, [sp, #12]
87801466:	2101      	movs	r1, #1
87801468:	454a      	cmp	r2, r9
8780146a:	eba3 0302 	sub.w	r3, r3, r2
8780146e:	b2db      	uxtb	r3, r3
87801470:	d006      	beq.n	87801480 <lcd_showxnum+0x64>
87801472:	3b01      	subs	r3, #1
87801474:	00ca      	lsls	r2, r1, #3
87801476:	b2db      	uxtb	r3, r3
87801478:	eb02 0141 	add.w	r1, r2, r1, lsl #1
8780147c:	2bff      	cmp	r3, #255	; 0xff
8780147e:	d1f8      	bne.n	87801472 <lcd_showxnum+0x56>
87801480:	4638      	mov	r0, r7
87801482:	f004 fd21 	bl	87805ec8 <__aeabi_uidiv>
87801486:	fba0 2308 	umull	r2, r3, r0, r8
8780148a:	08db      	lsrs	r3, r3, #3
8780148c:	00da      	lsls	r2, r3, #3
8780148e:	eb02 0343 	add.w	r3, r2, r3, lsl #1
87801492:	1ac3      	subs	r3, r0, r3
87801494:	b2da      	uxtb	r2, r3
87801496:	b9c6      	cbnz	r6, 878014ca <lcd_showxnum+0xae>
87801498:	9906      	ldr	r1, [sp, #24]
8780149a:	42a9      	cmp	r1, r5
8780149c:	dd16      	ble.n	878014cc <lcd_showxnum+0xb0>
8780149e:	b9a3      	cbnz	r3, 878014ca <lcd_showxnum+0xae>
878014a0:	9b07      	ldr	r3, [sp, #28]
878014a2:	4620      	mov	r0, r4
878014a4:	9905      	ldr	r1, [sp, #20]
878014a6:	2b00      	cmp	r3, #0
878014a8:	9b04      	ldr	r3, [sp, #16]
878014aa:	bfb4      	ite	lt
878014ac:	2230      	movlt	r2, #48	; 0x30
878014ae:	2220      	movge	r2, #32
878014b0:	9300      	str	r3, [sp, #0]
878014b2:	4653      	mov	r3, sl
878014b4:	f7ff feba 	bl	8780122c <lcd_showchar>
878014b8:	9b02      	ldr	r3, [sp, #8]
878014ba:	3501      	adds	r5, #1
878014bc:	445c      	add	r4, fp
878014be:	b2a4      	uxth	r4, r4
878014c0:	429d      	cmp	r5, r3
878014c2:	d1ce      	bne.n	87801462 <lcd_showxnum+0x46>
878014c4:	b009      	add	sp, #36	; 0x24
878014c6:	e8bd 8ff0 	ldmia.w	sp!, {r4, r5, r6, r7, r8, r9, sl, fp, pc}
878014ca:	2601      	movs	r6, #1
878014cc:	9b04      	ldr	r3, [sp, #16]
878014ce:	3230      	adds	r2, #48	; 0x30
878014d0:	b2d2      	uxtb	r2, r2
878014d2:	9905      	ldr	r1, [sp, #20]
878014d4:	4620      	mov	r0, r4
878014d6:	9300      	str	r3, [sp, #0]
878014d8:	4653      	mov	r3, sl
878014da:	f7ff fea7 	bl	8780122c <lcd_showchar>
878014de:	e7eb      	b.n	878014b8 <lcd_showxnum+0x9c>

878014e0 <lcd_show_string>:
878014e0:	e92d 4ff0 	stmdb	sp!, {r4, r5, r6, r7, r8, r9, sl, fp, lr}
878014e4:	b085      	sub	sp, #20
878014e6:	9f0f      	ldr	r7, [sp, #60]	; 0x3c
878014e8:	4402      	add	r2, r0
878014ea:	fa1f f882 	uxth.w	r8, r2
878014ee:	440b      	add	r3, r1
878014f0:	fa1f f983 	uxth.w	r9, r3
878014f4:	460d      	mov	r5, r1
878014f6:	783a      	ldrb	r2, [r7, #0]
878014f8:	f89d 6038 	ldrb.w	r6, [sp, #56]	; 0x38
878014fc:	f1a2 0320 	sub.w	r3, r2, #32
87801500:	2b5e      	cmp	r3, #94	; 0x5e
87801502:	d81e      	bhi.n	87801542 <lcd_show_string+0x62>
87801504:	b2c3      	uxtb	r3, r0
87801506:	4604      	mov	r4, r0
87801508:	ea4f 0b56 	mov.w	fp, r6, lsr #1
8780150c:	f04f 0a00 	mov.w	sl, #0
87801510:	9303      	str	r3, [sp, #12]
87801512:	e00b      	b.n	8780152c <lcd_show_string+0x4c>
87801514:	f8cd a000 	str.w	sl, [sp]
87801518:	445c      	add	r4, fp
8780151a:	f7ff fe87 	bl	8780122c <lcd_showchar>
8780151e:	f817 2f01 	ldrb.w	r2, [r7, #1]!
87801522:	b2a4      	uxth	r4, r4
87801524:	f1a2 0320 	sub.w	r3, r2, #32
87801528:	2b5e      	cmp	r3, #94	; 0x5e
8780152a:	d80a      	bhi.n	87801542 <lcd_show_string+0x62>
8780152c:	45a0      	cmp	r8, r4
8780152e:	eb05 0106 	add.w	r1, r5, r6
87801532:	bf9c      	itt	ls
87801534:	b28d      	uxthls	r5, r1
87801536:	9c03      	ldrls	r4, [sp, #12]
87801538:	4633      	mov	r3, r6
8780153a:	454d      	cmp	r5, r9
8780153c:	4629      	mov	r1, r5
8780153e:	4620      	mov	r0, r4
87801540:	d3e8      	bcc.n	87801514 <lcd_show_string+0x34>
87801542:	b005      	add	sp, #20
87801544:	e8bd 8ff0 	ldmia.w	sp!, {r4, r5, r6, r7, r8, r9, sl, fp, pc}

87801548 <lcd_read_panelid>:
87801548:	f44f 7288 	mov.w	r2, #272	; 0x110
8780154c:	f44f 7367 	mov.w	r3, #924	; 0x39c
87801550:	b570      	push	{r4, r5, r6, lr}
87801552:	f2c0 220e 	movt	r2, #526	; 0x20e
87801556:	b084      	sub	sp, #16
87801558:	2405      	movs	r4, #5
8780155a:	f2c0 230e 	movt	r3, #526	; 0x20e
8780155e:	f241 01b0 	movw	r1, #4272	; 0x10b0
87801562:	f44f 4080 	mov.w	r0, #16384	; 0x4000
87801566:	6014      	str	r4, [r2, #0]
87801568:	f2c0 200a 	movt	r0, #522	; 0x20a
8780156c:	6019      	str	r1, [r3, #0]
8780156e:	aa01      	add	r2, sp, #4
87801570:	2301      	movs	r3, #1
87801572:	2103      	movs	r1, #3
87801574:	9301      	str	r3, [sp, #4]
87801576:	f88d 3008 	strb.w	r3, [sp, #8]
8780157a:	f44f 7670 	mov.w	r6, #960	; 0x3c0
8780157e:	f7ff fca9 	bl	87800ed4 <gpio_init>
87801582:	f44f 739a 	mov.w	r3, #308	; 0x134
87801586:	f44f 70aa 	mov.w	r0, #340	; 0x154
8780158a:	f2c0 230e 	movt	r3, #526	; 0x20e
8780158e:	f2c0 200e 	movt	r0, #526	; 0x20e
87801592:	f44f 72ba 	mov.w	r2, #372	; 0x174
87801596:	f44f 7578 	mov.w	r5, #992	; 0x3e0
8780159a:	f44f 6180 	mov.w	r1, #1024	; 0x400
8780159e:	601c      	str	r4, [r3, #0]
878015a0:	f2c0 220e 	movt	r2, #526	; 0x20e
878015a4:	f24f 0380 	movw	r3, #61568	; 0xf080
878015a8:	6004      	str	r4, [r0, #0]
878015aa:	f2c0 250e 	movt	r5, #526	; 0x20e
878015ae:	f2c0 210e 	movt	r1, #526	; 0x20e
878015b2:	f2c0 260e 	movt	r6, #526	; 0x20e
878015b6:	f44f 4080 	mov.w	r0, #16384	; 0x4000
878015ba:	6014      	str	r4, [r2, #0]
878015bc:	f2c0 200a 	movt	r0, #522	; 0x20a
878015c0:	6033      	str	r3, [r6, #0]
878015c2:	aa01      	add	r2, sp, #4
878015c4:	602b      	str	r3, [r5, #0]
878015c6:	2400      	movs	r4, #0
878015c8:	600b      	str	r3, [r1, #0]
878015ca:	210c      	movs	r1, #12
878015cc:	9401      	str	r4, [sp, #4]
878015ce:	f7ff fc81 	bl	87800ed4 <gpio_init>
878015d2:	f44f 4080 	mov.w	r0, #16384	; 0x4000
878015d6:	aa01      	add	r2, sp, #4
878015d8:	2114      	movs	r1, #20
878015da:	f2c0 200a 	movt	r0, #522	; 0x20a
878015de:	f7ff fc79 	bl	87800ed4 <gpio_init>
878015e2:	f44f 4080 	mov.w	r0, #16384	; 0x4000
878015e6:	aa01      	add	r2, sp, #4
878015e8:	211c      	movs	r1, #28
878015ea:	f2c0 200a 	movt	r0, #522	; 0x20a
878015ee:	f7ff fc71 	bl	87800ed4 <gpio_init>
878015f2:	f44f 4080 	mov.w	r0, #16384	; 0x4000
878015f6:	211c      	movs	r1, #28
878015f8:	f2c0 200a 	movt	r0, #522	; 0x20a
878015fc:	f7ff fc16 	bl	87800e2c <gpio_pinread>
87801600:	4604      	mov	r4, r0
87801602:	f44f 4080 	mov.w	r0, #16384	; 0x4000
87801606:	2114      	movs	r1, #20
87801608:	f2c0 200a 	movt	r0, #522	; 0x20a
8780160c:	f7ff fc0e 	bl	87800e2c <gpio_pinread>
87801610:	4605      	mov	r5, r0
87801612:	f44f 4080 	mov.w	r0, #16384	; 0x4000
87801616:	f2c0 200a 	movt	r0, #522	; 0x20a
8780161a:	210c      	movs	r1, #12
8780161c:	f7ff fc06 	bl	87800e2c <gpio_pinread>
87801620:	b2c0      	uxtb	r0, r0
87801622:	b2ed      	uxtb	r5, r5
87801624:	0080      	lsls	r0, r0, #2
87801626:	ea40 0045 	orr.w	r0, r0, r5, lsl #1
8780162a:	4320      	orrs	r0, r4
8780162c:	f010 00ff 	ands.w	r0, r0, #255	; 0xff
87801630:	bf08      	it	eq
87801632:	f244 3042 	movweq	r0, #17218	; 0x4342
87801636:	d101      	bne.n	8780163c <lcd_read_panelid+0xf4>
87801638:	b004      	add	sp, #16
8780163a:	bd70      	pop	{r4, r5, r6, pc}
8780163c:	2801      	cmp	r0, #1
8780163e:	bf08      	it	eq
87801640:	f247 0084 	movweq	r0, #28804	; 0x7084
87801644:	d0f8      	beq.n	87801638 <lcd_read_panelid+0xf0>
87801646:	2802      	cmp	r0, #2
87801648:	bf08      	it	eq
8780164a:	f247 0016 	movweq	r0, #28694	; 0x7016
8780164e:	d0f3      	beq.n	87801638 <lcd_read_panelid+0xf0>
87801650:	2804      	cmp	r0, #4
87801652:	bf08      	it	eq
87801654:	f244 3084 	movweq	r0, #17284	; 0x4384
87801658:	d0ee      	beq.n	87801638 <lcd_read_panelid+0xf0>
8780165a:	2805      	cmp	r0, #5
8780165c:	bf08      	it	eq
8780165e:	f241 0018 	movweq	r0, #4120	; 0x1018
87801662:	d0e9      	beq.n	87801638 <lcd_read_panelid+0xf0>
87801664:	2807      	cmp	r0, #7
87801666:	bf0c      	ite	eq
87801668:	f44f 407f 	moveq.w	r0, #65280	; 0xff00
8780166c:	2000      	movne	r0, #0
8780166e:	e7e3      	b.n	87801638 <lcd_read_panelid+0xf0>

87801670 <lcdgpio_init>:
87801670:	b5f0      	push	{r4, r5, r6, r7, lr}
87801672:	f44f 758c 	mov.w	r5, #280	; 0x118
87801676:	2300      	movs	r3, #0
87801678:	f2c0 250e 	movt	r5, #526	; 0x20e
8780167c:	f44f 728e 	mov.w	r2, #284	; 0x11c
87801680:	f44f 7190 	mov.w	r1, #288	; 0x120
87801684:	602b      	str	r3, [r5, #0]
87801686:	f2c0 220e 	movt	r2, #526	; 0x20e
8780168a:	f44f 7692 	mov.w	r6, #292	; 0x124
8780168e:	f44f 7494 	mov.w	r4, #296	; 0x128
87801692:	f44f 7796 	mov.w	r7, #300	; 0x12c
87801696:	f44f 7098 	mov.w	r0, #304	; 0x130
8780169a:	f44f 759a 	mov.w	r5, #308	; 0x134
8780169e:	6013      	str	r3, [r2, #0]
878016a0:	f2c0 210e 	movt	r1, #526	; 0x20e
878016a4:	f2c0 260e 	movt	r6, #526	; 0x20e
878016a8:	f2c0 240e 	movt	r4, #526	; 0x20e
878016ac:	f2c0 270e 	movt	r7, #526	; 0x20e
878016b0:	f2c0 200e 	movt	r0, #526	; 0x20e
878016b4:	f2c0 250e 	movt	r5, #526	; 0x20e
878016b8:	f44f 729c 	mov.w	r2, #312	; 0x138
878016bc:	600b      	str	r3, [r1, #0]
878016be:	f2c0 220e 	movt	r2, #526	; 0x20e
878016c2:	6033      	str	r3, [r6, #0]
878016c4:	f44f 719e 	mov.w	r1, #316	; 0x13c
878016c8:	6023      	str	r3, [r4, #0]
878016ca:	f44f 76a0 	mov.w	r6, #320	; 0x140
878016ce:	603b      	str	r3, [r7, #0]
878016d0:	f44f 74a2 	mov.w	r4, #324	; 0x144
878016d4:	6003      	str	r3, [r0, #0]
878016d6:	f44f 77a4 	mov.w	r7, #328	; 0x148
878016da:	602b      	str	r3, [r5, #0]
878016dc:	f44f 70a6 	mov.w	r0, #332	; 0x14c
878016e0:	f44f 75a8 	mov.w	r5, #336	; 0x150
878016e4:	6013      	str	r3, [r2, #0]
878016e6:	f2c0 210e 	movt	r1, #526	; 0x20e
878016ea:	f2c0 260e 	movt	r6, #526	; 0x20e
878016ee:	f2c0 240e 	movt	r4, #526	; 0x20e
878016f2:	f2c0 270e 	movt	r7, #526	; 0x20e
878016f6:	f2c0 200e 	movt	r0, #526	; 0x20e
878016fa:	f2c0 250e 	movt	r5, #526	; 0x20e
878016fe:	f44f 72aa 	mov.w	r2, #340	; 0x154
87801702:	600b      	str	r3, [r1, #0]
87801704:	f2c0 220e 	movt	r2, #526	; 0x20e
87801708:	6033      	str	r3, [r6, #0]
8780170a:	f44f 71ac 	mov.w	r1, #344	; 0x158
8780170e:	6023      	str	r3, [r4, #0]
87801710:	f44f 76ae 	mov.w	r6, #348	; 0x15c
87801714:	603b      	str	r3, [r7, #0]
87801716:	f44f 74b0 	mov.w	r4, #352	; 0x160
8780171a:	6003      	str	r3, [r0, #0]
8780171c:	f44f 77b2 	mov.w	r7, #356	; 0x164
87801720:	602b      	str	r3, [r5, #0]
87801722:	f44f 70b4 	mov.w	r0, #360	; 0x168
87801726:	f44f 75b6 	mov.w	r5, #364	; 0x16c
8780172a:	6013      	str	r3, [r2, #0]
8780172c:	f2c0 210e 	movt	r1, #526	; 0x20e
87801730:	f2c0 260e 	movt	r6, #526	; 0x20e
87801734:	f2c0 240e 	movt	r4, #526	; 0x20e
87801738:	f2c0 270e 	movt	r7, #526	; 0x20e
8780173c:	f2c0 200e 	movt	r0, #526	; 0x20e
87801740:	f2c0 250e 	movt	r5, #526	; 0x20e
87801744:	f44f 72b8 	mov.w	r2, #368	; 0x170
87801748:	600b      	str	r3, [r1, #0]
8780174a:	f2c0 220e 	movt	r2, #526	; 0x20e
8780174e:	6033      	str	r3, [r6, #0]
87801750:	f44f 71ba 	mov.w	r1, #372	; 0x174
87801754:	6023      	str	r3, [r4, #0]
87801756:	f44f 7682 	mov.w	r6, #260	; 0x104
8780175a:	603b      	str	r3, [r7, #0]
8780175c:	f44f 7484 	mov.w	r4, #264	; 0x108
87801760:	6003      	str	r3, [r0, #0]
87801762:	f44f 7786 	mov.w	r7, #268	; 0x10c
87801766:	602b      	str	r3, [r5, #0]
87801768:	f240 50dc 	movw	r0, #1500	; 0x5dc
8780176c:	f44f 7588 	mov.w	r5, #272	; 0x110
87801770:	6013      	str	r3, [r2, #0]
87801772:	f2c0 210e 	movt	r1, #526	; 0x20e
87801776:	f2c0 260e 	movt	r6, #526	; 0x20e
8780177a:	f2c0 240e 	movt	r4, #526	; 0x20e
8780177e:	f2c0 270e 	movt	r7, #526	; 0x20e
87801782:	f2c0 200e 	movt	r0, #526	; 0x20e
87801786:	f2c0 250e 	movt	r5, #526	; 0x20e
8780178a:	227c      	movs	r2, #124	; 0x7c
8780178c:	600b      	str	r3, [r1, #0]
8780178e:	f2c0 220e 	movt	r2, #526	; 0x20e
87801792:	6033      	str	r3, [r6, #0]
87801794:	f44f 7146 	mov.w	r1, #792	; 0x318
87801798:	6023      	str	r3, [r4, #0]
8780179a:	f2c0 210e 	movt	r1, #526	; 0x20e
8780179e:	603b      	str	r3, [r7, #0]
878017a0:	f44f 7669 	mov.w	r6, #932	; 0x3a4
878017a4:	6003      	str	r3, [r0, #0]
878017a6:	f44f 746a 	mov.w	r4, #936	; 0x3a8
878017aa:	602b      	str	r3, [r5, #0]
878017ac:	2305      	movs	r3, #5
878017ae:	6013      	str	r3, [r2, #0]
878017b0:	f24f 0380 	movw	r3, #61568	; 0xf080
878017b4:	600b      	str	r3, [r1, #0]
878017b6:	f2c0 260e 	movt	r6, #526	; 0x20e
878017ba:	23b9      	movs	r3, #185	; 0xb9
878017bc:	f2c0 240e 	movt	r4, #526	; 0x20e
878017c0:	6033      	str	r3, [r6, #0]
878017c2:	f44f 776b 	mov.w	r7, #940	; 0x3ac
878017c6:	6023      	str	r3, [r4, #0]
878017c8:	f44f 706c 	mov.w	r0, #944	; 0x3b0
878017cc:	f44f 756d 	mov.w	r5, #948	; 0x3b4
878017d0:	f44f 726e 	mov.w	r2, #952	; 0x3b8
878017d4:	f44f 716f 	mov.w	r1, #956	; 0x3bc
878017d8:	f44f 7670 	mov.w	r6, #960	; 0x3c0
878017dc:	f44f 7471 	mov.w	r4, #964	; 0x3c4
878017e0:	f2c0 270e 	movt	r7, #526	; 0x20e
878017e4:	f2c0 200e 	movt	r0, #526	; 0x20e
878017e8:	f2c0 250e 	movt	r5, #526	; 0x20e
878017ec:	f2c0 220e 	movt	r2, #526	; 0x20e
878017f0:	f2c0 210e 	movt	r1, #526	; 0x20e
878017f4:	f2c0 260e 	movt	r6, #526	; 0x20e
878017f8:	f2c0 240e 	movt	r4, #526	; 0x20e
878017fc:	603b      	str	r3, [r7, #0]
878017fe:	f44f 7772 	mov.w	r7, #968	; 0x3c8
87801802:	6003      	str	r3, [r0, #0]
87801804:	f44f 7073 	mov.w	r0, #972	; 0x3cc
87801808:	602b      	str	r3, [r5, #0]
8780180a:	f44f 7574 	mov.w	r5, #976	; 0x3d0
8780180e:	6013      	str	r3, [r2, #0]
87801810:	f44f 7275 	mov.w	r2, #980	; 0x3d4
87801814:	600b      	str	r3, [r1, #0]
87801816:	f44f 7176 	mov.w	r1, #984	; 0x3d8
8780181a:	6033      	str	r3, [r6, #0]
8780181c:	f44f 7677 	mov.w	r6, #988	; 0x3dc
87801820:	6023      	str	r3, [r4, #0]
87801822:	f44f 7478 	mov.w	r4, #992	; 0x3e0
87801826:	f2c0 270e 	movt	r7, #526	; 0x20e
8780182a:	f2c0 200e 	movt	r0, #526	; 0x20e
8780182e:	f2c0 250e 	movt	r5, #526	; 0x20e
87801832:	f2c0 220e 	movt	r2, #526	; 0x20e
87801836:	f2c0 210e 	movt	r1, #526	; 0x20e
8780183a:	f2c0 260e 	movt	r6, #526	; 0x20e
8780183e:	f2c0 240e 	movt	r4, #526	; 0x20e
87801842:	603b      	str	r3, [r7, #0]
87801844:	6003      	str	r3, [r0, #0]
87801846:	f44f 7779 	mov.w	r7, #996	; 0x3e4
8780184a:	602b      	str	r3, [r5, #0]
8780184c:	f44f 707a 	mov.w	r0, #1000	; 0x3e8
87801850:	6013      	str	r3, [r2, #0]
87801852:	f44f 757b 	mov.w	r5, #1004	; 0x3ec
87801856:	600b      	str	r3, [r1, #0]
87801858:	f44f 727c 	mov.w	r2, #1008	; 0x3f0
8780185c:	6033      	str	r3, [r6, #0]
8780185e:	f44f 717d 	mov.w	r1, #1012	; 0x3f4
87801862:	6023      	str	r3, [r4, #0]
87801864:	f44f 767e 	mov.w	r6, #1016	; 0x3f8
87801868:	f44f 747f 	mov.w	r4, #1020	; 0x3fc
8780186c:	f2c0 270e 	movt	r7, #526	; 0x20e
87801870:	f2c0 200e 	movt	r0, #526	; 0x20e
87801874:	f2c0 250e 	movt	r5, #526	; 0x20e
87801878:	f2c0 220e 	movt	r2, #526	; 0x20e
8780187c:	f2c0 210e 	movt	r1, #526	; 0x20e
87801880:	f2c0 260e 	movt	r6, #526	; 0x20e
87801884:	f2c0 240e 	movt	r4, #526	; 0x20e
87801888:	603b      	str	r3, [r7, #0]
8780188a:	f44f 6780 	mov.w	r7, #1024	; 0x400
8780188e:	6003      	str	r3, [r0, #0]
87801890:	f44f 7064 	mov.w	r0, #912	; 0x390
87801894:	602b      	str	r3, [r5, #0]
87801896:	f44f 7565 	mov.w	r5, #916	; 0x394
8780189a:	6013      	str	r3, [r2, #0]
8780189c:	f44f 7266 	mov.w	r2, #920	; 0x398
878018a0:	600b      	str	r3, [r1, #0]
878018a2:	f44f 7167 	mov.w	r1, #924	; 0x39c
878018a6:	6033      	str	r3, [r6, #0]
878018a8:	f44f 7642 	mov.w	r6, #776	; 0x308
878018ac:	6023      	str	r3, [r4, #0]
878018ae:	f44f 4440 	mov.w	r4, #49152	; 0xc000
878018b2:	b085      	sub	sp, #20
878018b4:	f2c0 2409 	movt	r4, #521	; 0x209
878018b8:	f2c0 270e 	movt	r7, #526	; 0x20e
878018bc:	f2c0 200e 	movt	r0, #526	; 0x20e
878018c0:	f2c0 250e 	movt	r5, #526	; 0x20e
878018c4:	f2c0 220e 	movt	r2, #526	; 0x20e
878018c8:	f2c0 210e 	movt	r1, #526	; 0x20e
878018cc:	f2c0 260e 	movt	r6, #526	; 0x20e
878018d0:	603b      	str	r3, [r7, #0]
878018d2:	6003      	str	r3, [r0, #0]
878018d4:	4620      	mov	r0, r4
878018d6:	602b      	str	r3, [r5, #0]
878018d8:	2501      	movs	r5, #1
878018da:	6013      	str	r3, [r2, #0]
878018dc:	aa01      	add	r2, sp, #4
878018de:	600b      	str	r3, [r1, #0]
878018e0:	2108      	movs	r1, #8
878018e2:	6033      	str	r3, [r6, #0]
878018e4:	9501      	str	r5, [sp, #4]
878018e6:	f88d 5008 	strb.w	r5, [sp, #8]
878018ea:	f7ff faf3 	bl	87800ed4 <gpio_init>
878018ee:	462a      	mov	r2, r5
878018f0:	4620      	mov	r0, r4
878018f2:	2108      	movs	r1, #8
878018f4:	f7ff faa0 	bl	87800e38 <gpio_pinwrite>
878018f8:	b005      	add	sp, #20
878018fa:	bdf0      	pop	{r4, r5, r6, r7, pc}

878018fc <lcdclk_init>:
878018fc:	b430      	push	{r4, r5}
878018fe:	f44f 4400 	mov.w	r4, #32768	; 0x8000
87801902:	f2c0 240c 	movt	r4, #524	; 0x20c
87801906:	2500      	movs	r5, #0
87801908:	f440 1081 	orr.w	r0, r0, #1056768	; 0x102000
8780190c:	f44f 4380 	mov.w	r3, #16384	; 0x4000
87801910:	f8c4 50b0 	str.w	r5, [r4, #176]	; 0xb0
87801914:	f2c0 230c 	movt	r3, #524	; 0x20c
87801918:	f8c4 50c0 	str.w	r5, [r4, #192]	; 0xc0
8780191c:	3901      	subs	r1, #1
8780191e:	f8c4 00a0 	str.w	r0, [r4, #160]	; 0xa0
87801922:	3a01      	subs	r2, #1
87801924:	f8d4 0170 	ldr.w	r0, [r4, #368]	; 0x170
87801928:	f020 4040 	bic.w	r0, r0, #3221225472	; 0xc0000000
8780192c:	f8c4 0170 	str.w	r0, [r4, #368]	; 0x170
87801930:	f8c4 5170 	str.w	r5, [r4, #368]	; 0x170
87801934:	6b98      	ldr	r0, [r3, #56]	; 0x38
87801936:	bc30      	pop	{r4, r5}
87801938:	f420 3060 	bic.w	r0, r0, #229376	; 0x38000
8780193c:	6398      	str	r0, [r3, #56]	; 0x38
8780193e:	6b98      	ldr	r0, [r3, #56]	; 0x38
87801940:	f440 3080 	orr.w	r0, r0, #65536	; 0x10000
87801944:	6398      	str	r0, [r3, #56]	; 0x38
87801946:	6b98      	ldr	r0, [r3, #56]	; 0x38
87801948:	f420 40e0 	bic.w	r0, r0, #28672	; 0x7000
8780194c:	6398      	str	r0, [r3, #56]	; 0x38
8780194e:	6b98      	ldr	r0, [r3, #56]	; 0x38
87801950:	ea40 3101 	orr.w	r1, r0, r1, lsl #12
87801954:	6399      	str	r1, [r3, #56]	; 0x38
87801956:	6999      	ldr	r1, [r3, #24]
87801958:	f021 7160 	bic.w	r1, r1, #58720256	; 0x3800000
8780195c:	6199      	str	r1, [r3, #24]
8780195e:	6999      	ldr	r1, [r3, #24]
87801960:	ea41 52c2 	orr.w	r2, r1, r2, lsl #23
87801964:	619a      	str	r2, [r3, #24]
87801966:	6b9a      	ldr	r2, [r3, #56]	; 0x38
87801968:	f422 6260 	bic.w	r2, r2, #3584	; 0xe00
8780196c:	639a      	str	r2, [r3, #56]	; 0x38
8780196e:	6b9a      	ldr	r2, [r3, #56]	; 0x38
87801970:	639a      	str	r2, [r3, #56]	; 0x38
87801972:	4770      	bx	lr

87801974 <lcd_init>:
87801974:	e92d 41f0 	stmdb	sp!, {r4, r5, r6, r7, r8, lr}
87801978:	f248 347c 	movw	r4, #33660	; 0x837c
8780197c:	f7ff fde4 	bl	87801548 <lcd_read_panelid>
87801980:	4605      	mov	r5, r0
87801982:	f64a 30d0 	movw	r0, #43984	; 0xabd0
87801986:	4629      	mov	r1, r5
87801988:	f2c8 7481 	movt	r4, #34689	; 0x8781
8780198c:	f2c8 7080 	movt	r0, #34688	; 0x8780
87801990:	f44f 4600 	mov.w	r6, #32768	; 0x8000
87801994:	f2c0 261c 	movt	r6, #540	; 0x21c
87801998:	6225      	str	r5, [r4, #32]
8780199a:	f002 fe7d 	bl	87804698 <printf>
8780199e:	f7ff fe67 	bl	87801670 <lcdgpio_init>
878019a2:	f04f 4300 	mov.w	r3, #2147483648	; 0x80000000
878019a6:	200a      	movs	r0, #10
878019a8:	6033      	str	r3, [r6, #0]
878019aa:	f7ff fa03 	bl	87800db4 <delayms>
878019ae:	f244 3342 	movw	r3, #17218	; 0x4342
878019b2:	2200      	movs	r2, #0
878019b4:	429d      	cmp	r5, r3
878019b6:	6032      	str	r2, [r6, #0]
878019b8:	f000 8098 	beq.w	87801aec <lcd_init+0x178>
878019bc:	f244 3384 	movw	r3, #17284	; 0x4384
878019c0:	429d      	cmp	r5, r3
878019c2:	f000 80aa 	beq.w	87801b1a <lcd_init+0x1a6>
878019c6:	f247 0384 	movw	r3, #28804	; 0x7084
878019ca:	429d      	cmp	r5, r3
878019cc:	f000 80bd 	beq.w	87801b4a <lcd_init+0x1d6>
878019d0:	f247 0316 	movw	r3, #28694	; 0x7016
878019d4:	429d      	cmp	r5, r3
878019d6:	f000 80d3 	beq.w	87801b80 <lcd_init+0x20c>
878019da:	f241 0318 	movw	r3, #4120	; 0x1018
878019de:	429d      	cmp	r5, r3
878019e0:	d06d      	beq.n	87801abe <lcd_init+0x14a>
878019e2:	f5b5 4f7f 	cmp.w	r5, #65280	; 0xff00
878019e6:	f000 80e4 	beq.w	87801bb2 <lcd_init+0x23e>
878019ea:	f44f 4300 	mov.w	r3, #32768	; 0x8000
878019ee:	2000      	movs	r0, #0
878019f0:	f2c0 231c 	movt	r3, #540	; 0x21c
878019f4:	2704      	movs	r7, #4
878019f6:	f04f 4109 	mov.w	r1, #2298478592	; 0x89000000
878019fa:	f06f 427f 	mvn.w	r2, #4278190080	; 0xff000000
878019fe:	7127      	strb	r7, [r4, #4]
87801a00:	f44f 27e0 	mov.w	r7, #458752	; 0x70000
87801a04:	6161      	str	r1, [r4, #20]
87801a06:	f248 317c 	movw	r1, #33660	; 0x837c
87801a0a:	61a0      	str	r0, [r4, #24]
87801a0c:	f2c8 7181 	movt	r1, #34689	; 0x8781
87801a10:	61e2      	str	r2, [r4, #28]
87801a12:	f5b5 4f7f 	cmp.w	r5, #65280	; 0xff00
87801a16:	681a      	ldr	r2, [r3, #0]
87801a18:	8826      	ldrh	r6, [r4, #0]
87801a1a:	f8b4 e002 	ldrh.w	lr, [r4, #2]
87801a1e:	f442 2220 	orr.w	r2, r2, #655360	; 0xa0000
87801a22:	8925      	ldrh	r5, [r4, #8]
87801a24:	f442 6272 	orr.w	r2, r2, #3872	; 0xf20
87801a28:	f8b4 800a 	ldrh.w	r8, [r4, #10]
87801a2c:	601a      	str	r2, [r3, #0]
87801a2e:	ea4e 4206 	orr.w	r2, lr, r6, lsl #16
87801a32:	611f      	str	r7, [r3, #16]
87801a34:	89a7      	ldrh	r7, [r4, #12]
87801a36:	631a      	str	r2, [r3, #48]	; 0x30
87801a38:	6718      	str	r0, [r3, #112]	; 0x70
87801a3a:	88c8      	ldrh	r0, [r1, #6]
87801a3c:	8a21      	ldrh	r1, [r4, #16]
87801a3e:	bf0c      	ite	eq
87801a40:	f040 5291 	orreq.w	r2, r0, #304087040	; 0x12200000
87801a44:	f040 5289 	orrne.w	r2, r0, #287309824	; 0x11200000
87801a48:	eb06 0c00 	add.w	ip, r6, r0
87801a4c:	f442 1280 	orr.w	r2, r2, #1048576	; 0x100000
87801a50:	89e6      	ldrh	r6, [r4, #14]
87801a52:	44c4      	add	ip, r8
87801a54:	671a      	str	r2, [r3, #112]	; 0x70
87801a56:	eb0e 0207 	add.w	r2, lr, r7
87801a5a:	440a      	add	r2, r1
87801a5c:	4428      	add	r0, r5
87801a5e:	4432      	add	r2, r6
87801a60:	f44f 4300 	mov.w	r3, #32768	; 0x8000
87801a64:	443e      	add	r6, r7
87801a66:	f2c0 231c 	movt	r3, #540	; 0x21c
87801a6a:	4465      	add	r5, ip
87801a6c:	ea40 4006 	orr.w	r0, r0, r6, lsl #16
87801a70:	ea42 4287 	orr.w	r2, r2, r7, lsl #18
87801a74:	f8c3 5080 	str.w	r5, [r3, #128]	; 0x80
87801a78:	f44e 2180 	orr.w	r1, lr, #262144	; 0x40000
87801a7c:	f04f 4509 	mov.w	r5, #2298478592	; 0x89000000
87801a80:	f8c3 2090 	str.w	r2, [r3, #144]	; 0x90
87801a84:	f8c3 00a0 	str.w	r0, [r3, #160]	; 0xa0
87801a88:	200a      	movs	r0, #10
87801a8a:	f8c3 10b0 	str.w	r1, [r3, #176]	; 0xb0
87801a8e:	641d      	str	r5, [r3, #64]	; 0x40
87801a90:	651d      	str	r5, [r3, #80]	; 0x50
87801a92:	681a      	ldr	r2, [r3, #0]
87801a94:	f042 0201 	orr.w	r2, r2, #1
87801a98:	601a      	str	r2, [r3, #0]
87801a9a:	f7ff f98b 	bl	87800db4 <delayms>
87801a9e:	8821      	ldrh	r1, [r4, #0]
87801aa0:	8862      	ldrh	r2, [r4, #2]
87801aa2:	6963      	ldr	r3, [r4, #20]
87801aa4:	fb02 f201 	mul.w	r2, r2, r1
87801aa8:	b13a      	cbz	r2, 87801aba <lcd_init+0x146>
87801aaa:	eb03 0282 	add.w	r2, r3, r2, lsl #2
87801aae:	f06f 417f 	mvn.w	r1, #4278190080	; 0xff000000
87801ab2:	f843 1b04 	str.w	r1, [r3], #4
87801ab6:	4293      	cmp	r3, r2
87801ab8:	d1fb      	bne.n	87801ab2 <lcd_init+0x13e>
87801aba:	e8bd 81f0 	ldmia.w	sp!, {r4, r5, r6, r7, r8, pc}
87801abe:	2203      	movs	r2, #3
87801ac0:	f44f 60a0 	mov.w	r0, #1280	; 0x500
87801ac4:	230a      	movs	r3, #10
87801ac6:	f44f 7e48 	mov.w	lr, #800	; 0x320
87801aca:	4611      	mov	r1, r2
87801acc:	2750      	movs	r7, #80	; 0x50
87801ace:	80e2      	strh	r2, [r4, #6]
87801ad0:	2646      	movs	r6, #70	; 0x46
87801ad2:	8060      	strh	r0, [r4, #2]
87801ad4:	2205      	movs	r2, #5
87801ad6:	2023      	movs	r0, #35	; 0x23
87801ad8:	f8a4 e000 	strh.w	lr, [r4]
87801adc:	8123      	strh	r3, [r4, #8]
87801ade:	8163      	strh	r3, [r4, #10]
87801ae0:	81a3      	strh	r3, [r4, #12]
87801ae2:	81e7      	strh	r7, [r4, #14]
87801ae4:	8226      	strh	r6, [r4, #16]
87801ae6:	f7ff ff09 	bl	878018fc <lcdclk_init>
87801aea:	e77e      	b.n	878019ea <lcd_init+0x76>
87801aec:	2308      	movs	r3, #8
87801aee:	f44f 7088 	mov.w	r0, #272	; 0x110
87801af2:	2601      	movs	r6, #1
87801af4:	461a      	mov	r2, r3
87801af6:	4619      	mov	r1, r3
87801af8:	f44f 7ef0 	mov.w	lr, #480	; 0x1e0
87801afc:	8123      	strh	r3, [r4, #8]
87801afe:	2728      	movs	r7, #40	; 0x28
87801b00:	8163      	strh	r3, [r4, #10]
87801b02:	2305      	movs	r3, #5
87801b04:	8020      	strh	r0, [r4, #0]
87801b06:	201b      	movs	r0, #27
87801b08:	f8a4 e002 	strh.w	lr, [r4, #2]
87801b0c:	80e6      	strh	r6, [r4, #6]
87801b0e:	81a6      	strh	r6, [r4, #12]
87801b10:	81e7      	strh	r7, [r4, #14]
87801b12:	8223      	strh	r3, [r4, #16]
87801b14:	f7ff fef2 	bl	878018fc <lcdclk_init>
87801b18:	e767      	b.n	878019ea <lcd_init+0x76>
87801b1a:	f44f 76f0 	mov.w	r6, #480	; 0x1e0
87801b1e:	f44f 7348 	mov.w	r3, #800	; 0x320
87801b22:	2203      	movs	r2, #3
87801b24:	2120      	movs	r1, #32
87801b26:	200d      	movs	r0, #13
87801b28:	2730      	movs	r7, #48	; 0x30
87801b2a:	8026      	strh	r6, [r4, #0]
87801b2c:	2658      	movs	r6, #88	; 0x58
87801b2e:	8063      	strh	r3, [r4, #2]
87801b30:	2328      	movs	r3, #40	; 0x28
87801b32:	80e2      	strh	r2, [r4, #6]
87801b34:	2208      	movs	r2, #8
87801b36:	8121      	strh	r1, [r4, #8]
87801b38:	2104      	movs	r1, #4
87801b3a:	8160      	strh	r0, [r4, #10]
87801b3c:	202a      	movs	r0, #42	; 0x2a
87801b3e:	81a7      	strh	r7, [r4, #12]
87801b40:	81e6      	strh	r6, [r4, #14]
87801b42:	8223      	strh	r3, [r4, #16]
87801b44:	f7ff feda 	bl	878018fc <lcdclk_init>
87801b48:	e74f      	b.n	878019ea <lcd_init+0x76>
87801b4a:	f44f 71f0 	mov.w	r1, #480	; 0x1e0
87801b4e:	f44f 7248 	mov.w	r2, #800	; 0x320
87801b52:	2301      	movs	r3, #1
87801b54:	f04f 0c17 	mov.w	ip, #23
87801b58:	f04f 0e16 	mov.w	lr, #22
87801b5c:	272e      	movs	r7, #46	; 0x2e
87801b5e:	8021      	strh	r1, [r4, #0]
87801b60:	26d2      	movs	r6, #210	; 0xd2
87801b62:	8062      	strh	r2, [r4, #2]
87801b64:	2103      	movs	r1, #3
87801b66:	2207      	movs	r2, #7
87801b68:	201e      	movs	r0, #30
87801b6a:	80e3      	strh	r3, [r4, #6]
87801b6c:	81a3      	strh	r3, [r4, #12]
87801b6e:	f8a4 c008 	strh.w	ip, [r4, #8]
87801b72:	f8a4 e00a 	strh.w	lr, [r4, #10]
87801b76:	81e7      	strh	r7, [r4, #14]
87801b78:	8226      	strh	r6, [r4, #16]
87801b7a:	f7ff febf 	bl	878018fc <lcdclk_init>
87801b7e:	e734      	b.n	878019ea <lcd_init+0x76>
87801b80:	2203      	movs	r2, #3
87801b82:	f44f 7616 	mov.w	r6, #600	; 0x258
87801b86:	f44f 6080 	mov.w	r0, #1024	; 0x400
87801b8a:	2314      	movs	r3, #20
87801b8c:	4611      	mov	r1, r2
87801b8e:	f04f 0e0c 	mov.w	lr, #12
87801b92:	80e2      	strh	r2, [r4, #6]
87801b94:	278c      	movs	r7, #140	; 0x8c
87801b96:	8026      	strh	r6, [r4, #0]
87801b98:	2205      	movs	r2, #5
87801b9a:	26a0      	movs	r6, #160	; 0xa0
87801b9c:	8060      	strh	r0, [r4, #2]
87801b9e:	2020      	movs	r0, #32
87801ba0:	8123      	strh	r3, [r4, #8]
87801ba2:	81a3      	strh	r3, [r4, #12]
87801ba4:	f8a4 e00a 	strh.w	lr, [r4, #10]
87801ba8:	81e7      	strh	r7, [r4, #14]
87801baa:	8226      	strh	r6, [r4, #16]
87801bac:	f7ff fea6 	bl	878018fc <lcdclk_init>
87801bb0:	e71b      	b.n	878019ea <lcd_init+0x76>
87801bb2:	2303      	movs	r3, #3
87801bb4:	f240 5056 	movw	r0, #1366	; 0x556
87801bb8:	f44f 7c40 	mov.w	ip, #768	; 0x300
87801bbc:	461a      	mov	r2, r3
87801bbe:	4619      	mov	r1, r3
87801bc0:	f04f 0e18 	mov.w	lr, #24
87801bc4:	80e3      	strh	r3, [r4, #6]
87801bc6:	278f      	movs	r7, #143	; 0x8f
87801bc8:	8163      	strh	r3, [r4, #10]
87801bca:	26d5      	movs	r6, #213	; 0xd5
87801bcc:	2346      	movs	r3, #70	; 0x46
87801bce:	8060      	strh	r0, [r4, #2]
87801bd0:	2020      	movs	r0, #32
87801bd2:	f8a4 c000 	strh.w	ip, [r4]
87801bd6:	f8a4 e008 	strh.w	lr, [r4, #8]
87801bda:	81a7      	strh	r7, [r4, #12]
87801bdc:	81e6      	strh	r6, [r4, #14]
87801bde:	8223      	strh	r3, [r4, #16]
87801be0:	f7ff fe8c 	bl	878018fc <lcdclk_init>
87801be4:	e701      	b.n	878019ea <lcd_init+0x76>
87801be6:	bf00      	nop

87801be8 <lcd_reset>:
87801be8:	f44f 4300 	mov.w	r3, #32768	; 0x8000
87801bec:	f04f 4200 	mov.w	r2, #2147483648	; 0x80000000
87801bf0:	f2c0 231c 	movt	r3, #540	; 0x21c
87801bf4:	601a      	str	r2, [r3, #0]
87801bf6:	4770      	bx	lr

87801bf8 <lcd_noreset>:
87801bf8:	f44f 4300 	mov.w	r3, #32768	; 0x8000
87801bfc:	2200      	movs	r2, #0
87801bfe:	f2c0 231c 	movt	r3, #540	; 0x21c
87801c02:	601a      	str	r2, [r3, #0]
87801c04:	4770      	bx	lr
87801c06:	bf00      	nop

87801c08 <lcd_enable>:
87801c08:	f44f 4300 	mov.w	r3, #32768	; 0x8000
87801c0c:	f2c0 231c 	movt	r3, #540	; 0x21c
87801c10:	681a      	ldr	r2, [r3, #0]
87801c12:	f042 0201 	orr.w	r2, r2, #1
87801c16:	601a      	str	r2, [r3, #0]
87801c18:	4770      	bx	lr
87801c1a:	bf00      	nop

87801c1c <lcd_drawpoint>:
87801c1c:	b430      	push	{r4, r5}
87801c1e:	f248 347c 	movw	r4, #33660	; 0x837c
87801c22:	f2c8 7481 	movt	r4, #34689	; 0x8781
87801c26:	8863      	ldrh	r3, [r4, #2]
87801c28:	7925      	ldrb	r5, [r4, #4]
87801c2a:	6964      	ldr	r4, [r4, #20]
87801c2c:	fb01 0103 	mla	r1, r1, r3, r0
87801c30:	fb01 f105 	mul.w	r1, r1, r5
87801c34:	510a      	str	r2, [r1, r4]
87801c36:	bc30      	pop	{r4, r5}
87801c38:	4770      	bx	lr
87801c3a:	bf00      	nop

87801c3c <lcd_readpoint>:
87801c3c:	f248 327c 	movw	r2, #33660	; 0x837c
87801c40:	b410      	push	{r4}
87801c42:	f2c8 7281 	movt	r2, #34689	; 0x8781
87801c46:	8853      	ldrh	r3, [r2, #2]
87801c48:	7914      	ldrb	r4, [r2, #4]
87801c4a:	6952      	ldr	r2, [r2, #20]
87801c4c:	fb01 0103 	mla	r1, r1, r3, r0
87801c50:	fb01 f104 	mul.w	r1, r1, r4
87801c54:	f85d 4b04 	ldr.w	r4, [sp], #4
87801c58:	5888      	ldr	r0, [r1, r2]
87801c5a:	4770      	bx	lr

87801c5c <lcd_clear>:
87801c5c:	f248 337c 	movw	r3, #33660	; 0x837c
87801c60:	f2c8 7381 	movt	r3, #34689	; 0x8781
87801c64:	8819      	ldrh	r1, [r3, #0]
87801c66:	885a      	ldrh	r2, [r3, #2]
87801c68:	695b      	ldr	r3, [r3, #20]
87801c6a:	fb02 f201 	mul.w	r2, r2, r1
87801c6e:	b12a      	cbz	r2, 87801c7c <lcd_clear+0x20>
87801c70:	eb03 0282 	add.w	r2, r3, r2, lsl #2
87801c74:	f843 0b04 	str.w	r0, [r3], #4
87801c78:	4293      	cmp	r3, r2
87801c7a:	d1fb      	bne.n	87801c74 <lcd_clear+0x18>
87801c7c:	4770      	bx	lr
87801c7e:	bf00      	nop

87801c80 <lcd_fill>:
87801c80:	e92d 43f0 	stmdb	sp!, {r4, r5, r6, r7, r8, r9, lr}
87801c84:	f248 367c 	movw	r6, #33660	; 0x837c
87801c88:	f2c8 7681 	movt	r6, #34689	; 0x8781
87801c8c:	4699      	mov	r9, r3
87801c8e:	f8b6 8002 	ldrh.w	r8, [r6, #2]
87801c92:	8834      	ldrh	r4, [r6, #0]
87801c94:	9b07      	ldr	r3, [sp, #28]
87801c96:	4590      	cmp	r8, r2
87801c98:	bf9c      	itt	ls
87801c9a:	f108 32ff 	addls.w	r2, r8, #4294967295	; 0xffffffff
87801c9e:	b292      	uxthls	r2, r2
87801ca0:	454c      	cmp	r4, r9
87801ca2:	bf9c      	itt	ls
87801ca4:	f104 34ff 	addls.w	r4, r4, #4294967295	; 0xffffffff
87801ca8:	fa1f f984 	uxthls.w	r9, r4
87801cac:	4589      	cmp	r9, r1
87801cae:	d316      	bcc.n	87801cde <lcd_fill+0x5e>
87801cb0:	4282      	cmp	r2, r0
87801cb2:	d30e      	bcc.n	87801cd2 <lcd_fill+0x52>
87801cb4:	fb01 fc08 	mul.w	ip, r1, r8
87801cb8:	4604      	mov	r4, r0
87801cba:	f896 e004 	ldrb.w	lr, [r6, #4]
87801cbe:	eb04 050c 	add.w	r5, r4, ip
87801cc2:	3401      	adds	r4, #1
87801cc4:	6977      	ldr	r7, [r6, #20]
87801cc6:	b2a4      	uxth	r4, r4
87801cc8:	fb05 f50e 	mul.w	r5, r5, lr
87801ccc:	42a2      	cmp	r2, r4
87801cce:	51eb      	str	r3, [r5, r7]
87801cd0:	d2f3      	bcs.n	87801cba <lcd_fill+0x3a>
87801cd2:	3101      	adds	r1, #1
87801cd4:	b289      	uxth	r1, r1
87801cd6:	4589      	cmp	r9, r1
87801cd8:	d2ea      	bcs.n	87801cb0 <lcd_fill+0x30>
87801cda:	e8bd 83f0 	ldmia.w	sp!, {r4, r5, r6, r7, r8, r9, pc}
87801cde:	e8bd 83f0 	ldmia.w	sp!, {r4, r5, r6, r7, r8, r9, pc}
87801ce2:	bf00      	nop

87801ce4 <uart_io_init>:
87801ce4:	b4f0      	push	{r4, r5, r6, r7}
87801ce6:	f240 6024 	movw	r0, #1572	; 0x624
87801cea:	2684      	movs	r6, #132	; 0x84
87801cec:	2488      	movs	r4, #136	; 0x88
87801cee:	f44f 7144 	mov.w	r1, #784	; 0x310
87801cf2:	f44f 7345 	mov.w	r3, #788	; 0x314
87801cf6:	2500      	movs	r5, #0
87801cf8:	f2c0 260e 	movt	r6, #526	; 0x20e
87801cfc:	f2c0 240e 	movt	r4, #526	; 0x20e
87801d00:	2703      	movs	r7, #3
87801d02:	f241 02b0 	movw	r2, #4272	; 0x10b0
87801d06:	f2c0 200e 	movt	r0, #526	; 0x20e
87801d0a:	f2c0 210e 	movt	r1, #526	; 0x20e
87801d0e:	f2c0 230e 	movt	r3, #526	; 0x20e
87801d12:	6035      	str	r5, [r6, #0]
87801d14:	6025      	str	r5, [r4, #0]
87801d16:	6007      	str	r7, [r0, #0]
87801d18:	600a      	str	r2, [r1, #0]
87801d1a:	bcf0      	pop	{r4, r5, r6, r7}
87801d1c:	601a      	str	r2, [r3, #0]
87801d1e:	4770      	bx	lr

87801d20 <uart_setbaudrate>:
87801d20:	e92d 4ff0 	stmdb	sp!, {r4, r5, r6, r7, r8, r9, sl, fp, lr}
87801d24:	010d      	lsls	r5, r1, #4
87801d26:	b085      	sub	sp, #20
87801d28:	460f      	mov	r7, r1
87801d2a:	4682      	mov	sl, r0
87801d2c:	4691      	mov	r9, r2
87801d2e:	f000 80f2 	beq.w	87801f16 <uart_setbaudrate+0x1f6>
87801d32:	462c      	mov	r4, r5
87801d34:	4610      	mov	r0, r2
87801d36:	e000      	b.n	87801d3a <uart_setbaudrate+0x1a>
87801d38:	460c      	mov	r4, r1
87801d3a:	4621      	mov	r1, r4
87801d3c:	f004 f9f2 	bl	87806124 <__aeabi_uidivmod>
87801d40:	4620      	mov	r0, r4
87801d42:	2900      	cmp	r1, #0
87801d44:	d1f8      	bne.n	87801d38 <uart_setbaudrate+0x18>
87801d46:	4621      	mov	r1, r4
87801d48:	4648      	mov	r0, r9
87801d4a:	f004 f8bd 	bl	87805ec8 <__aeabi_uidiv>
87801d4e:	4621      	mov	r1, r4
87801d50:	4606      	mov	r6, r0
87801d52:	4628      	mov	r0, r5
87801d54:	f004 f8b8 	bl	87805ec8 <__aeabi_uidiv>
87801d58:	f64f 73f9 	movw	r3, #65529	; 0xfff9
87801d5c:	4605      	mov	r5, r0
87801d5e:	f2c0 0306 	movt	r3, #6
87801d62:	429e      	cmp	r6, r3
87801d64:	bf98      	it	ls
87801d66:	f5b0 3f80 	cmpls.w	r0, #65536	; 0x10000
87801d6a:	bf2c      	ite	cs
87801d6c:	2301      	movcs	r3, #1
87801d6e:	2300      	movcc	r3, #0
87801d70:	d278      	bcs.n	87801e64 <uart_setbaudrate+0x144>
87801d72:	f248 0101 	movw	r1, #32769	; 0x8001
87801d76:	1e72      	subs	r2, r6, #1
87801d78:	f2c8 0100 	movt	r1, #32768	; 0x8000
87801d7c:	9301      	str	r3, [sp, #4]
87801d7e:	fba2 2301 	umull	r2, r3, r2, r1
87801d82:	ea4f 1b06 	mov.w	fp, r6, lsl #4
87801d86:	4680      	mov	r8, r0
87801d88:	0bda      	lsrs	r2, r3, #15
87801d8a:	1e53      	subs	r3, r2, #1
87801d8c:	3201      	adds	r2, #1
87801d8e:	9203      	str	r2, [sp, #12]
87801d90:	2b05      	cmp	r3, #5
87801d92:	4648      	mov	r0, r9
87801d94:	bf96      	itet	ls
87801d96:	f64a 32e0 	movwls	r2, #44000	; 0xabe0
87801d9a:	2305      	movhi	r3, #5
87801d9c:	f2c8 7280 	movtls	r2, #34688	; 0x8780
87801da0:	f04f 0100 	mov.w	r1, #0
87801da4:	bf98      	it	ls
87801da6:	f852 3023 	ldrls.w	r3, [r2, r3, lsl #2]
87801daa:	9302      	str	r3, [sp, #8]
87801dac:	f1bb 0f00 	cmp.w	fp, #0
87801db0:	f000 80af 	beq.w	87801f12 <uart_setbaudrate+0x1f2>
87801db4:	465c      	mov	r4, fp
87801db6:	e000      	b.n	87801dba <uart_setbaudrate+0x9a>
87801db8:	4614      	mov	r4, r2
87801dba:	4622      	mov	r2, r4
87801dbc:	2300      	movs	r3, #0
87801dbe:	f004 f9bf 	bl	87806140 <__aeabi_uldivmod>
87801dc2:	4620      	mov	r0, r4
87801dc4:	2100      	movs	r1, #0
87801dc6:	2a00      	cmp	r2, #0
87801dc8:	d1f6      	bne.n	87801db8 <uart_setbaudrate+0x98>
87801dca:	4648      	mov	r0, r9
87801dcc:	4621      	mov	r1, r4
87801dce:	f004 f87b 	bl	87805ec8 <__aeabi_uidiv>
87801dd2:	4603      	mov	r3, r0
87801dd4:	9a01      	ldr	r2, [sp, #4]
87801dd6:	fba3 8908 	umull	r8, r9, r3, r8
87801dda:	4621      	mov	r1, r4
87801ddc:	4658      	mov	r0, fp
87801dde:	fb03 9902 	mla	r9, r3, r2, r9
87801de2:	f004 f871 	bl	87805ec8 <__aeabi_uidiv>
87801de6:	2300      	movs	r3, #0
87801de8:	4602      	mov	r2, r0
87801dea:	4649      	mov	r1, r9
87801dec:	4640      	mov	r0, r8
87801dee:	f004 f9a7 	bl	87806140 <__aeabi_uldivmod>
87801df2:	2300      	movs	r3, #0
87801df4:	463a      	mov	r2, r7
87801df6:	4299      	cmp	r1, r3
87801df8:	bf08      	it	eq
87801dfa:	42b8      	cmpeq	r0, r7
87801dfc:	d32e      	bcc.n	87801e5c <uart_setbaudrate+0x13c>
87801dfe:	1a80      	subs	r0, r0, r2
87801e00:	eb61 0103 	sbc.w	r1, r1, r3
87801e04:	f248 521f 	movw	r2, #34079	; 0x851f
87801e08:	f2c5 12eb 	movt	r2, #20971	; 0x51eb
87801e0c:	fba7 2302 	umull	r2, r3, r7, r2
87801e10:	095a      	lsrs	r2, r3, #5
87801e12:	2300      	movs	r3, #0
87801e14:	4299      	cmp	r1, r3
87801e16:	eb02 0242 	add.w	r2, r2, r2, lsl #1
87801e1a:	bf08      	it	eq
87801e1c:	4290      	cmpeq	r0, r2
87801e1e:	d21a      	bcs.n	87801e56 <uart_setbaudrate+0x136>
87801e20:	9b02      	ldr	r3, [sp, #8]
87801e22:	3d01      	subs	r5, #1
87801e24:	f8da 1090 	ldr.w	r1, [sl, #144]	; 0x90
87801e28:	b2ad      	uxth	r5, r5
87801e2a:	4630      	mov	r0, r6
87801e2c:	01db      	lsls	r3, r3, #7
87801e2e:	f403 7260 	and.w	r2, r3, #896	; 0x380
87801e32:	f421 7360 	bic.w	r3, r1, #896	; 0x380
87801e36:	f8ca 3090 	str.w	r3, [sl, #144]	; 0x90
87801e3a:	f8da 3090 	ldr.w	r3, [sl, #144]	; 0x90
87801e3e:	9903      	ldr	r1, [sp, #12]
87801e40:	4313      	orrs	r3, r2
87801e42:	f8ca 3090 	str.w	r3, [sl, #144]	; 0x90
87801e46:	f8ca 50a4 	str.w	r5, [sl, #164]	; 0xa4
87801e4a:	f004 f83d 	bl	87805ec8 <__aeabi_uidiv>
87801e4e:	3801      	subs	r0, #1
87801e50:	b280      	uxth	r0, r0
87801e52:	f8ca 00a8 	str.w	r0, [sl, #168]	; 0xa8
87801e56:	b005      	add	sp, #20
87801e58:	e8bd 8ff0 	ldmia.w	sp!, {r4, r5, r6, r7, r8, r9, sl, fp, pc}
87801e5c:	1a10      	subs	r0, r2, r0
87801e5e:	eb63 0101 	sbc.w	r1, r3, r1
87801e62:	e7cf      	b.n	87801e04 <uart_setbaudrate+0xe4>
87801e64:	f646 52b9 	movw	r2, #28089	; 0x6db9
87801e68:	1e71      	subs	r1, r6, #1
87801e6a:	f2c2 4293 	movt	r2, #9363	; 0x2493
87801e6e:	f248 0401 	movw	r4, #32769	; 0x8001
87801e72:	fba1 2302 	umull	r2, r3, r1, r2
87801e76:	f100 3bff 	add.w	fp, r0, #4294967295	; 0xffffffff
87801e7a:	f2c8 0400 	movt	r4, #32768	; 0x8000
87801e7e:	4630      	mov	r0, r6
87801e80:	fbab bc04 	umull	fp, ip, fp, r4
87801e84:	1ac9      	subs	r1, r1, r3
87801e86:	eb03 0351 	add.w	r3, r3, r1, lsr #1
87801e8a:	ea4f 38dc 	mov.w	r8, ip, lsr #15
87801e8e:	0c9b      	lsrs	r3, r3, #18
87801e90:	f108 0801 	add.w	r8, r8, #1
87801e94:	3301      	adds	r3, #1
87801e96:	4598      	cmp	r8, r3
87801e98:	bf38      	it	cc
87801e9a:	4698      	movcc	r8, r3
87801e9c:	4641      	mov	r1, r8
87801e9e:	f004 f813 	bl	87805ec8 <__aeabi_uidiv>
87801ea2:	4606      	mov	r6, r0
87801ea4:	4641      	mov	r1, r8
87801ea6:	4628      	mov	r0, r5
87801ea8:	f004 f80e 	bl	87805ec8 <__aeabi_uidiv>
87801eac:	4605      	mov	r5, r0
87801eae:	b976      	cbnz	r6, 87801ece <uart_setbaudrate+0x1ae>
87801eb0:	bb40      	cbnz	r0, 87801f04 <uart_setbaudrate+0x1e4>
87801eb2:	f04f 0801 	mov.w	r8, #1
87801eb6:	2305      	movs	r3, #5
87801eb8:	4601      	mov	r1, r0
87801eba:	9001      	str	r0, [sp, #4]
87801ebc:	4646      	mov	r6, r8
87801ebe:	f8cd 800c 	str.w	r8, [sp, #12]
87801ec2:	4645      	mov	r5, r8
87801ec4:	4648      	mov	r0, r9
87801ec6:	f04f 0b10 	mov.w	fp, #16
87801eca:	9302      	str	r3, [sp, #8]
87801ecc:	e772      	b.n	87801db4 <uart_setbaudrate+0x94>
87801ece:	1e72      	subs	r2, r6, #1
87801ed0:	b158      	cbz	r0, 87801eea <uart_setbaudrate+0x1ca>
87801ed2:	fba2 2304 	umull	r2, r3, r2, r4
87801ed6:	ea4f 1b06 	mov.w	fp, r6, lsl #4
87801eda:	0bda      	lsrs	r2, r3, #15
87801edc:	1e53      	subs	r3, r2, #1
87801ede:	3201      	adds	r2, #1
87801ee0:	9203      	str	r2, [sp, #12]
87801ee2:	2200      	movs	r2, #0
87801ee4:	46a8      	mov	r8, r5
87801ee6:	9201      	str	r2, [sp, #4]
87801ee8:	e752      	b.n	87801d90 <uart_setbaudrate+0x70>
87801eea:	fba2 2304 	umull	r2, r3, r2, r4
87801eee:	f04f 0801 	mov.w	r8, #1
87801ef2:	9001      	str	r0, [sp, #4]
87801ef4:	ea4f 1b06 	mov.w	fp, r6, lsl #4
87801ef8:	4645      	mov	r5, r8
87801efa:	0bda      	lsrs	r2, r3, #15
87801efc:	1e53      	subs	r3, r2, #1
87801efe:	4442      	add	r2, r8
87801f00:	9203      	str	r2, [sp, #12]
87801f02:	e745      	b.n	87801d90 <uart_setbaudrate+0x70>
87801f04:	2201      	movs	r2, #1
87801f06:	f04f 0b10 	mov.w	fp, #16
87801f0a:	4616      	mov	r6, r2
87801f0c:	f04f 33ff 	mov.w	r3, #4294967295	; 0xffffffff
87801f10:	e7e6      	b.n	87801ee0 <uart_setbaudrate+0x1c0>
87801f12:	2401      	movs	r4, #1
87801f14:	e759      	b.n	87801dca <uart_setbaudrate+0xaa>
87801f16:	2401      	movs	r4, #1
87801f18:	e715      	b.n	87801d46 <uart_setbaudrate+0x26>
87801f1a:	bf00      	nop

87801f1c <uart_init>:
87801f1c:	b5f8      	push	{r3, r4, r5, r6, r7, lr}
87801f1e:	2084      	movs	r0, #132	; 0x84
87801f20:	2300      	movs	r3, #0
87801f22:	f2c0 200e 	movt	r0, #526	; 0x20e
87801f26:	461e      	mov	r6, r3
87801f28:	2288      	movs	r2, #136	; 0x88
87801f2a:	f240 6524 	movw	r5, #1572	; 0x624
87801f2e:	f44f 7444 	mov.w	r4, #784	; 0x310
87801f32:	f44f 7145 	mov.w	r1, #788	; 0x314
87801f36:	6006      	str	r6, [r0, #0]
87801f38:	f2c0 2302 	movt	r3, #514	; 0x202
87801f3c:	f2c0 220e 	movt	r2, #526	; 0x20e
87801f40:	f2c0 210e 	movt	r1, #526	; 0x20e
87801f44:	f241 00b0 	movw	r0, #4272	; 0x10b0
87801f48:	f2c0 250e 	movt	r5, #526	; 0x20e
87801f4c:	f2c0 240e 	movt	r4, #526	; 0x20e
87801f50:	2703      	movs	r7, #3
87801f52:	6016      	str	r6, [r2, #0]
87801f54:	602f      	str	r7, [r5, #0]
87801f56:	461a      	mov	r2, r3
87801f58:	6020      	str	r0, [r4, #0]
87801f5a:	6008      	str	r0, [r1, #0]
87801f5c:	f8d3 1080 	ldr.w	r1, [r3, #128]	; 0x80
87801f60:	f021 0101 	bic.w	r1, r1, #1
87801f64:	f8c3 1080 	str.w	r1, [r3, #128]	; 0x80
87801f68:	f8d3 1084 	ldr.w	r1, [r3, #132]	; 0x84
87801f6c:	f021 0101 	bic.w	r1, r1, #1
87801f70:	f8c3 1084 	str.w	r1, [r3, #132]	; 0x84
87801f74:	f8d2 3084 	ldr.w	r3, [r2, #132]	; 0x84
87801f78:	2400      	movs	r4, #0
87801f7a:	f2c0 2402 	movt	r4, #514	; 0x202
87801f7e:	07db      	lsls	r3, r3, #31
87801f80:	d5f8      	bpl.n	87801f74 <uart_init+0x58>
87801f82:	2300      	movs	r3, #0
87801f84:	f44f 7720 	mov.w	r7, #640	; 0x280
87801f88:	f8c4 3080 	str.w	r3, [r4, #128]	; 0x80
87801f8c:	2647      	movs	r6, #71	; 0x47
87801f8e:	f8d4 3080 	ldr.w	r3, [r4, #128]	; 0x80
87801f92:	f640 4534 	movw	r5, #3124	; 0xc34
87801f96:	f44f 4234 	mov.w	r2, #46080	; 0xb400
87801f9a:	f44f 31e1 	mov.w	r1, #115200	; 0x1c200
87801f9e:	f2c0 42c4 	movt	r2, #1220	; 0x4c4
87801fa2:	4620      	mov	r0, r4
87801fa4:	f423 4380 	bic.w	r3, r3, #16384	; 0x4000
87801fa8:	f8c4 3080 	str.w	r3, [r4, #128]	; 0x80
87801fac:	f8d4 3084 	ldr.w	r3, [r4, #132]	; 0x84
87801fb0:	f443 4380 	orr.w	r3, r3, #16384	; 0x4000
87801fb4:	f043 0326 	orr.w	r3, r3, #38	; 0x26
87801fb8:	f8c4 3084 	str.w	r3, [r4, #132]	; 0x84
87801fbc:	f8d4 3088 	ldr.w	r3, [r4, #136]	; 0x88
87801fc0:	f043 0304 	orr.w	r3, r3, #4
87801fc4:	f8c4 3088 	str.w	r3, [r4, #136]	; 0x88
87801fc8:	f8c4 7090 	str.w	r7, [r4, #144]	; 0x90
87801fcc:	f8c4 60a4 	str.w	r6, [r4, #164]	; 0xa4
87801fd0:	f8c4 50a8 	str.w	r5, [r4, #168]	; 0xa8
87801fd4:	f7ff fea4 	bl	87801d20 <uart_setbaudrate>
87801fd8:	f8d4 3080 	ldr.w	r3, [r4, #128]	; 0x80
87801fdc:	f043 0301 	orr.w	r3, r3, #1
87801fe0:	f8c4 3080 	str.w	r3, [r4, #128]	; 0x80
87801fe4:	bdf8      	pop	{r3, r4, r5, r6, r7, pc}
87801fe6:	bf00      	nop

87801fe8 <uart_disable>:
87801fe8:	f8d0 3080 	ldr.w	r3, [r0, #128]	; 0x80
87801fec:	f023 0301 	bic.w	r3, r3, #1
87801ff0:	f8c0 3080 	str.w	r3, [r0, #128]	; 0x80
87801ff4:	4770      	bx	lr
87801ff6:	bf00      	nop

87801ff8 <uart_enable>:
87801ff8:	f8d0 3080 	ldr.w	r3, [r0, #128]	; 0x80
87801ffc:	f043 0301 	orr.w	r3, r3, #1
87802000:	f8c0 3080 	str.w	r3, [r0, #128]	; 0x80
87802004:	4770      	bx	lr
87802006:	bf00      	nop

87802008 <uart_softreset>:
87802008:	f8d0 3084 	ldr.w	r3, [r0, #132]	; 0x84
8780200c:	f023 0301 	bic.w	r3, r3, #1
87802010:	f8c0 3084 	str.w	r3, [r0, #132]	; 0x84
87802014:	f8d0 3084 	ldr.w	r3, [r0, #132]	; 0x84
87802018:	07db      	lsls	r3, r3, #31
8780201a:	d5fb      	bpl.n	87802014 <uart_softreset+0xc>
8780201c:	4770      	bx	lr
8780201e:	bf00      	nop

87802020 <putc>:
87802020:	2100      	movs	r1, #0
87802022:	f2c0 2102 	movt	r1, #514	; 0x202
87802026:	f8d1 2098 	ldr.w	r2, [r1, #152]	; 0x98
8780202a:	2300      	movs	r3, #0
8780202c:	f2c0 2302 	movt	r3, #514	; 0x202
87802030:	0712      	lsls	r2, r2, #28
87802032:	d5f8      	bpl.n	87802026 <putc+0x6>
87802034:	6418      	str	r0, [r3, #64]	; 0x40
87802036:	4770      	bx	lr

87802038 <puts>:
87802038:	7801      	ldrb	r1, [r0, #0]
8780203a:	b179      	cbz	r1, 8780205c <puts+0x24>
8780203c:	2200      	movs	r2, #0
8780203e:	b410      	push	{r4}
87802040:	f2c0 2202 	movt	r2, #514	; 0x202
87802044:	4614      	mov	r4, r2
87802046:	f8d2 3098 	ldr.w	r3, [r2, #152]	; 0x98
8780204a:	071b      	lsls	r3, r3, #28
8780204c:	d5fb      	bpl.n	87802046 <puts+0xe>
8780204e:	6421      	str	r1, [r4, #64]	; 0x40
87802050:	f810 1f01 	ldrb.w	r1, [r0, #1]!
87802054:	2900      	cmp	r1, #0
87802056:	d1f6      	bne.n	87802046 <puts+0xe>
87802058:	f85d 4b04 	ldr.w	r4, [sp], #4
8780205c:	4770      	bx	lr
8780205e:	bf00      	nop

87802060 <getc>:
87802060:	b538      	push	{r3, r4, r5, lr}
87802062:	2500      	movs	r5, #0
87802064:	f2c0 2502 	movt	r5, #514	; 0x202
87802068:	f8d5 4098 	ldr.w	r4, [r5, #152]	; 0x98
8780206c:	f014 0401 	ands.w	r4, r4, #1
87802070:	d10c      	bne.n	8780208c <getc+0x2c>
87802072:	200a      	movs	r0, #10
87802074:	3401      	adds	r4, #1
87802076:	f7fe fe9d 	bl	87800db4 <delayms>
8780207a:	b2e4      	uxtb	r4, r4
8780207c:	f8d5 2098 	ldr.w	r2, [r5, #152]	; 0x98
87802080:	f1b4 030a 	subs.w	r3, r4, #10
87802084:	bf18      	it	ne
87802086:	2301      	movne	r3, #1
87802088:	4393      	bics	r3, r2
8780208a:	d1f2      	bne.n	87802072 <getc+0x12>
8780208c:	2300      	movs	r3, #0
8780208e:	f2c0 2302 	movt	r3, #514	; 0x202
87802092:	6818      	ldr	r0, [r3, #0]
87802094:	b2c0      	uxtb	r0, r0
87802096:	bd38      	pop	{r3, r4, r5, pc}

87802098 <raise>:
87802098:	4770      	bx	lr
8780209a:	bf00      	nop

8780209c <uart_send_string>:
8780209c:	7808      	ldrb	r0, [r1, #0]
8780209e:	b178      	cbz	r0, 878020c0 <uart_send_string+0x24>
878020a0:	2200      	movs	r2, #0
878020a2:	b410      	push	{r4}
878020a4:	f2c0 2202 	movt	r2, #514	; 0x202
878020a8:	4614      	mov	r4, r2
878020aa:	f8d2 3098 	ldr.w	r3, [r2, #152]	; 0x98
878020ae:	071b      	lsls	r3, r3, #28
878020b0:	d5fb      	bpl.n	878020aa <uart_send_string+0xe>
878020b2:	6420      	str	r0, [r4, #64]	; 0x40
878020b4:	f811 0f01 	ldrb.w	r0, [r1, #1]!
878020b8:	2800      	cmp	r0, #0
878020ba:	d1f6      	bne.n	878020aa <uart_send_string+0xe>
878020bc:	f85d 4b04 	ldr.w	r4, [sp], #4
878020c0:	4770      	bx	lr
878020c2:	bf00      	nop

878020c4 <xEventGroupCreate>:
878020c4:	b510      	push	{r4, lr}
878020c6:	201c      	movs	r0, #28
878020c8:	f002 f994 	bl	878043f4 <pvPortMalloc>
878020cc:	4604      	mov	r4, r0
878020ce:	b120      	cbz	r0, 878020da <xEventGroupCreate+0x16>
878020d0:	2300      	movs	r3, #0
878020d2:	f840 3b04 	str.w	r3, [r0], #4
878020d6:	f000 f94d 	bl	87802374 <vListInitialise>
878020da:	4620      	mov	r0, r4
878020dc:	bd10      	pop	{r4, pc}
878020de:	bf00      	nop

878020e0 <xEventGroupWaitBits>:
878020e0:	e92d 47f0 	stmdb	sp!, {r4, r5, r6, r7, r8, r9, sl, lr}
878020e4:	4606      	mov	r6, r0
878020e6:	f8dd a020 	ldr.w	sl, [sp, #32]
878020ea:	b348      	cbz	r0, 87802140 <xEventGroupWaitBits+0x60>
878020ec:	f011 4f7f 	tst.w	r1, #4278190080	; 0xff000000
878020f0:	460c      	mov	r4, r1
878020f2:	d122      	bne.n	8780213a <xEventGroupWaitBits+0x5a>
878020f4:	b911      	cbnz	r1, 878020fc <xEventGroupWaitBits+0x1c>
878020f6:	f002 f88b 	bl	87804210 <ulPortSetInterruptMask>
878020fa:	e7fe      	b.n	878020fa <xEventGroupWaitBits+0x1a>
878020fc:	faba f78a 	clz	r7, sl
87802100:	4690      	mov	r8, r2
87802102:	097f      	lsrs	r7, r7, #5
87802104:	4699      	mov	r9, r3
87802106:	f001 fd35 	bl	87803b74 <xTaskGetSchedulerState>
8780210a:	2800      	cmp	r0, #0
8780210c:	bf0c      	ite	eq
8780210e:	4638      	moveq	r0, r7
87802110:	f047 0001 	orrne.w	r0, r7, #1
87802114:	b910      	cbnz	r0, 8780211c <xEventGroupWaitBits+0x3c>
87802116:	f002 f87b 	bl	87804210 <ulPortSetInterruptMask>
8780211a:	e7fe      	b.n	8780211a <xEventGroupWaitBits+0x3a>
8780211c:	f001 f8ee 	bl	878032fc <vTaskSuspendAll>
87802120:	6835      	ldr	r5, [r6, #0]
87802122:	f1b9 0f00 	cmp.w	r9, #0
87802126:	d10e      	bne.n	87802146 <xEventGroupWaitBits+0x66>
87802128:	422c      	tst	r4, r5
8780212a:	d00f      	beq.n	8780214c <xEventGroupWaitBits+0x6c>
8780212c:	f1b8 0f00 	cmp.w	r8, #0
87802130:	d00d      	beq.n	8780214e <xEventGroupWaitBits+0x6e>
87802132:	ea25 0404 	bic.w	r4, r5, r4
87802136:	6034      	str	r4, [r6, #0]
87802138:	e009      	b.n	8780214e <xEventGroupWaitBits+0x6e>
8780213a:	f002 f869 	bl	87804210 <ulPortSetInterruptMask>
8780213e:	e7fe      	b.n	8780213e <xEventGroupWaitBits+0x5e>
87802140:	f002 f866 	bl	87804210 <ulPortSetInterruptMask>
87802144:	e7fe      	b.n	87802144 <xEventGroupWaitBits+0x64>
87802146:	ea34 0305 	bics.w	r3, r4, r5
8780214a:	d0ef      	beq.n	8780212c <xEventGroupWaitBits+0x4c>
8780214c:	b127      	cbz	r7, 87802158 <xEventGroupWaitBits+0x78>
8780214e:	f001 f975 	bl	8780343c <xTaskResumeAll>
87802152:	4628      	mov	r0, r5
87802154:	e8bd 87f0 	ldmia.w	sp!, {r4, r5, r6, r7, r8, r9, sl, pc}
87802158:	f1b8 0f00 	cmp.w	r8, #0
8780215c:	bf0c      	ite	eq
8780215e:	2100      	moveq	r1, #0
87802160:	f04f 7180 	movne.w	r1, #16777216	; 0x1000000
87802164:	f1b9 0f00 	cmp.w	r9, #0
87802168:	d001      	beq.n	8780216e <xEventGroupWaitBits+0x8e>
8780216a:	f041 6180 	orr.w	r1, r1, #67108864	; 0x4000000
8780216e:	4652      	mov	r2, sl
87802170:	4321      	orrs	r1, r4
87802172:	1d30      	adds	r0, r6, #4
87802174:	f001 faf8 	bl	87803768 <vTaskPlaceOnUnorderedEventList>
87802178:	f001 f960 	bl	8780343c <xTaskResumeAll>
8780217c:	b900      	cbnz	r0, 87802180 <xEventGroupWaitBits+0xa0>
8780217e:	df00      	svc	0
87802180:	f001 fda2 	bl	87803cc8 <uxTaskResetEventItemValue>
87802184:	0183      	lsls	r3, r0, #6
87802186:	4605      	mov	r5, r0
87802188:	d502      	bpl.n	87802190 <xEventGroupWaitBits+0xb0>
8780218a:	f025 457f 	bic.w	r5, r5, #4278190080	; 0xff000000
8780218e:	e7e0      	b.n	87802152 <xEventGroupWaitBits+0x72>
87802190:	f002 f8d2 	bl	87804338 <vPortEnterCritical>
87802194:	6835      	ldr	r5, [r6, #0]
87802196:	f1b9 0f00 	cmp.w	r9, #0
8780219a:	d10a      	bne.n	878021b2 <xEventGroupWaitBits+0xd2>
8780219c:	422c      	tst	r4, r5
8780219e:	d005      	beq.n	878021ac <xEventGroupWaitBits+0xcc>
878021a0:	f1b8 0f00 	cmp.w	r8, #0
878021a4:	d002      	beq.n	878021ac <xEventGroupWaitBits+0xcc>
878021a6:	ea25 0404 	bic.w	r4, r5, r4
878021aa:	6034      	str	r4, [r6, #0]
878021ac:	f001 fff0 	bl	87804190 <vPortExitCritical>
878021b0:	e7eb      	b.n	8780218a <xEventGroupWaitBits+0xaa>
878021b2:	ea34 0305 	bics.w	r3, r4, r5
878021b6:	d1f9      	bne.n	878021ac <xEventGroupWaitBits+0xcc>
878021b8:	e7f2      	b.n	878021a0 <xEventGroupWaitBits+0xc0>
878021ba:	bf00      	nop

878021bc <xEventGroupClearBits>:
878021bc:	b570      	push	{r4, r5, r6, lr}
878021be:	4605      	mov	r5, r0
878021c0:	b180      	cbz	r0, 878021e4 <xEventGroupClearBits+0x28>
878021c2:	f011 4f7f 	tst.w	r1, #4278190080	; 0xff000000
878021c6:	460c      	mov	r4, r1
878021c8:	d002      	beq.n	878021d0 <xEventGroupClearBits+0x14>
878021ca:	f002 f821 	bl	87804210 <ulPortSetInterruptMask>
878021ce:	e7fe      	b.n	878021ce <xEventGroupClearBits+0x12>
878021d0:	f002 f8b2 	bl	87804338 <vPortEnterCritical>
878021d4:	682e      	ldr	r6, [r5, #0]
878021d6:	ea26 0404 	bic.w	r4, r6, r4
878021da:	602c      	str	r4, [r5, #0]
878021dc:	f001 ffd8 	bl	87804190 <vPortExitCritical>
878021e0:	4630      	mov	r0, r6
878021e2:	bd70      	pop	{r4, r5, r6, pc}
878021e4:	f002 f814 	bl	87804210 <ulPortSetInterruptMask>
878021e8:	e7fe      	b.n	878021e8 <xEventGroupClearBits+0x2c>
878021ea:	bf00      	nop

878021ec <xEventGroupGetBitsFromISR>:
878021ec:	b510      	push	{r4, lr}
878021ee:	4604      	mov	r4, r0
878021f0:	f002 f80e 	bl	87804210 <ulPortSetInterruptMask>
878021f4:	6824      	ldr	r4, [r4, #0]
878021f6:	f001 fff5 	bl	878041e4 <vPortClearInterruptMask>
878021fa:	4620      	mov	r0, r4
878021fc:	bd10      	pop	{r4, pc}
878021fe:	bf00      	nop

87802200 <xEventGroupSetBits>:
87802200:	b5f8      	push	{r3, r4, r5, r6, r7, lr}
87802202:	4604      	mov	r4, r0
87802204:	b398      	cbz	r0, 8780226e <xEventGroupSetBits+0x6e>
87802206:	f011 457f 	ands.w	r5, r1, #4278190080	; 0xff000000
8780220a:	460e      	mov	r6, r1
8780220c:	d002      	beq.n	87802214 <xEventGroupSetBits+0x14>
8780220e:	f001 ffff 	bl	87804210 <ulPortSetInterruptMask>
87802212:	e7fe      	b.n	87802212 <xEventGroupSetBits+0x12>
87802214:	f001 f872 	bl	878032fc <vTaskSuspendAll>
87802218:	6920      	ldr	r0, [r4, #16]
8780221a:	f104 070c 	add.w	r7, r4, #12
8780221e:	6823      	ldr	r3, [r4, #0]
87802220:	4287      	cmp	r7, r0
87802222:	ea46 0103 	orr.w	r1, r6, r3
87802226:	6021      	str	r1, [r4, #0]
87802228:	d10d      	bne.n	87802246 <xEventGroupSetBits+0x46>
8780222a:	e023      	b.n	87802274 <xEventGroupSetBits+0x74>
8780222c:	4211      	tst	r1, r2
8780222e:	d007      	beq.n	87802240 <xEventGroupSetBits+0x40>
87802230:	01db      	lsls	r3, r3, #7
87802232:	f041 7100 	orr.w	r1, r1, #33554432	; 0x2000000
87802236:	bf48      	it	mi
87802238:	4315      	orrmi	r5, r2
8780223a:	f001 faf3 	bl	87803824 <xTaskRemoveFromUnorderedEventList>
8780223e:	6821      	ldr	r1, [r4, #0]
87802240:	42b7      	cmp	r7, r6
87802242:	4630      	mov	r0, r6
87802244:	d00c      	beq.n	87802260 <xEventGroupSetBits+0x60>
87802246:	e890 0048 	ldmia.w	r0, {r3, r6}
8780224a:	f013 6f80 	tst.w	r3, #67108864	; 0x4000000
8780224e:	f023 427f 	bic.w	r2, r3, #4278190080	; 0xff000000
87802252:	d0eb      	beq.n	8780222c <xEventGroupSetBits+0x2c>
87802254:	ea32 0e01 	bics.w	lr, r2, r1
87802258:	d0ea      	beq.n	87802230 <xEventGroupSetBits+0x30>
8780225a:	42b7      	cmp	r7, r6
8780225c:	4630      	mov	r0, r6
8780225e:	d1f2      	bne.n	87802246 <xEventGroupSetBits+0x46>
87802260:	43ed      	mvns	r5, r5
87802262:	4029      	ands	r1, r5
87802264:	6021      	str	r1, [r4, #0]
87802266:	f001 f8e9 	bl	8780343c <xTaskResumeAll>
8780226a:	6820      	ldr	r0, [r4, #0]
8780226c:	bdf8      	pop	{r3, r4, r5, r6, r7, pc}
8780226e:	f001 ffcf 	bl	87804210 <ulPortSetInterruptMask>
87802272:	e7fe      	b.n	87802272 <xEventGroupSetBits+0x72>
87802274:	f04f 35ff 	mov.w	r5, #4294967295	; 0xffffffff
87802278:	e7f3      	b.n	87802262 <xEventGroupSetBits+0x62>
8780227a:	bf00      	nop

8780227c <xEventGroupSync>:
8780227c:	f012 4f7f 	tst.w	r2, #4278190080	; 0xff000000
87802280:	e92d 41f0 	stmdb	sp!, {r4, r5, r6, r7, r8, lr}
87802284:	4615      	mov	r5, r2
87802286:	d124      	bne.n	878022d2 <xEventGroupSync+0x56>
87802288:	b912      	cbnz	r2, 87802290 <xEventGroupSync+0x14>
8780228a:	f001 ffc1 	bl	87804210 <ulPortSetInterruptMask>
8780228e:	e7fe      	b.n	8780228e <xEventGroupSync+0x12>
87802290:	461f      	mov	r7, r3
87802292:	4688      	mov	r8, r1
87802294:	4606      	mov	r6, r0
87802296:	f001 fc6d 	bl	87803b74 <xTaskGetSchedulerState>
8780229a:	fab7 f187 	clz	r1, r7
8780229e:	0949      	lsrs	r1, r1, #5
878022a0:	2800      	cmp	r0, #0
878022a2:	bf0c      	ite	eq
878022a4:	4608      	moveq	r0, r1
878022a6:	f041 0001 	orrne.w	r0, r1, #1
878022aa:	b910      	cbnz	r0, 878022b2 <xEventGroupSync+0x36>
878022ac:	f001 ffb0 	bl	87804210 <ulPortSetInterruptMask>
878022b0:	e7fe      	b.n	878022b0 <xEventGroupSync+0x34>
878022b2:	f001 f823 	bl	878032fc <vTaskSuspendAll>
878022b6:	6834      	ldr	r4, [r6, #0]
878022b8:	4641      	mov	r1, r8
878022ba:	4630      	mov	r0, r6
878022bc:	f7ff ffa0 	bl	87802200 <xEventGroupSetBits>
878022c0:	ea48 0404 	orr.w	r4, r8, r4
878022c4:	ea05 0204 	and.w	r2, r5, r4
878022c8:	42aa      	cmp	r2, r5
878022ca:	d005      	beq.n	878022d8 <xEventGroupSync+0x5c>
878022cc:	b96f      	cbnz	r7, 878022ea <xEventGroupSync+0x6e>
878022ce:	6834      	ldr	r4, [r6, #0]
878022d0:	e006      	b.n	878022e0 <xEventGroupSync+0x64>
878022d2:	f001 ff9d 	bl	87804210 <ulPortSetInterruptMask>
878022d6:	e7fe      	b.n	878022d6 <xEventGroupSync+0x5a>
878022d8:	6833      	ldr	r3, [r6, #0]
878022da:	ea23 0302 	bic.w	r3, r3, r2
878022de:	6033      	str	r3, [r6, #0]
878022e0:	f001 f8ac 	bl	8780343c <xTaskResumeAll>
878022e4:	4620      	mov	r0, r4
878022e6:	e8bd 81f0 	ldmia.w	sp!, {r4, r5, r6, r7, r8, pc}
878022ea:	463a      	mov	r2, r7
878022ec:	f045 61a0 	orr.w	r1, r5, #83886080	; 0x5000000
878022f0:	1d30      	adds	r0, r6, #4
878022f2:	f001 fa39 	bl	87803768 <vTaskPlaceOnUnorderedEventList>
878022f6:	f001 f8a1 	bl	8780343c <xTaskResumeAll>
878022fa:	b900      	cbnz	r0, 878022fe <xEventGroupSync+0x82>
878022fc:	df00      	svc	0
878022fe:	f001 fce3 	bl	87803cc8 <uxTaskResetEventItemValue>
87802302:	0183      	lsls	r3, r0, #6
87802304:	4604      	mov	r4, r0
87802306:	d40a      	bmi.n	8780231e <xEventGroupSync+0xa2>
87802308:	f002 f816 	bl	87804338 <vPortEnterCritical>
8780230c:	6834      	ldr	r4, [r6, #0]
8780230e:	ea35 0304 	bics.w	r3, r5, r4
87802312:	bf04      	itt	eq
87802314:	ea24 0505 	biceq.w	r5, r4, r5
87802318:	6035      	streq	r5, [r6, #0]
8780231a:	f001 ff39 	bl	87804190 <vPortExitCritical>
8780231e:	f024 447f 	bic.w	r4, r4, #4278190080	; 0xff000000
87802322:	e7df      	b.n	878022e4 <xEventGroupSync+0x68>

87802324 <vEventGroupDelete>:
87802324:	b538      	push	{r3, r4, r5, lr}
87802326:	4604      	mov	r4, r0
87802328:	f000 ffe8 	bl	878032fc <vTaskSuspendAll>
8780232c:	6863      	ldr	r3, [r4, #4]
8780232e:	b17b      	cbz	r3, 87802350 <vEventGroupDelete+0x2c>
87802330:	6920      	ldr	r0, [r4, #16]
87802332:	f104 050c 	add.w	r5, r4, #12
87802336:	42a8      	cmp	r0, r5
87802338:	d103      	bne.n	87802342 <vEventGroupDelete+0x1e>
8780233a:	e010      	b.n	8780235e <vEventGroupDelete+0x3a>
8780233c:	6920      	ldr	r0, [r4, #16]
8780233e:	42a8      	cmp	r0, r5
87802340:	d00d      	beq.n	8780235e <vEventGroupDelete+0x3a>
87802342:	f04f 7100 	mov.w	r1, #33554432	; 0x2000000
87802346:	f001 fa6d 	bl	87803824 <xTaskRemoveFromUnorderedEventList>
8780234a:	6863      	ldr	r3, [r4, #4]
8780234c:	2b00      	cmp	r3, #0
8780234e:	d1f5      	bne.n	8780233c <vEventGroupDelete+0x18>
87802350:	4620      	mov	r0, r4
87802352:	f002 f8df 	bl	87804514 <vPortFree>
87802356:	e8bd 4038 	ldmia.w	sp!, {r3, r4, r5, lr}
8780235a:	f001 b86f 	b.w	8780343c <xTaskResumeAll>
8780235e:	f001 ff57 	bl	87804210 <ulPortSetInterruptMask>
87802362:	e7fe      	b.n	87802362 <vEventGroupDelete+0x3e>

87802364 <vEventGroupSetBitsCallback>:
87802364:	f7ff bf4c 	b.w	87802200 <xEventGroupSetBits>

87802368 <vEventGroupClearBitsCallback>:
87802368:	f7ff bf28 	b.w	878021bc <xEventGroupClearBits>

8780236c <uxEventGroupGetNumber>:
8780236c:	b100      	cbz	r0, 87802370 <uxEventGroupGetNumber+0x4>
8780236e:	6980      	ldr	r0, [r0, #24]
87802370:	4770      	bx	lr
87802372:	bf00      	nop

87802374 <vListInitialise>:
87802374:	f100 0308 	add.w	r3, r0, #8
87802378:	f04f 31ff 	mov.w	r1, #4294967295	; 0xffffffff
8780237c:	2200      	movs	r2, #0
8780237e:	6081      	str	r1, [r0, #8]
87802380:	e880 000c 	stmia.w	r0, {r2, r3}
87802384:	60c3      	str	r3, [r0, #12]
87802386:	6103      	str	r3, [r0, #16]
87802388:	4770      	bx	lr
8780238a:	bf00      	nop

8780238c <vListInitialiseItem>:
8780238c:	2300      	movs	r3, #0
8780238e:	6103      	str	r3, [r0, #16]
87802390:	4770      	bx	lr
87802392:	bf00      	nop

87802394 <vListInsertEnd>:
87802394:	e890 000c 	ldmia.w	r0, {r2, r3}
87802398:	b410      	push	{r4}
8780239a:	3201      	adds	r2, #1
8780239c:	689c      	ldr	r4, [r3, #8]
8780239e:	604b      	str	r3, [r1, #4]
878023a0:	608c      	str	r4, [r1, #8]
878023a2:	689c      	ldr	r4, [r3, #8]
878023a4:	6061      	str	r1, [r4, #4]
878023a6:	6099      	str	r1, [r3, #8]
878023a8:	f85d 4b04 	ldr.w	r4, [sp], #4
878023ac:	6108      	str	r0, [r1, #16]
878023ae:	6002      	str	r2, [r0, #0]
878023b0:	4770      	bx	lr
878023b2:	bf00      	nop

878023b4 <vListInsert>:
878023b4:	b430      	push	{r4, r5}
878023b6:	680d      	ldr	r5, [r1, #0]
878023b8:	1c6b      	adds	r3, r5, #1
878023ba:	bf18      	it	ne
878023bc:	f100 0208 	addne.w	r2, r0, #8
878023c0:	d101      	bne.n	878023c6 <vListInsert+0x12>
878023c2:	e00e      	b.n	878023e2 <vListInsert+0x2e>
878023c4:	461a      	mov	r2, r3
878023c6:	6853      	ldr	r3, [r2, #4]
878023c8:	681c      	ldr	r4, [r3, #0]
878023ca:	42a5      	cmp	r5, r4
878023cc:	d2fa      	bcs.n	878023c4 <vListInsert+0x10>
878023ce:	6804      	ldr	r4, [r0, #0]
878023d0:	604b      	str	r3, [r1, #4]
878023d2:	6099      	str	r1, [r3, #8]
878023d4:	1c63      	adds	r3, r4, #1
878023d6:	608a      	str	r2, [r1, #8]
878023d8:	bc30      	pop	{r4, r5}
878023da:	6051      	str	r1, [r2, #4]
878023dc:	6108      	str	r0, [r1, #16]
878023de:	6003      	str	r3, [r0, #0]
878023e0:	4770      	bx	lr
878023e2:	6902      	ldr	r2, [r0, #16]
878023e4:	6853      	ldr	r3, [r2, #4]
878023e6:	e7f2      	b.n	878023ce <vListInsert+0x1a>

878023e8 <uxListRemove>:
878023e8:	6902      	ldr	r2, [r0, #16]
878023ea:	6843      	ldr	r3, [r0, #4]
878023ec:	6881      	ldr	r1, [r0, #8]
878023ee:	b410      	push	{r4}
878023f0:	6854      	ldr	r4, [r2, #4]
878023f2:	6099      	str	r1, [r3, #8]
878023f4:	6881      	ldr	r1, [r0, #8]
878023f6:	4284      	cmp	r4, r0
878023f8:	f85d 4b04 	ldr.w	r4, [sp], #4
878023fc:	604b      	str	r3, [r1, #4]
878023fe:	6813      	ldr	r3, [r2, #0]
87802400:	bf08      	it	eq
87802402:	6051      	streq	r1, [r2, #4]
87802404:	2100      	movs	r1, #0
87802406:	6101      	str	r1, [r0, #16]
87802408:	1e58      	subs	r0, r3, #1
8780240a:	6010      	str	r0, [r2, #0]
8780240c:	4770      	bx	lr
8780240e:	bf00      	nop

87802410 <prvCopyDataToQueue>:
87802410:	b570      	push	{r4, r5, r6, lr}
87802412:	4616      	mov	r6, r2
87802414:	6c02      	ldr	r2, [r0, #64]	; 0x40
87802416:	4604      	mov	r4, r0
87802418:	6b85      	ldr	r5, [r0, #56]	; 0x38
8780241a:	b932      	cbnz	r2, 8780242a <prvCopyDataToQueue+0x1a>
8780241c:	6806      	ldr	r6, [r0, #0]
8780241e:	2e00      	cmp	r6, #0
87802420:	d031      	beq.n	87802486 <prvCopyDataToQueue+0x76>
87802422:	3501      	adds	r5, #1
87802424:	4610      	mov	r0, r2
87802426:	63a5      	str	r5, [r4, #56]	; 0x38
87802428:	bd70      	pop	{r4, r5, r6, pc}
8780242a:	b99e      	cbnz	r6, 87802454 <prvCopyDataToQueue+0x44>
8780242c:	6880      	ldr	r0, [r0, #8]
8780242e:	f002 fb1d 	bl	87804a6c <memcpy>
87802432:	68a1      	ldr	r1, [r4, #8]
87802434:	6c23      	ldr	r3, [r4, #64]	; 0x40
87802436:	6862      	ldr	r2, [r4, #4]
87802438:	440b      	add	r3, r1
8780243a:	4293      	cmp	r3, r2
8780243c:	60a3      	str	r3, [r4, #8]
8780243e:	bf2b      	itete	cs
87802440:	6823      	ldrcs	r3, [r4, #0]
87802442:	3501      	addcc	r5, #1
87802444:	3501      	addcs	r5, #1
87802446:	4630      	movcc	r0, r6
87802448:	bf28      	it	cs
8780244a:	4630      	movcs	r0, r6
8780244c:	63a5      	str	r5, [r4, #56]	; 0x38
8780244e:	bf28      	it	cs
87802450:	60a3      	strcs	r3, [r4, #8]
87802452:	bd70      	pop	{r4, r5, r6, pc}
87802454:	68c0      	ldr	r0, [r0, #12]
87802456:	f002 fb09 	bl	87804a6c <memcpy>
8780245a:	6c23      	ldr	r3, [r4, #64]	; 0x40
8780245c:	68e2      	ldr	r2, [r4, #12]
8780245e:	6821      	ldr	r1, [r4, #0]
87802460:	425b      	negs	r3, r3
87802462:	441a      	add	r2, r3
87802464:	428a      	cmp	r2, r1
87802466:	60e2      	str	r2, [r4, #12]
87802468:	bf3e      	ittt	cc
8780246a:	6862      	ldrcc	r2, [r4, #4]
8780246c:	189b      	addcc	r3, r3, r2
8780246e:	60e3      	strcc	r3, [r4, #12]
87802470:	2e02      	cmp	r6, #2
87802472:	bf1c      	itt	ne
87802474:	3501      	addne	r5, #1
87802476:	2000      	movne	r0, #0
87802478:	d1d5      	bne.n	87802426 <prvCopyDataToQueue+0x16>
8780247a:	2d00      	cmp	r5, #0
8780247c:	f04f 0000 	mov.w	r0, #0
87802480:	bf08      	it	eq
87802482:	2501      	moveq	r5, #1
87802484:	e7cf      	b.n	87802426 <prvCopyDataToQueue+0x16>
87802486:	6840      	ldr	r0, [r0, #4]
87802488:	3501      	adds	r5, #1
8780248a:	f001 fbd1 	bl	87803c30 <xTaskPriorityDisinherit>
8780248e:	6066      	str	r6, [r4, #4]
87802490:	e7c9      	b.n	87802426 <prvCopyDataToQueue+0x16>
87802492:	bf00      	nop

87802494 <prvUnlockQueue>:
87802494:	b570      	push	{r4, r5, r6, lr}
87802496:	4605      	mov	r5, r0
87802498:	f001 ff4e 	bl	87804338 <vPortEnterCritical>
8780249c:	f895 4045 	ldrb.w	r4, [r5, #69]	; 0x45
878024a0:	b2e4      	uxtb	r4, r4
878024a2:	b263      	sxtb	r3, r4
878024a4:	2b00      	cmp	r3, #0
878024a6:	dd16      	ble.n	878024d6 <prvUnlockQueue+0x42>
878024a8:	6a6b      	ldr	r3, [r5, #36]	; 0x24
878024aa:	b1a3      	cbz	r3, 878024d6 <prvUnlockQueue+0x42>
878024ac:	f105 0624 	add.w	r6, r5, #36	; 0x24
878024b0:	e005      	b.n	878024be <prvUnlockQueue+0x2a>
878024b2:	3c01      	subs	r4, #1
878024b4:	b2e3      	uxtb	r3, r4
878024b6:	b2dc      	uxtb	r4, r3
878024b8:	b16b      	cbz	r3, 878024d6 <prvUnlockQueue+0x42>
878024ba:	6a6b      	ldr	r3, [r5, #36]	; 0x24
878024bc:	b15b      	cbz	r3, 878024d6 <prvUnlockQueue+0x42>
878024be:	4630      	mov	r0, r6
878024c0:	f001 f972 	bl	878037a8 <xTaskRemoveFromEventList>
878024c4:	2800      	cmp	r0, #0
878024c6:	d0f4      	beq.n	878024b2 <prvUnlockQueue+0x1e>
878024c8:	3c01      	subs	r4, #1
878024ca:	f001 fa2b 	bl	87803924 <vTaskMissedYield>
878024ce:	b2e3      	uxtb	r3, r4
878024d0:	b2dc      	uxtb	r4, r3
878024d2:	2b00      	cmp	r3, #0
878024d4:	d1f1      	bne.n	878024ba <prvUnlockQueue+0x26>
878024d6:	23ff      	movs	r3, #255	; 0xff
878024d8:	f885 3045 	strb.w	r3, [r5, #69]	; 0x45
878024dc:	f001 fe58 	bl	87804190 <vPortExitCritical>
878024e0:	f001 ff2a 	bl	87804338 <vPortEnterCritical>
878024e4:	f895 4044 	ldrb.w	r4, [r5, #68]	; 0x44
878024e8:	b2e4      	uxtb	r4, r4
878024ea:	b263      	sxtb	r3, r4
878024ec:	2b00      	cmp	r3, #0
878024ee:	dd16      	ble.n	8780251e <prvUnlockQueue+0x8a>
878024f0:	692b      	ldr	r3, [r5, #16]
878024f2:	b1a3      	cbz	r3, 8780251e <prvUnlockQueue+0x8a>
878024f4:	f105 0610 	add.w	r6, r5, #16
878024f8:	e005      	b.n	87802506 <prvUnlockQueue+0x72>
878024fa:	3c01      	subs	r4, #1
878024fc:	b2e3      	uxtb	r3, r4
878024fe:	b2dc      	uxtb	r4, r3
87802500:	b16b      	cbz	r3, 8780251e <prvUnlockQueue+0x8a>
87802502:	692b      	ldr	r3, [r5, #16]
87802504:	b15b      	cbz	r3, 8780251e <prvUnlockQueue+0x8a>
87802506:	4630      	mov	r0, r6
87802508:	f001 f94e 	bl	878037a8 <xTaskRemoveFromEventList>
8780250c:	2800      	cmp	r0, #0
8780250e:	d0f4      	beq.n	878024fa <prvUnlockQueue+0x66>
87802510:	3c01      	subs	r4, #1
87802512:	f001 fa07 	bl	87803924 <vTaskMissedYield>
87802516:	b2e3      	uxtb	r3, r4
87802518:	b2dc      	uxtb	r4, r3
8780251a:	2b00      	cmp	r3, #0
8780251c:	d1f1      	bne.n	87802502 <prvUnlockQueue+0x6e>
8780251e:	23ff      	movs	r3, #255	; 0xff
87802520:	f885 3044 	strb.w	r3, [r5, #68]	; 0x44
87802524:	e8bd 4070 	ldmia.w	sp!, {r4, r5, r6, lr}
87802528:	f001 be32 	b.w	87804190 <vPortExitCritical>

8780252c <xQueueGenericReset>:
8780252c:	b570      	push	{r4, r5, r6, lr}
8780252e:	4604      	mov	r4, r0
87802530:	2800      	cmp	r0, #0
87802532:	d032      	beq.n	8780259a <xQueueGenericReset+0x6e>
87802534:	460e      	mov	r6, r1
87802536:	25ff      	movs	r5, #255	; 0xff
87802538:	f001 fefe 	bl	87804338 <vPortEnterCritical>
8780253c:	6c23      	ldr	r3, [r4, #64]	; 0x40
8780253e:	2100      	movs	r1, #0
87802540:	6be2      	ldr	r2, [r4, #60]	; 0x3c
87802542:	6820      	ldr	r0, [r4, #0]
87802544:	63a1      	str	r1, [r4, #56]	; 0x38
87802546:	f884 5044 	strb.w	r5, [r4, #68]	; 0x44
8780254a:	fb02 f203 	mul.w	r2, r2, r3
8780254e:	60a0      	str	r0, [r4, #8]
87802550:	f884 5045 	strb.w	r5, [r4, #69]	; 0x45
87802554:	1ad3      	subs	r3, r2, r3
87802556:	4402      	add	r2, r0
87802558:	4403      	add	r3, r0
8780255a:	6062      	str	r2, [r4, #4]
8780255c:	60e3      	str	r3, [r4, #12]
8780255e:	b986      	cbnz	r6, 87802582 <xQueueGenericReset+0x56>
87802560:	6923      	ldr	r3, [r4, #16]
87802562:	b91b      	cbnz	r3, 8780256c <xQueueGenericReset+0x40>
87802564:	f001 fe14 	bl	87804190 <vPortExitCritical>
87802568:	2001      	movs	r0, #1
8780256a:	bd70      	pop	{r4, r5, r6, pc}
8780256c:	f104 0010 	add.w	r0, r4, #16
87802570:	f001 f91a 	bl	878037a8 <xTaskRemoveFromEventList>
87802574:	2800      	cmp	r0, #0
87802576:	d0f5      	beq.n	87802564 <xQueueGenericReset+0x38>
87802578:	df00      	svc	0
8780257a:	f001 fe09 	bl	87804190 <vPortExitCritical>
8780257e:	2001      	movs	r0, #1
87802580:	bd70      	pop	{r4, r5, r6, pc}
87802582:	f104 0010 	add.w	r0, r4, #16
87802586:	f7ff fef5 	bl	87802374 <vListInitialise>
8780258a:	f104 0024 	add.w	r0, r4, #36	; 0x24
8780258e:	f7ff fef1 	bl	87802374 <vListInitialise>
87802592:	f001 fdfd 	bl	87804190 <vPortExitCritical>
87802596:	2001      	movs	r0, #1
87802598:	bd70      	pop	{r4, r5, r6, pc}
8780259a:	f001 fe39 	bl	87804210 <ulPortSetInterruptMask>
8780259e:	e7fe      	b.n	8780259e <xQueueGenericReset+0x72>

878025a0 <xQueueGenericCreate>:
878025a0:	b5f8      	push	{r3, r4, r5, r6, r7, lr}
878025a2:	4605      	mov	r5, r0
878025a4:	b1f0      	cbz	r0, 878025e4 <xQueueGenericCreate+0x44>
878025a6:	460e      	mov	r6, r1
878025a8:	4617      	mov	r7, r2
878025aa:	b199      	cbz	r1, 878025d4 <xQueueGenericCreate+0x34>
878025ac:	fb01 f000 	mul.w	r0, r1, r0
878025b0:	3050      	adds	r0, #80	; 0x50
878025b2:	f001 ff1f 	bl	878043f4 <pvPortMalloc>
878025b6:	4604      	mov	r4, r0
878025b8:	b150      	cbz	r0, 878025d0 <xQueueGenericCreate+0x30>
878025ba:	f100 0350 	add.w	r3, r0, #80	; 0x50
878025be:	6003      	str	r3, [r0, #0]
878025c0:	63e5      	str	r5, [r4, #60]	; 0x3c
878025c2:	2101      	movs	r1, #1
878025c4:	6426      	str	r6, [r4, #64]	; 0x40
878025c6:	4620      	mov	r0, r4
878025c8:	f7ff ffb0 	bl	8780252c <xQueueGenericReset>
878025cc:	f884 704c 	strb.w	r7, [r4, #76]	; 0x4c
878025d0:	4620      	mov	r0, r4
878025d2:	bdf8      	pop	{r3, r4, r5, r6, r7, pc}
878025d4:	2050      	movs	r0, #80	; 0x50
878025d6:	f001 ff0d 	bl	878043f4 <pvPortMalloc>
878025da:	4604      	mov	r4, r0
878025dc:	2800      	cmp	r0, #0
878025de:	d0f7      	beq.n	878025d0 <xQueueGenericCreate+0x30>
878025e0:	6024      	str	r4, [r4, #0]
878025e2:	e7ed      	b.n	878025c0 <xQueueGenericCreate+0x20>
878025e4:	f001 fe14 	bl	87804210 <ulPortSetInterruptMask>
878025e8:	e7fe      	b.n	878025e8 <xQueueGenericCreate+0x48>
878025ea:	bf00      	nop

878025ec <xQueueCreateCountingSemaphore>:
878025ec:	b510      	push	{r4, lr}
878025ee:	b160      	cbz	r0, 8780260a <xQueueCreateCountingSemaphore+0x1e>
878025f0:	4288      	cmp	r0, r1
878025f2:	460c      	mov	r4, r1
878025f4:	d202      	bcs.n	878025fc <xQueueCreateCountingSemaphore+0x10>
878025f6:	f001 fe0b 	bl	87804210 <ulPortSetInterruptMask>
878025fa:	e7fe      	b.n	878025fa <xQueueCreateCountingSemaphore+0xe>
878025fc:	2202      	movs	r2, #2
878025fe:	2100      	movs	r1, #0
87802600:	f7ff ffce 	bl	878025a0 <xQueueGenericCreate>
87802604:	b100      	cbz	r0, 87802608 <xQueueCreateCountingSemaphore+0x1c>
87802606:	6384      	str	r4, [r0, #56]	; 0x38
87802608:	bd10      	pop	{r4, pc}
8780260a:	f001 fe01 	bl	87804210 <ulPortSetInterruptMask>
8780260e:	e7fe      	b.n	8780260e <xQueueCreateCountingSemaphore+0x22>

87802610 <xQueueGenericSend>:
87802610:	e92d 47f0 	stmdb	sp!, {r4, r5, r6, r7, r8, r9, sl, lr}
87802614:	b084      	sub	sp, #16
87802616:	9201      	str	r2, [sp, #4]
87802618:	4604      	mov	r4, r0
8780261a:	2800      	cmp	r0, #0
8780261c:	d066      	beq.n	878026ec <xQueueGenericSend+0xdc>
8780261e:	4689      	mov	r9, r1
87802620:	461f      	mov	r7, r3
87802622:	2900      	cmp	r1, #0
87802624:	f000 808d 	beq.w	87802742 <xQueueGenericSend+0x132>
87802628:	2f02      	cmp	r7, #2
8780262a:	d049      	beq.n	878026c0 <xQueueGenericSend+0xb0>
8780262c:	f001 faa2 	bl	87803b74 <xTaskGetSchedulerState>
87802630:	b918      	cbnz	r0, 8780263a <xQueueGenericSend+0x2a>
87802632:	9b01      	ldr	r3, [sp, #4]
87802634:	2b00      	cmp	r3, #0
87802636:	f040 8081 	bne.w	8780273c <xQueueGenericSend+0x12c>
8780263a:	f1a7 0a02 	sub.w	sl, r7, #2
8780263e:	2600      	movs	r6, #0
87802640:	faba fa8a 	clz	sl, sl
87802644:	46b0      	mov	r8, r6
87802646:	ea4f 1a5a 	mov.w	sl, sl, lsr #5
8780264a:	e027      	b.n	8780269c <xQueueGenericSend+0x8c>
8780264c:	f001 fda0 	bl	87804190 <vPortExitCritical>
87802650:	f000 fe54 	bl	878032fc <vTaskSuspendAll>
87802654:	f001 fe70 	bl	87804338 <vPortEnterCritical>
87802658:	f894 3044 	ldrb.w	r3, [r4, #68]	; 0x44
8780265c:	2bff      	cmp	r3, #255	; 0xff
8780265e:	bf08      	it	eq
87802660:	f884 8044 	strbeq.w	r8, [r4, #68]	; 0x44
87802664:	f894 3045 	ldrb.w	r3, [r4, #69]	; 0x45
87802668:	2bff      	cmp	r3, #255	; 0xff
8780266a:	bf08      	it	eq
8780266c:	f884 8045 	strbeq.w	r8, [r4, #69]	; 0x45
87802670:	f001 fd8e 	bl	87804190 <vPortExitCritical>
87802674:	a901      	add	r1, sp, #4
87802676:	a802      	add	r0, sp, #8
87802678:	f001 f91c 	bl	878038b4 <xTaskCheckForTimeOut>
8780267c:	2800      	cmp	r0, #0
8780267e:	d138      	bne.n	878026f2 <xQueueGenericSend+0xe2>
87802680:	f001 fe5a 	bl	87804338 <vPortEnterCritical>
87802684:	6ba2      	ldr	r2, [r4, #56]	; 0x38
87802686:	6be3      	ldr	r3, [r4, #60]	; 0x3c
87802688:	429a      	cmp	r2, r3
8780268a:	d01f      	beq.n	878026cc <xQueueGenericSend+0xbc>
8780268c:	f001 fd80 	bl	87804190 <vPortExitCritical>
87802690:	4620      	mov	r0, r4
87802692:	f7ff feff 	bl	87802494 <prvUnlockQueue>
87802696:	f000 fed1 	bl	8780343c <xTaskResumeAll>
8780269a:	2601      	movs	r6, #1
8780269c:	f001 fe4c 	bl	87804338 <vPortEnterCritical>
878026a0:	6ba3      	ldr	r3, [r4, #56]	; 0x38
878026a2:	6be2      	ldr	r2, [r4, #60]	; 0x3c
878026a4:	4293      	cmp	r3, r2
878026a6:	bf2c      	ite	cs
878026a8:	4653      	movcs	r3, sl
878026aa:	f04a 0301 	orrcc.w	r3, sl, #1
878026ae:	bb7b      	cbnz	r3, 87802710 <xQueueGenericSend+0x100>
878026b0:	9d01      	ldr	r5, [sp, #4]
878026b2:	b33d      	cbz	r5, 87802704 <xQueueGenericSend+0xf4>
878026b4:	2e00      	cmp	r6, #0
878026b6:	d1c9      	bne.n	8780264c <xQueueGenericSend+0x3c>
878026b8:	a802      	add	r0, sp, #8
878026ba:	f001 f8eb 	bl	87803894 <vTaskSetTimeOutState>
878026be:	e7c5      	b.n	8780264c <xQueueGenericSend+0x3c>
878026c0:	6be3      	ldr	r3, [r4, #60]	; 0x3c
878026c2:	2b01      	cmp	r3, #1
878026c4:	d0b2      	beq.n	8780262c <xQueueGenericSend+0x1c>
878026c6:	f001 fda3 	bl	87804210 <ulPortSetInterruptMask>
878026ca:	e7fe      	b.n	878026ca <xQueueGenericSend+0xba>
878026cc:	f001 fd60 	bl	87804190 <vPortExitCritical>
878026d0:	9901      	ldr	r1, [sp, #4]
878026d2:	f104 0010 	add.w	r0, r4, #16
878026d6:	f001 f833 	bl	87803740 <vTaskPlaceOnEventList>
878026da:	4620      	mov	r0, r4
878026dc:	f7ff feda 	bl	87802494 <prvUnlockQueue>
878026e0:	f000 feac 	bl	8780343c <xTaskResumeAll>
878026e4:	2800      	cmp	r0, #0
878026e6:	d1d8      	bne.n	8780269a <xQueueGenericSend+0x8a>
878026e8:	df00      	svc	0
878026ea:	e7d6      	b.n	8780269a <xQueueGenericSend+0x8a>
878026ec:	f001 fd90 	bl	87804210 <ulPortSetInterruptMask>
878026f0:	e7fe      	b.n	878026f0 <xQueueGenericSend+0xe0>
878026f2:	4620      	mov	r0, r4
878026f4:	f7ff fece 	bl	87802494 <prvUnlockQueue>
878026f8:	f000 fea0 	bl	8780343c <xTaskResumeAll>
878026fc:	2000      	movs	r0, #0
878026fe:	b004      	add	sp, #16
87802700:	e8bd 87f0 	ldmia.w	sp!, {r4, r5, r6, r7, r8, r9, sl, pc}
87802704:	f001 fd44 	bl	87804190 <vPortExitCritical>
87802708:	4628      	mov	r0, r5
8780270a:	b004      	add	sp, #16
8780270c:	e8bd 87f0 	ldmia.w	sp!, {r4, r5, r6, r7, r8, r9, sl, pc}
87802710:	463a      	mov	r2, r7
87802712:	4649      	mov	r1, r9
87802714:	4620      	mov	r0, r4
87802716:	f7ff fe7b 	bl	87802410 <prvCopyDataToQueue>
8780271a:	6a63      	ldr	r3, [r4, #36]	; 0x24
8780271c:	b93b      	cbnz	r3, 8780272e <xQueueGenericSend+0x11e>
8780271e:	b100      	cbz	r0, 87802722 <xQueueGenericSend+0x112>
87802720:	df00      	svc	0
87802722:	f001 fd35 	bl	87804190 <vPortExitCritical>
87802726:	2001      	movs	r0, #1
87802728:	b004      	add	sp, #16
8780272a:	e8bd 87f0 	ldmia.w	sp!, {r4, r5, r6, r7, r8, r9, sl, pc}
8780272e:	f104 0024 	add.w	r0, r4, #36	; 0x24
87802732:	f001 f839 	bl	878037a8 <xTaskRemoveFromEventList>
87802736:	2800      	cmp	r0, #0
87802738:	d1f2      	bne.n	87802720 <xQueueGenericSend+0x110>
8780273a:	e7f2      	b.n	87802722 <xQueueGenericSend+0x112>
8780273c:	f001 fd68 	bl	87804210 <ulPortSetInterruptMask>
87802740:	e7fe      	b.n	87802740 <xQueueGenericSend+0x130>
87802742:	6c03      	ldr	r3, [r0, #64]	; 0x40
87802744:	2b00      	cmp	r3, #0
87802746:	f43f af6f 	beq.w	87802628 <xQueueGenericSend+0x18>
8780274a:	f001 fd61 	bl	87804210 <ulPortSetInterruptMask>
8780274e:	e7fe      	b.n	8780274e <xQueueGenericSend+0x13e>

87802750 <xQueueCreateMutex>:
87802750:	b510      	push	{r4, lr}
87802752:	4602      	mov	r2, r0
87802754:	2100      	movs	r1, #0
87802756:	2001      	movs	r0, #1
87802758:	f7ff ff22 	bl	878025a0 <xQueueGenericCreate>
8780275c:	4604      	mov	r4, r0
8780275e:	b138      	cbz	r0, 87802770 <xQueueCreateMutex+0x20>
87802760:	2300      	movs	r3, #0
87802762:	6043      	str	r3, [r0, #4]
87802764:	461a      	mov	r2, r3
87802766:	6003      	str	r3, [r0, #0]
87802768:	4619      	mov	r1, r3
8780276a:	60c3      	str	r3, [r0, #12]
8780276c:	f7ff ff50 	bl	87802610 <xQueueGenericSend>
87802770:	4620      	mov	r0, r4
87802772:	bd10      	pop	{r4, pc}

87802774 <xQueueGiveMutexRecursive>:
87802774:	b538      	push	{r3, r4, r5, lr}
87802776:	4604      	mov	r4, r0
87802778:	b130      	cbz	r0, 87802788 <xQueueGiveMutexRecursive+0x14>
8780277a:	6845      	ldr	r5, [r0, #4]
8780277c:	f001 f9f4 	bl	87803b68 <xTaskGetCurrentTaskHandle>
87802780:	4285      	cmp	r5, r0
87802782:	d004      	beq.n	8780278e <xQueueGiveMutexRecursive+0x1a>
87802784:	2000      	movs	r0, #0
87802786:	bd38      	pop	{r3, r4, r5, pc}
87802788:	f001 fd42 	bl	87804210 <ulPortSetInterruptMask>
8780278c:	e7fe      	b.n	8780278c <xQueueGiveMutexRecursive+0x18>
8780278e:	68e3      	ldr	r3, [r4, #12]
87802790:	3b01      	subs	r3, #1
87802792:	60e3      	str	r3, [r4, #12]
87802794:	b10b      	cbz	r3, 8780279a <xQueueGiveMutexRecursive+0x26>
87802796:	2001      	movs	r0, #1
87802798:	bd38      	pop	{r3, r4, r5, pc}
8780279a:	4620      	mov	r0, r4
8780279c:	461a      	mov	r2, r3
8780279e:	4619      	mov	r1, r3
878027a0:	f7ff ff36 	bl	87802610 <xQueueGenericSend>
878027a4:	2001      	movs	r0, #1
878027a6:	bd38      	pop	{r3, r4, r5, pc}

878027a8 <xQueueGenericSendFromISR>:
878027a8:	e92d 43f8 	stmdb	sp!, {r3, r4, r5, r6, r7, r8, r9, lr}
878027ac:	4604      	mov	r4, r0
878027ae:	2800      	cmp	r0, #0
878027b0:	d039      	beq.n	87802826 <xQueueGenericSendFromISR+0x7e>
878027b2:	460f      	mov	r7, r1
878027b4:	4690      	mov	r8, r2
878027b6:	4699      	mov	r9, r3
878027b8:	2900      	cmp	r1, #0
878027ba:	d04d      	beq.n	87802858 <xQueueGenericSendFromISR+0xb0>
878027bc:	f1b9 0f02 	cmp.w	r9, #2
878027c0:	d010      	beq.n	878027e4 <xQueueGenericSendFromISR+0x3c>
878027c2:	f001 fdd1 	bl	87804368 <vPortValidateInterruptPriority>
878027c6:	f001 fd23 	bl	87804210 <ulPortSetInterruptMask>
878027ca:	6ba2      	ldr	r2, [r4, #56]	; 0x38
878027cc:	4606      	mov	r6, r0
878027ce:	6be3      	ldr	r3, [r4, #60]	; 0x3c
878027d0:	429a      	cmp	r2, r3
878027d2:	bf28      	it	cs
878027d4:	2500      	movcs	r5, #0
878027d6:	d311      	bcc.n	878027fc <xQueueGenericSendFromISR+0x54>
878027d8:	4630      	mov	r0, r6
878027da:	f001 fd03 	bl	878041e4 <vPortClearInterruptMask>
878027de:	4628      	mov	r0, r5
878027e0:	e8bd 83f8 	ldmia.w	sp!, {r3, r4, r5, r6, r7, r8, r9, pc}
878027e4:	6be3      	ldr	r3, [r4, #60]	; 0x3c
878027e6:	2b01      	cmp	r3, #1
878027e8:	d002      	beq.n	878027f0 <xQueueGenericSendFromISR+0x48>
878027ea:	f001 fd11 	bl	87804210 <ulPortSetInterruptMask>
878027ee:	e7fe      	b.n	878027ee <xQueueGenericSendFromISR+0x46>
878027f0:	f001 fdba 	bl	87804368 <vPortValidateInterruptPriority>
878027f4:	f001 fd0c 	bl	87804210 <ulPortSetInterruptMask>
878027f8:	6ba3      	ldr	r3, [r4, #56]	; 0x38
878027fa:	4606      	mov	r6, r0
878027fc:	f894 5045 	ldrb.w	r5, [r4, #69]	; 0x45
87802800:	464a      	mov	r2, r9
87802802:	4639      	mov	r1, r7
87802804:	4620      	mov	r0, r4
87802806:	f7ff fe03 	bl	87802410 <prvCopyDataToQueue>
8780280a:	b2ed      	uxtb	r5, r5
8780280c:	2dff      	cmp	r5, #255	; 0xff
8780280e:	d00d      	beq.n	8780282c <xQueueGenericSendFromISR+0x84>
87802810:	1c6b      	adds	r3, r5, #1
87802812:	4630      	mov	r0, r6
87802814:	b2db      	uxtb	r3, r3
87802816:	2501      	movs	r5, #1
87802818:	f884 3045 	strb.w	r3, [r4, #69]	; 0x45
8780281c:	f001 fce2 	bl	878041e4 <vPortClearInterruptMask>
87802820:	4628      	mov	r0, r5
87802822:	e8bd 83f8 	ldmia.w	sp!, {r3, r4, r5, r6, r7, r8, r9, pc}
87802826:	f001 fcf3 	bl	87804210 <ulPortSetInterruptMask>
8780282a:	e7fe      	b.n	8780282a <xQueueGenericSendFromISR+0x82>
8780282c:	6a63      	ldr	r3, [r4, #36]	; 0x24
8780282e:	2501      	movs	r5, #1
87802830:	2b00      	cmp	r3, #0
87802832:	d0d1      	beq.n	878027d8 <xQueueGenericSendFromISR+0x30>
87802834:	f104 0024 	add.w	r0, r4, #36	; 0x24
87802838:	2501      	movs	r5, #1
8780283a:	f000 ffb5 	bl	878037a8 <xTaskRemoveFromEventList>
8780283e:	2800      	cmp	r0, #0
87802840:	bf18      	it	ne
87802842:	f1b8 0f00 	cmpne.w	r8, #0
87802846:	4630      	mov	r0, r6
87802848:	bf18      	it	ne
8780284a:	f8c8 5000 	strne.w	r5, [r8]
8780284e:	f001 fcc9 	bl	878041e4 <vPortClearInterruptMask>
87802852:	4628      	mov	r0, r5
87802854:	e8bd 83f8 	ldmia.w	sp!, {r3, r4, r5, r6, r7, r8, r9, pc}
87802858:	6c03      	ldr	r3, [r0, #64]	; 0x40
8780285a:	2b00      	cmp	r3, #0
8780285c:	d0ae      	beq.n	878027bc <xQueueGenericSendFromISR+0x14>
8780285e:	f001 fcd7 	bl	87804210 <ulPortSetInterruptMask>
87802862:	e7fe      	b.n	87802862 <xQueueGenericSendFromISR+0xba>

87802864 <xQueueGiveFromISR>:
87802864:	b5f8      	push	{r3, r4, r5, r6, r7, lr}
87802866:	4604      	mov	r4, r0
87802868:	b318      	cbz	r0, 878028b2 <xQueueGiveFromISR+0x4e>
8780286a:	6c03      	ldr	r3, [r0, #64]	; 0x40
8780286c:	b9f3      	cbnz	r3, 878028ac <xQueueGiveFromISR+0x48>
8780286e:	6803      	ldr	r3, [r0, #0]
87802870:	460e      	mov	r6, r1
87802872:	b39b      	cbz	r3, 878028dc <xQueueGiveFromISR+0x78>
87802874:	f001 fd78 	bl	87804368 <vPortValidateInterruptPriority>
87802878:	f001 fcca 	bl	87804210 <ulPortSetInterruptMask>
8780287c:	6ba2      	ldr	r2, [r4, #56]	; 0x38
8780287e:	4607      	mov	r7, r0
87802880:	6be3      	ldr	r3, [r4, #60]	; 0x3c
87802882:	429a      	cmp	r2, r3
87802884:	bf28      	it	cs
87802886:	2500      	movcs	r5, #0
87802888:	d20b      	bcs.n	878028a2 <xQueueGiveFromISR+0x3e>
8780288a:	f894 3045 	ldrb.w	r3, [r4, #69]	; 0x45
8780288e:	3201      	adds	r2, #1
87802890:	63a2      	str	r2, [r4, #56]	; 0x38
87802892:	b2db      	uxtb	r3, r3
87802894:	2bff      	cmp	r3, #255	; 0xff
87802896:	d00f      	beq.n	878028b8 <xQueueGiveFromISR+0x54>
87802898:	3301      	adds	r3, #1
8780289a:	2501      	movs	r5, #1
8780289c:	b2db      	uxtb	r3, r3
8780289e:	f884 3045 	strb.w	r3, [r4, #69]	; 0x45
878028a2:	4638      	mov	r0, r7
878028a4:	f001 fc9e 	bl	878041e4 <vPortClearInterruptMask>
878028a8:	4628      	mov	r0, r5
878028aa:	bdf8      	pop	{r3, r4, r5, r6, r7, pc}
878028ac:	f001 fcb0 	bl	87804210 <ulPortSetInterruptMask>
878028b0:	e7fe      	b.n	878028b0 <xQueueGiveFromISR+0x4c>
878028b2:	f001 fcad 	bl	87804210 <ulPortSetInterruptMask>
878028b6:	e7fe      	b.n	878028b6 <xQueueGiveFromISR+0x52>
878028b8:	6a63      	ldr	r3, [r4, #36]	; 0x24
878028ba:	2501      	movs	r5, #1
878028bc:	2b00      	cmp	r3, #0
878028be:	d0f0      	beq.n	878028a2 <xQueueGiveFromISR+0x3e>
878028c0:	f104 0024 	add.w	r0, r4, #36	; 0x24
878028c4:	f000 ff70 	bl	878037a8 <xTaskRemoveFromEventList>
878028c8:	2800      	cmp	r0, #0
878028ca:	bf18      	it	ne
878028cc:	2e00      	cmpne	r6, #0
878028ce:	4638      	mov	r0, r7
878028d0:	bf18      	it	ne
878028d2:	6035      	strne	r5, [r6, #0]
878028d4:	f001 fc86 	bl	878041e4 <vPortClearInterruptMask>
878028d8:	4628      	mov	r0, r5
878028da:	bdf8      	pop	{r3, r4, r5, r6, r7, pc}
878028dc:	6843      	ldr	r3, [r0, #4]
878028de:	2b00      	cmp	r3, #0
878028e0:	d0c8      	beq.n	87802874 <xQueueGiveFromISR+0x10>
878028e2:	f001 fc95 	bl	87804210 <ulPortSetInterruptMask>
878028e6:	e7fe      	b.n	878028e6 <xQueueGiveFromISR+0x82>

878028e8 <xQueueGenericReceive>:
878028e8:	e92d 43f0 	stmdb	sp!, {r4, r5, r6, r7, r8, r9, lr}
878028ec:	b085      	sub	sp, #20
878028ee:	9201      	str	r2, [sp, #4]
878028f0:	4604      	mov	r4, r0
878028f2:	2800      	cmp	r0, #0
878028f4:	d061      	beq.n	878029ba <xQueueGenericReceive+0xd2>
878028f6:	460f      	mov	r7, r1
878028f8:	4699      	mov	r9, r3
878028fa:	2900      	cmp	r1, #0
878028fc:	f000 8098 	beq.w	87802a30 <xQueueGenericReceive+0x148>
87802900:	f001 f938 	bl	87803b74 <xTaskGetSchedulerState>
87802904:	b920      	cbnz	r0, 87802910 <xQueueGenericReceive+0x28>
87802906:	9d01      	ldr	r5, [sp, #4]
87802908:	b11d      	cbz	r5, 87802912 <xQueueGenericReceive+0x2a>
8780290a:	f001 fc81 	bl	87804210 <ulPortSetInterruptMask>
8780290e:	e7fe      	b.n	8780290e <xQueueGenericReceive+0x26>
87802910:	2500      	movs	r5, #0
87802912:	f04f 0800 	mov.w	r8, #0
87802916:	e00c      	b.n	87802932 <xQueueGenericReceive+0x4a>
87802918:	f001 fd0e 	bl	87804338 <vPortEnterCritical>
8780291c:	6ba3      	ldr	r3, [r4, #56]	; 0x38
8780291e:	2b00      	cmp	r3, #0
87802920:	d039      	beq.n	87802996 <xQueueGenericReceive+0xae>
87802922:	f001 fc35 	bl	87804190 <vPortExitCritical>
87802926:	4620      	mov	r0, r4
87802928:	f7ff fdb4 	bl	87802494 <prvUnlockQueue>
8780292c:	f000 fd86 	bl	8780343c <xTaskResumeAll>
87802930:	2501      	movs	r5, #1
87802932:	f001 fd01 	bl	87804338 <vPortEnterCritical>
87802936:	6ba6      	ldr	r6, [r4, #56]	; 0x38
87802938:	2e00      	cmp	r6, #0
8780293a:	d14f      	bne.n	878029dc <xQueueGenericReceive+0xf4>
8780293c:	9b01      	ldr	r3, [sp, #4]
8780293e:	2b00      	cmp	r3, #0
87802940:	d046      	beq.n	878029d0 <xQueueGenericReceive+0xe8>
87802942:	b915      	cbnz	r5, 8780294a <xQueueGenericReceive+0x62>
87802944:	a802      	add	r0, sp, #8
87802946:	f000 ffa5 	bl	87803894 <vTaskSetTimeOutState>
8780294a:	f001 fc21 	bl	87804190 <vPortExitCritical>
8780294e:	f000 fcd5 	bl	878032fc <vTaskSuspendAll>
87802952:	f001 fcf1 	bl	87804338 <vPortEnterCritical>
87802956:	f894 3044 	ldrb.w	r3, [r4, #68]	; 0x44
8780295a:	2bff      	cmp	r3, #255	; 0xff
8780295c:	bf08      	it	eq
8780295e:	f884 8044 	strbeq.w	r8, [r4, #68]	; 0x44
87802962:	f894 3045 	ldrb.w	r3, [r4, #69]	; 0x45
87802966:	2bff      	cmp	r3, #255	; 0xff
87802968:	bf08      	it	eq
8780296a:	f884 8045 	strbeq.w	r8, [r4, #69]	; 0x45
8780296e:	f001 fc0f 	bl	87804190 <vPortExitCritical>
87802972:	a901      	add	r1, sp, #4
87802974:	a802      	add	r0, sp, #8
87802976:	f000 ff9d 	bl	878038b4 <xTaskCheckForTimeOut>
8780297a:	2800      	cmp	r0, #0
8780297c:	d0cc      	beq.n	87802918 <xQueueGenericReceive+0x30>
8780297e:	4620      	mov	r0, r4
87802980:	f7ff fd88 	bl	87802494 <prvUnlockQueue>
87802984:	f000 fd5a 	bl	8780343c <xTaskResumeAll>
87802988:	f001 fcd6 	bl	87804338 <vPortEnterCritical>
8780298c:	6ba3      	ldr	r3, [r4, #56]	; 0x38
8780298e:	b1fb      	cbz	r3, 878029d0 <xQueueGenericReceive+0xe8>
87802990:	f001 fbfe 	bl	87804190 <vPortExitCritical>
87802994:	e7cc      	b.n	87802930 <xQueueGenericReceive+0x48>
87802996:	f001 fbfb 	bl	87804190 <vPortExitCritical>
8780299a:	6823      	ldr	r3, [r4, #0]
8780299c:	b183      	cbz	r3, 878029c0 <xQueueGenericReceive+0xd8>
8780299e:	9901      	ldr	r1, [sp, #4]
878029a0:	f104 0024 	add.w	r0, r4, #36	; 0x24
878029a4:	f000 fecc 	bl	87803740 <vTaskPlaceOnEventList>
878029a8:	4620      	mov	r0, r4
878029aa:	f7ff fd73 	bl	87802494 <prvUnlockQueue>
878029ae:	f000 fd45 	bl	8780343c <xTaskResumeAll>
878029b2:	2800      	cmp	r0, #0
878029b4:	d1bc      	bne.n	87802930 <xQueueGenericReceive+0x48>
878029b6:	df00      	svc	0
878029b8:	e7ba      	b.n	87802930 <xQueueGenericReceive+0x48>
878029ba:	f001 fc29 	bl	87804210 <ulPortSetInterruptMask>
878029be:	e7fe      	b.n	878029be <xQueueGenericReceive+0xd6>
878029c0:	f001 fcba 	bl	87804338 <vPortEnterCritical>
878029c4:	6860      	ldr	r0, [r4, #4]
878029c6:	f001 f8e5 	bl	87803b94 <vTaskPriorityInherit>
878029ca:	f001 fbe1 	bl	87804190 <vPortExitCritical>
878029ce:	e7e6      	b.n	8780299e <xQueueGenericReceive+0xb6>
878029d0:	f001 fbde 	bl	87804190 <vPortExitCritical>
878029d4:	2000      	movs	r0, #0
878029d6:	b005      	add	sp, #20
878029d8:	e8bd 83f0 	ldmia.w	sp!, {r4, r5, r6, r7, r8, r9, pc}
878029dc:	4639      	mov	r1, r7
878029de:	4620      	mov	r0, r4
878029e0:	68e5      	ldr	r5, [r4, #12]
878029e2:	f003 fccf 	bl	87806384 <prvCopyDataFromQueue>
878029e6:	f1b9 0f00 	cmp.w	r9, #0
878029ea:	d10e      	bne.n	87802a0a <xQueueGenericReceive+0x122>
878029ec:	6823      	ldr	r3, [r4, #0]
878029ee:	3e01      	subs	r6, #1
878029f0:	63a6      	str	r6, [r4, #56]	; 0x38
878029f2:	b913      	cbnz	r3, 878029fa <xQueueGenericReceive+0x112>
878029f4:	f001 f976 	bl	87803ce4 <pvTaskIncrementMutexHeldCount>
878029f8:	6060      	str	r0, [r4, #4]
878029fa:	6923      	ldr	r3, [r4, #16]
878029fc:	b98b      	cbnz	r3, 87802a22 <xQueueGenericReceive+0x13a>
878029fe:	f001 fbc7 	bl	87804190 <vPortExitCritical>
87802a02:	2001      	movs	r0, #1
87802a04:	b005      	add	sp, #20
87802a06:	e8bd 83f0 	ldmia.w	sp!, {r4, r5, r6, r7, r8, r9, pc}
87802a0a:	6a63      	ldr	r3, [r4, #36]	; 0x24
87802a0c:	60e5      	str	r5, [r4, #12]
87802a0e:	2b00      	cmp	r3, #0
87802a10:	d0f5      	beq.n	878029fe <xQueueGenericReceive+0x116>
87802a12:	f104 0024 	add.w	r0, r4, #36	; 0x24
87802a16:	f000 fec7 	bl	878037a8 <xTaskRemoveFromEventList>
87802a1a:	2800      	cmp	r0, #0
87802a1c:	d0ef      	beq.n	878029fe <xQueueGenericReceive+0x116>
87802a1e:	df00      	svc	0
87802a20:	e7ed      	b.n	878029fe <xQueueGenericReceive+0x116>
87802a22:	f104 0010 	add.w	r0, r4, #16
87802a26:	f000 febf 	bl	878037a8 <xTaskRemoveFromEventList>
87802a2a:	2800      	cmp	r0, #0
87802a2c:	d1f7      	bne.n	87802a1e <xQueueGenericReceive+0x136>
87802a2e:	e7e6      	b.n	878029fe <xQueueGenericReceive+0x116>
87802a30:	6c03      	ldr	r3, [r0, #64]	; 0x40
87802a32:	2b00      	cmp	r3, #0
87802a34:	f43f af64 	beq.w	87802900 <xQueueGenericReceive+0x18>
87802a38:	f001 fbea 	bl	87804210 <ulPortSetInterruptMask>
87802a3c:	e7fe      	b.n	87802a3c <xQueueGenericReceive+0x154>
87802a3e:	bf00      	nop

87802a40 <xQueueTakeMutexRecursive>:
87802a40:	b570      	push	{r4, r5, r6, lr}
87802a42:	4604      	mov	r4, r0
87802a44:	b180      	cbz	r0, 87802a68 <xQueueTakeMutexRecursive+0x28>
87802a46:	460d      	mov	r5, r1
87802a48:	6846      	ldr	r6, [r0, #4]
87802a4a:	f001 f88d 	bl	87803b68 <xTaskGetCurrentTaskHandle>
87802a4e:	4286      	cmp	r6, r0
87802a50:	d00d      	beq.n	87802a6e <xQueueTakeMutexRecursive+0x2e>
87802a52:	2300      	movs	r3, #0
87802a54:	462a      	mov	r2, r5
87802a56:	4619      	mov	r1, r3
87802a58:	4620      	mov	r0, r4
87802a5a:	f7ff ff45 	bl	878028e8 <xQueueGenericReceive>
87802a5e:	b110      	cbz	r0, 87802a66 <xQueueTakeMutexRecursive+0x26>
87802a60:	68e3      	ldr	r3, [r4, #12]
87802a62:	3301      	adds	r3, #1
87802a64:	60e3      	str	r3, [r4, #12]
87802a66:	bd70      	pop	{r4, r5, r6, pc}
87802a68:	f001 fbd2 	bl	87804210 <ulPortSetInterruptMask>
87802a6c:	e7fe      	b.n	87802a6c <xQueueTakeMutexRecursive+0x2c>
87802a6e:	68e3      	ldr	r3, [r4, #12]
87802a70:	2001      	movs	r0, #1
87802a72:	4403      	add	r3, r0
87802a74:	60e3      	str	r3, [r4, #12]
87802a76:	bd70      	pop	{r4, r5, r6, pc}

87802a78 <xQueueReceiveFromISR>:
87802a78:	e92d 43f8 	stmdb	sp!, {r3, r4, r5, r6, r7, r8, r9, lr}
87802a7c:	4605      	mov	r5, r0
87802a7e:	b178      	cbz	r0, 87802aa0 <xQueueReceiveFromISR+0x28>
87802a80:	4689      	mov	r9, r1
87802a82:	4690      	mov	r8, r2
87802a84:	b329      	cbz	r1, 87802ad2 <xQueueReceiveFromISR+0x5a>
87802a86:	f001 fc6f 	bl	87804368 <vPortValidateInterruptPriority>
87802a8a:	f001 fbc1 	bl	87804210 <ulPortSetInterruptMask>
87802a8e:	6bac      	ldr	r4, [r5, #56]	; 0x38
87802a90:	4607      	mov	r7, r0
87802a92:	b944      	cbnz	r4, 87802aa6 <xQueueReceiveFromISR+0x2e>
87802a94:	4638      	mov	r0, r7
87802a96:	f001 fba5 	bl	878041e4 <vPortClearInterruptMask>
87802a9a:	4620      	mov	r0, r4
87802a9c:	e8bd 83f8 	ldmia.w	sp!, {r3, r4, r5, r6, r7, r8, r9, pc}
87802aa0:	f001 fbb6 	bl	87804210 <ulPortSetInterruptMask>
87802aa4:	e7fe      	b.n	87802aa4 <xQueueReceiveFromISR+0x2c>
87802aa6:	f895 6044 	ldrb.w	r6, [r5, #68]	; 0x44
87802aaa:	4649      	mov	r1, r9
87802aac:	4628      	mov	r0, r5
87802aae:	3c01      	subs	r4, #1
87802ab0:	f003 fc68 	bl	87806384 <prvCopyDataFromQueue>
87802ab4:	63ac      	str	r4, [r5, #56]	; 0x38
87802ab6:	b2f6      	uxtb	r6, r6
87802ab8:	2eff      	cmp	r6, #255	; 0xff
87802aba:	d010      	beq.n	87802ade <xQueueReceiveFromISR+0x66>
87802abc:	1c73      	adds	r3, r6, #1
87802abe:	4638      	mov	r0, r7
87802ac0:	b2db      	uxtb	r3, r3
87802ac2:	2401      	movs	r4, #1
87802ac4:	f885 3044 	strb.w	r3, [r5, #68]	; 0x44
87802ac8:	f001 fb8c 	bl	878041e4 <vPortClearInterruptMask>
87802acc:	4620      	mov	r0, r4
87802ace:	e8bd 83f8 	ldmia.w	sp!, {r3, r4, r5, r6, r7, r8, r9, pc}
87802ad2:	6c03      	ldr	r3, [r0, #64]	; 0x40
87802ad4:	2b00      	cmp	r3, #0
87802ad6:	d0d6      	beq.n	87802a86 <xQueueReceiveFromISR+0xe>
87802ad8:	f001 fb9a 	bl	87804210 <ulPortSetInterruptMask>
87802adc:	e7fe      	b.n	87802adc <xQueueReceiveFromISR+0x64>
87802ade:	692b      	ldr	r3, [r5, #16]
87802ae0:	2401      	movs	r4, #1
87802ae2:	2b00      	cmp	r3, #0
87802ae4:	d0d6      	beq.n	87802a94 <xQueueReceiveFromISR+0x1c>
87802ae6:	f105 0010 	add.w	r0, r5, #16
87802aea:	f000 fe5d 	bl	878037a8 <xTaskRemoveFromEventList>
87802aee:	2800      	cmp	r0, #0
87802af0:	bf18      	it	ne
87802af2:	f1b8 0f00 	cmpne.w	r8, #0
87802af6:	4638      	mov	r0, r7
87802af8:	bf18      	it	ne
87802afa:	f8c8 4000 	strne.w	r4, [r8]
87802afe:	f001 fb71 	bl	878041e4 <vPortClearInterruptMask>
87802b02:	4620      	mov	r0, r4
87802b04:	e8bd 83f8 	ldmia.w	sp!, {r3, r4, r5, r6, r7, r8, r9, pc}

87802b08 <xQueuePeekFromISR>:
87802b08:	e92d 41f0 	stmdb	sp!, {r4, r5, r6, r7, r8, lr}
87802b0c:	4604      	mov	r4, r0
87802b0e:	b198      	cbz	r0, 87802b38 <xQueuePeekFromISR+0x30>
87802b10:	460e      	mov	r6, r1
87802b12:	6c03      	ldr	r3, [r0, #64]	; 0x40
87802b14:	b311      	cbz	r1, 87802b5c <xQueuePeekFromISR+0x54>
87802b16:	b913      	cbnz	r3, 87802b1e <xQueuePeekFromISR+0x16>
87802b18:	f001 fb7a 	bl	87804210 <ulPortSetInterruptMask>
87802b1c:	e7fe      	b.n	87802b1c <xQueuePeekFromISR+0x14>
87802b1e:	f001 fc23 	bl	87804368 <vPortValidateInterruptPriority>
87802b22:	f001 fb75 	bl	87804210 <ulPortSetInterruptMask>
87802b26:	6ba5      	ldr	r5, [r4, #56]	; 0x38
87802b28:	4607      	mov	r7, r0
87802b2a:	b945      	cbnz	r5, 87802b3e <xQueuePeekFromISR+0x36>
87802b2c:	4638      	mov	r0, r7
87802b2e:	f001 fb59 	bl	878041e4 <vPortClearInterruptMask>
87802b32:	4628      	mov	r0, r5
87802b34:	e8bd 81f0 	ldmia.w	sp!, {r4, r5, r6, r7, r8, pc}
87802b38:	f001 fb6a 	bl	87804210 <ulPortSetInterruptMask>
87802b3c:	e7fe      	b.n	87802b3c <xQueuePeekFromISR+0x34>
87802b3e:	f8d4 800c 	ldr.w	r8, [r4, #12]
87802b42:	4631      	mov	r1, r6
87802b44:	4620      	mov	r0, r4
87802b46:	2501      	movs	r5, #1
87802b48:	f003 fc1c 	bl	87806384 <prvCopyDataFromQueue>
87802b4c:	4638      	mov	r0, r7
87802b4e:	f8c4 800c 	str.w	r8, [r4, #12]
87802b52:	f001 fb47 	bl	878041e4 <vPortClearInterruptMask>
87802b56:	4628      	mov	r0, r5
87802b58:	e8bd 81f0 	ldmia.w	sp!, {r4, r5, r6, r7, r8, pc}
87802b5c:	2b00      	cmp	r3, #0
87802b5e:	d0db      	beq.n	87802b18 <xQueuePeekFromISR+0x10>
87802b60:	f001 fb56 	bl	87804210 <ulPortSetInterruptMask>
87802b64:	e7fe      	b.n	87802b64 <xQueuePeekFromISR+0x5c>
87802b66:	bf00      	nop

87802b68 <uxQueueMessagesWaiting>:
87802b68:	b510      	push	{r4, lr}
87802b6a:	4604      	mov	r4, r0
87802b6c:	b130      	cbz	r0, 87802b7c <uxQueueMessagesWaiting+0x14>
87802b6e:	f001 fbe3 	bl	87804338 <vPortEnterCritical>
87802b72:	6ba4      	ldr	r4, [r4, #56]	; 0x38
87802b74:	f001 fb0c 	bl	87804190 <vPortExitCritical>
87802b78:	4620      	mov	r0, r4
87802b7a:	bd10      	pop	{r4, pc}
87802b7c:	f001 fb48 	bl	87804210 <ulPortSetInterruptMask>
87802b80:	e7fe      	b.n	87802b80 <uxQueueMessagesWaiting+0x18>
87802b82:	bf00      	nop

87802b84 <uxQueueSpacesAvailable>:
87802b84:	b538      	push	{r3, r4, r5, lr}
87802b86:	4605      	mov	r5, r0
87802b88:	b140      	cbz	r0, 87802b9c <uxQueueSpacesAvailable+0x18>
87802b8a:	f001 fbd5 	bl	87804338 <vPortEnterCritical>
87802b8e:	6bac      	ldr	r4, [r5, #56]	; 0x38
87802b90:	6beb      	ldr	r3, [r5, #60]	; 0x3c
87802b92:	1b1c      	subs	r4, r3, r4
87802b94:	f001 fafc 	bl	87804190 <vPortExitCritical>
87802b98:	4620      	mov	r0, r4
87802b9a:	bd38      	pop	{r3, r4, r5, pc}
87802b9c:	f001 fb38 	bl	87804210 <ulPortSetInterruptMask>
87802ba0:	e7fe      	b.n	87802ba0 <uxQueueSpacesAvailable+0x1c>
87802ba2:	bf00      	nop

87802ba4 <uxQueueMessagesWaitingFromISR>:
87802ba4:	b108      	cbz	r0, 87802baa <uxQueueMessagesWaitingFromISR+0x6>
87802ba6:	6b80      	ldr	r0, [r0, #56]	; 0x38
87802ba8:	4770      	bx	lr
87802baa:	b508      	push	{r3, lr}
87802bac:	f001 fb30 	bl	87804210 <ulPortSetInterruptMask>
87802bb0:	e7fe      	b.n	87802bb0 <uxQueueMessagesWaitingFromISR+0xc>
87802bb2:	bf00      	nop

87802bb4 <vQueueDelete>:
87802bb4:	b510      	push	{r4, lr}
87802bb6:	f248 34a0 	movw	r4, #33696	; 0x83a0
87802bba:	f2c8 7481 	movt	r4, #34689	; 0x8781
87802bbe:	2200      	movs	r2, #0
87802bc0:	4623      	mov	r3, r4
87802bc2:	b1a0      	cbz	r0, 87802bee <vQueueDelete+0x3a>
87802bc4:	6859      	ldr	r1, [r3, #4]
87802bc6:	3308      	adds	r3, #8
87802bc8:	4288      	cmp	r0, r1
87802bca:	d006      	beq.n	87802bda <vQueueDelete+0x26>
87802bcc:	3201      	adds	r2, #1
87802bce:	2a08      	cmp	r2, #8
87802bd0:	d1f8      	bne.n	87802bc4 <vQueueDelete+0x10>
87802bd2:	e8bd 4010 	ldmia.w	sp!, {r4, lr}
87802bd6:	f001 bc9d 	b.w	87804514 <vPortFree>
87802bda:	eb04 01c2 	add.w	r1, r4, r2, lsl #3
87802bde:	2300      	movs	r3, #0
87802be0:	f844 3032 	str.w	r3, [r4, r2, lsl #3]
87802be4:	604b      	str	r3, [r1, #4]
87802be6:	e8bd 4010 	ldmia.w	sp!, {r4, lr}
87802bea:	f001 bc93 	b.w	87804514 <vPortFree>
87802bee:	f001 fb0f 	bl	87804210 <ulPortSetInterruptMask>
87802bf2:	e7fe      	b.n	87802bf2 <vQueueDelete+0x3e>

87802bf4 <uxQueueGetQueueNumber>:
87802bf4:	6c80      	ldr	r0, [r0, #72]	; 0x48
87802bf6:	4770      	bx	lr

87802bf8 <vQueueSetQueueNumber>:
87802bf8:	6481      	str	r1, [r0, #72]	; 0x48
87802bfa:	4770      	bx	lr

87802bfc <ucQueueGetQueueType>:
87802bfc:	f890 004c 	ldrb.w	r0, [r0, #76]	; 0x4c
87802c00:	4770      	bx	lr
87802c02:	bf00      	nop

87802c04 <xQueueIsQueueEmptyFromISR>:
87802c04:	b120      	cbz	r0, 87802c10 <xQueueIsQueueEmptyFromISR+0xc>
87802c06:	6b80      	ldr	r0, [r0, #56]	; 0x38
87802c08:	fab0 f080 	clz	r0, r0
87802c0c:	0940      	lsrs	r0, r0, #5
87802c0e:	4770      	bx	lr
87802c10:	b508      	push	{r3, lr}
87802c12:	f001 fafd 	bl	87804210 <ulPortSetInterruptMask>
87802c16:	e7fe      	b.n	87802c16 <xQueueIsQueueEmptyFromISR+0x12>

87802c18 <xQueueIsQueueFullFromISR>:
87802c18:	b130      	cbz	r0, 87802c28 <xQueueIsQueueFullFromISR+0x10>
87802c1a:	6b82      	ldr	r2, [r0, #56]	; 0x38
87802c1c:	6bc0      	ldr	r0, [r0, #60]	; 0x3c
87802c1e:	1a10      	subs	r0, r2, r0
87802c20:	fab0 f080 	clz	r0, r0
87802c24:	0940      	lsrs	r0, r0, #5
87802c26:	4770      	bx	lr
87802c28:	b508      	push	{r3, lr}
87802c2a:	f001 faf1 	bl	87804210 <ulPortSetInterruptMask>
87802c2e:	e7fe      	b.n	87802c2e <xQueueIsQueueFullFromISR+0x16>

87802c30 <vQueueAddToRegistry>:
87802c30:	b470      	push	{r4, r5, r6}
87802c32:	f248 34a0 	movw	r4, #33696	; 0x83a0
87802c36:	f2c8 7481 	movt	r4, #34689	; 0x8781
87802c3a:	2300      	movs	r3, #0
87802c3c:	f248 32a0 	movw	r2, #33696	; 0x83a0
87802c40:	eb04 06c3 	add.w	r6, r4, r3, lsl #3
87802c44:	f854 5033 	ldr.w	r5, [r4, r3, lsl #3]
87802c48:	f2c8 7281 	movt	r2, #34689	; 0x8781
87802c4c:	b125      	cbz	r5, 87802c58 <vQueueAddToRegistry+0x28>
87802c4e:	3301      	adds	r3, #1
87802c50:	2b08      	cmp	r3, #8
87802c52:	d1f3      	bne.n	87802c3c <vQueueAddToRegistry+0xc>
87802c54:	bc70      	pop	{r4, r5, r6}
87802c56:	4770      	bx	lr
87802c58:	6070      	str	r0, [r6, #4]
87802c5a:	f842 1033 	str.w	r1, [r2, r3, lsl #3]
87802c5e:	bc70      	pop	{r4, r5, r6}
87802c60:	4770      	bx	lr
87802c62:	bf00      	nop

87802c64 <pcQueueGetName>:
87802c64:	b410      	push	{r4}
87802c66:	f248 34a0 	movw	r4, #33696	; 0x83a0
87802c6a:	f2c8 7481 	movt	r4, #34689	; 0x8781
87802c6e:	2200      	movs	r2, #0
87802c70:	4623      	mov	r3, r4
87802c72:	6859      	ldr	r1, [r3, #4]
87802c74:	3308      	adds	r3, #8
87802c76:	4281      	cmp	r1, r0
87802c78:	d006      	beq.n	87802c88 <pcQueueGetName+0x24>
87802c7a:	3201      	adds	r2, #1
87802c7c:	2a08      	cmp	r2, #8
87802c7e:	d1f8      	bne.n	87802c72 <pcQueueGetName+0xe>
87802c80:	2000      	movs	r0, #0
87802c82:	f85d 4b04 	ldr.w	r4, [sp], #4
87802c86:	4770      	bx	lr
87802c88:	f854 0032 	ldr.w	r0, [r4, r2, lsl #3]
87802c8c:	f85d 4b04 	ldr.w	r4, [sp], #4
87802c90:	4770      	bx	lr
87802c92:	bf00      	nop

87802c94 <vQueueUnregisterQueue>:
87802c94:	b410      	push	{r4}
87802c96:	f248 34a0 	movw	r4, #33696	; 0x83a0
87802c9a:	f2c8 7481 	movt	r4, #34689	; 0x8781
87802c9e:	2200      	movs	r2, #0
87802ca0:	4623      	mov	r3, r4
87802ca2:	6859      	ldr	r1, [r3, #4]
87802ca4:	3308      	adds	r3, #8
87802ca6:	4281      	cmp	r1, r0
87802ca8:	d005      	beq.n	87802cb6 <vQueueUnregisterQueue+0x22>
87802caa:	3201      	adds	r2, #1
87802cac:	2a08      	cmp	r2, #8
87802cae:	d1f8      	bne.n	87802ca2 <vQueueUnregisterQueue+0xe>
87802cb0:	f85d 4b04 	ldr.w	r4, [sp], #4
87802cb4:	4770      	bx	lr
87802cb6:	eb04 01c2 	add.w	r1, r4, r2, lsl #3
87802cba:	2300      	movs	r3, #0
87802cbc:	f844 3032 	str.w	r3, [r4, r2, lsl #3]
87802cc0:	604b      	str	r3, [r1, #4]
87802cc2:	f85d 4b04 	ldr.w	r4, [sp], #4
87802cc6:	4770      	bx	lr

87802cc8 <prvAddCurrentTaskToDelayedList>:
87802cc8:	b5f8      	push	{r3, r4, r5, r6, r7, lr}
87802cca:	f24b 2454 	movw	r4, #45652	; 0xb254
87802cce:	f2c8 7480 	movt	r4, #34688	; 0x8780
87802cd2:	4605      	mov	r5, r0
87802cd4:	460f      	mov	r7, r1
87802cd6:	6826      	ldr	r6, [r4, #0]
87802cd8:	6860      	ldr	r0, [r4, #4]
87802cda:	3004      	adds	r0, #4
87802cdc:	f7ff fb84 	bl	878023e8 <uxListRemove>
87802ce0:	b938      	cbnz	r0, 87802cf2 <prvAddCurrentTaskToDelayedList+0x2a>
87802ce2:	6861      	ldr	r1, [r4, #4]
87802ce4:	2301      	movs	r3, #1
87802ce6:	68a2      	ldr	r2, [r4, #8]
87802ce8:	6ac9      	ldr	r1, [r1, #44]	; 0x2c
87802cea:	408b      	lsls	r3, r1
87802cec:	ea22 0303 	bic.w	r3, r2, r3
87802cf0:	60a3      	str	r3, [r4, #8]
87802cf2:	f1a5 33ff 	sub.w	r3, r5, #4294967295	; 0xffffffff
87802cf6:	2f00      	cmp	r7, #0
87802cf8:	fab3 f383 	clz	r3, r3
87802cfc:	ea4f 1353 	mov.w	r3, r3, lsr #5
87802d00:	bf08      	it	eq
87802d02:	2300      	moveq	r3, #0
87802d04:	b9cb      	cbnz	r3, 87802d3a <prvAddCurrentTaskToDelayedList+0x72>
87802d06:	6863      	ldr	r3, [r4, #4]
87802d08:	19ac      	adds	r4, r5, r6
87802d0a:	42a6      	cmp	r6, r4
87802d0c:	f24b 2554 	movw	r5, #45652	; 0xb254
87802d10:	f2c8 7580 	movt	r5, #34688	; 0x8780
87802d14:	605c      	str	r4, [r3, #4]
87802d16:	d809      	bhi.n	87802d2c <prvAddCurrentTaskToDelayedList+0x64>
87802d18:	6a68      	ldr	r0, [r5, #36]	; 0x24
87802d1a:	6869      	ldr	r1, [r5, #4]
87802d1c:	3104      	adds	r1, #4
87802d1e:	f7ff fb49 	bl	878023b4 <vListInsert>
87802d22:	6aab      	ldr	r3, [r5, #40]	; 0x28
87802d24:	429c      	cmp	r4, r3
87802d26:	bf38      	it	cc
87802d28:	62ac      	strcc	r4, [r5, #40]	; 0x28
87802d2a:	bdf8      	pop	{r3, r4, r5, r6, r7, pc}
87802d2c:	6a28      	ldr	r0, [r5, #32]
87802d2e:	6869      	ldr	r1, [r5, #4]
87802d30:	e8bd 40f8 	ldmia.w	sp!, {r3, r4, r5, r6, r7, lr}
87802d34:	3104      	adds	r1, #4
87802d36:	f7ff bb3d 	b.w	878023b4 <vListInsert>
87802d3a:	6861      	ldr	r1, [r4, #4]
87802d3c:	4802      	ldr	r0, [pc, #8]	; (87802d48 <prvAddCurrentTaskToDelayedList+0x80>)
87802d3e:	e8bd 40f8 	ldmia.w	sp!, {r3, r4, r5, r6, r7, lr}
87802d42:	3104      	adds	r1, #4
87802d44:	f7ff bb26 	b.w	87802394 <vListInsertEnd>
87802d48:	8780b260 	strhi	fp, [r0, r0, ror #4]

87802d4c <prvResetNextTaskUnblockTime>:
87802d4c:	f24b 2354 	movw	r3, #45652	; 0xb254
87802d50:	f2c8 7380 	movt	r3, #34688	; 0x8780
87802d54:	6a5a      	ldr	r2, [r3, #36]	; 0x24
87802d56:	6812      	ldr	r2, [r2, #0]
87802d58:	b91a      	cbnz	r2, 87802d62 <prvResetNextTaskUnblockTime+0x16>
87802d5a:	f04f 32ff 	mov.w	r2, #4294967295	; 0xffffffff
87802d5e:	629a      	str	r2, [r3, #40]	; 0x28
87802d60:	4770      	bx	lr
87802d62:	6a5a      	ldr	r2, [r3, #36]	; 0x24
87802d64:	68d2      	ldr	r2, [r2, #12]
87802d66:	68d2      	ldr	r2, [r2, #12]
87802d68:	6852      	ldr	r2, [r2, #4]
87802d6a:	629a      	str	r2, [r3, #40]	; 0x28
87802d6c:	4770      	bx	lr
87802d6e:	bf00      	nop

87802d70 <prvTaskIsTaskSuspended>:
87802d70:	b508      	push	{r3, lr}
87802d72:	b170      	cbz	r0, 87802d92 <prvTaskIsTaskSuspended+0x22>
87802d74:	4a08      	ldr	r2, [pc, #32]	; (87802d98 <prvTaskIsTaskSuspended+0x28>)
87802d76:	6943      	ldr	r3, [r0, #20]
87802d78:	4293      	cmp	r3, r2
87802d7a:	d001      	beq.n	87802d80 <prvTaskIsTaskSuspended+0x10>
87802d7c:	2000      	movs	r0, #0
87802d7e:	bd08      	pop	{r3, pc}
87802d80:	6a82      	ldr	r2, [r0, #40]	; 0x28
87802d82:	3320      	adds	r3, #32
87802d84:	1ad0      	subs	r0, r2, r3
87802d86:	bf18      	it	ne
87802d88:	2001      	movne	r0, #1
87802d8a:	2a00      	cmp	r2, #0
87802d8c:	bf18      	it	ne
87802d8e:	2000      	movne	r0, #0
87802d90:	bd08      	pop	{r3, pc}
87802d92:	f001 fa3d 	bl	87804210 <ulPortSetInterruptMask>
87802d96:	e7fe      	b.n	87802d96 <prvTaskIsTaskSuspended+0x26>
87802d98:	8780b260 	strhi	fp, [r0, r0, ror #4]

87802d9c <xTaskCreate>:
87802d9c:	e92d 4ff8 	stmdb	sp!, {r3, r4, r5, r6, r7, r8, r9, sl, fp, lr}
87802da0:	ea4f 0882 	mov.w	r8, r2, lsl #2
87802da4:	4606      	mov	r6, r0
87802da6:	4640      	mov	r0, r8
87802da8:	4689      	mov	r9, r1
87802daa:	461f      	mov	r7, r3
87802dac:	f001 fb22 	bl	878043f4 <pvPortMalloc>
87802db0:	4605      	mov	r5, r0
87802db2:	2800      	cmp	r0, #0
87802db4:	f000 8094 	beq.w	87802ee0 <xTaskCreate+0x144>
87802db8:	2078      	movs	r0, #120	; 0x78
87802dba:	f001 fb1b 	bl	878043f4 <pvPortMalloc>
87802dbe:	4604      	mov	r4, r0
87802dc0:	2800      	cmp	r0, #0
87802dc2:	f000 808a 	beq.w	87802eda <xTaskCreate+0x13e>
87802dc6:	4642      	mov	r2, r8
87802dc8:	6305      	str	r5, [r0, #48]	; 0x30
87802dca:	21a5      	movs	r1, #165	; 0xa5
87802dcc:	4628      	mov	r0, r5
87802dce:	f001 fe39 	bl	87804a44 <memset>
87802dd2:	6b20      	ldr	r0, [r4, #48]	; 0x30
87802dd4:	f1a8 0804 	sub.w	r8, r8, #4
87802dd8:	f109 33ff 	add.w	r3, r9, #4294967295	; 0xffffffff
87802ddc:	f109 0113 	add.w	r1, r9, #19
87802de0:	f104 0233 	add.w	r2, r4, #51	; 0x33
87802de4:	4480      	add	r8, r0
87802de6:	f028 0807 	bic.w	r8, r8, #7
87802dea:	f8c4 8048 	str.w	r8, [r4, #72]	; 0x48
87802dee:	f813 0f01 	ldrb.w	r0, [r3, #1]!
87802df2:	f802 0f01 	strb.w	r0, [r2, #1]!
87802df6:	7818      	ldrb	r0, [r3, #0]
87802df8:	b108      	cbz	r0, 87802dfe <xTaskCreate+0x62>
87802dfa:	428b      	cmp	r3, r1
87802dfc:	d1f7      	bne.n	87802dee <xTaskCreate+0x52>
87802dfe:	9b0a      	ldr	r3, [sp, #40]	; 0x28
87802e00:	2500      	movs	r5, #0
87802e02:	f104 0a04 	add.w	sl, r4, #4
87802e06:	f884 5047 	strb.w	r5, [r4, #71]	; 0x47
87802e0a:	4650      	mov	r0, sl
87802e0c:	65a5      	str	r5, [r4, #88]	; 0x58
87802e0e:	2b04      	cmp	r3, #4
87802e10:	bf28      	it	cs
87802e12:	2304      	movcs	r3, #4
87802e14:	62e3      	str	r3, [r4, #44]	; 0x2c
87802e16:	469b      	mov	fp, r3
87802e18:	6563      	str	r3, [r4, #84]	; 0x54
87802e1a:	f7ff fab7 	bl	8780238c <vListInitialiseItem>
87802e1e:	f104 0018 	add.w	r0, r4, #24
87802e22:	f7ff fab3 	bl	8780238c <vListInitialiseItem>
87802e26:	f1cb 0305 	rsb	r3, fp, #5
87802e2a:	6725      	str	r5, [r4, #112]	; 0x70
87802e2c:	61a3      	str	r3, [r4, #24]
87802e2e:	463a      	mov	r2, r7
87802e30:	65e5      	str	r5, [r4, #92]	; 0x5c
87802e32:	4631      	mov	r1, r6
87802e34:	6625      	str	r5, [r4, #96]	; 0x60
87802e36:	4640      	mov	r0, r8
87802e38:	6665      	str	r5, [r4, #100]	; 0x64
87802e3a:	66a5      	str	r5, [r4, #104]	; 0x68
87802e3c:	66e5      	str	r5, [r4, #108]	; 0x6c
87802e3e:	f884 5074 	strb.w	r5, [r4, #116]	; 0x74
87802e42:	6124      	str	r4, [r4, #16]
87802e44:	6264      	str	r4, [r4, #36]	; 0x24
87802e46:	f001 f951 	bl	878040ec <pxPortInitialiseStack>
87802e4a:	9b0b      	ldr	r3, [sp, #44]	; 0x2c
87802e4c:	6020      	str	r0, [r4, #0]
87802e4e:	b103      	cbz	r3, 87802e52 <xTaskCreate+0xb6>
87802e50:	601c      	str	r4, [r3, #0]
87802e52:	f24b 2554 	movw	r5, #45652	; 0xb254
87802e56:	f2c8 7580 	movt	r5, #34688	; 0x8780
87802e5a:	f001 fa6d 	bl	87804338 <vPortEnterCritical>
87802e5e:	6c2b      	ldr	r3, [r5, #64]	; 0x40
87802e60:	3301      	adds	r3, #1
87802e62:	642b      	str	r3, [r5, #64]	; 0x40
87802e64:	686b      	ldr	r3, [r5, #4]
87802e66:	2b00      	cmp	r3, #0
87802e68:	d03e      	beq.n	87802ee8 <xTaskCreate+0x14c>
87802e6a:	f8d5 30e4 	ldr.w	r3, [r5, #228]	; 0xe4
87802e6e:	b35b      	cbz	r3, 87802ec8 <xTaskCreate+0x12c>
87802e70:	6ae2      	ldr	r2, [r4, #44]	; 0x2c
87802e72:	f105 0844 	add.w	r8, r5, #68	; 0x44
87802e76:	f8d5 30e8 	ldr.w	r3, [r5, #232]	; 0xe8
87802e7a:	0110      	lsls	r0, r2, #4
87802e7c:	68af      	ldr	r7, [r5, #8]
87802e7e:	2601      	movs	r6, #1
87802e80:	fa06 fe02 	lsl.w	lr, r6, r2
87802e84:	eb00 0082 	add.w	r0, r0, r2, lsl #2
87802e88:	4433      	add	r3, r6
87802e8a:	ea4e 0707 	orr.w	r7, lr, r7
87802e8e:	64e3      	str	r3, [r4, #76]	; 0x4c
87802e90:	4651      	mov	r1, sl
87802e92:	4440      	add	r0, r8
87802e94:	f8c5 30e8 	str.w	r3, [r5, #232]	; 0xe8
87802e98:	60af      	str	r7, [r5, #8]
87802e9a:	f24b 2754 	movw	r7, #45652	; 0xb254
87802e9e:	f7ff fa79 	bl	87802394 <vListInsertEnd>
87802ea2:	f001 f975 	bl	87804190 <vPortExitCritical>
87802ea6:	f8d5 30e4 	ldr.w	r3, [r5, #228]	; 0xe4
87802eaa:	f2c8 7780 	movt	r7, #34688	; 0x8780
87802eae:	b143      	cbz	r3, 87802ec2 <xTaskCreate+0x126>
87802eb0:	687a      	ldr	r2, [r7, #4]
87802eb2:	6ae3      	ldr	r3, [r4, #44]	; 0x2c
87802eb4:	6ad2      	ldr	r2, [r2, #44]	; 0x2c
87802eb6:	429a      	cmp	r2, r3
87802eb8:	d203      	bcs.n	87802ec2 <xTaskCreate+0x126>
87802eba:	df00      	svc	0
87802ebc:	4630      	mov	r0, r6
87802ebe:	e8bd 8ff8 	ldmia.w	sp!, {r3, r4, r5, r6, r7, r8, r9, sl, fp, pc}
87802ec2:	4630      	mov	r0, r6
87802ec4:	e8bd 8ff8 	ldmia.w	sp!, {r3, r4, r5, r6, r7, r8, r9, sl, fp, pc}
87802ec8:	686b      	ldr	r3, [r5, #4]
87802eca:	f105 0844 	add.w	r8, r5, #68	; 0x44
87802ece:	6ae2      	ldr	r2, [r4, #44]	; 0x2c
87802ed0:	6adb      	ldr	r3, [r3, #44]	; 0x2c
87802ed2:	4293      	cmp	r3, r2
87802ed4:	bf98      	it	ls
87802ed6:	606c      	strls	r4, [r5, #4]
87802ed8:	e7cd      	b.n	87802e76 <xTaskCreate+0xda>
87802eda:	4628      	mov	r0, r5
87802edc:	f001 fb1a 	bl	87804514 <vPortFree>
87802ee0:	f04f 30ff 	mov.w	r0, #4294967295	; 0xffffffff
87802ee4:	e8bd 8ff8 	ldmia.w	sp!, {r3, r4, r5, r6, r7, r8, r9, sl, fp, pc}
87802ee8:	606c      	str	r4, [r5, #4]
87802eea:	6c2b      	ldr	r3, [r5, #64]	; 0x40
87802eec:	2b01      	cmp	r3, #1
87802eee:	d1bf      	bne.n	87802e70 <xTaskCreate+0xd4>
87802ef0:	f105 0844 	add.w	r8, r5, #68	; 0x44
87802ef4:	f105 09a8 	add.w	r9, r5, #168	; 0xa8
87802ef8:	4646      	mov	r6, r8
87802efa:	464f      	mov	r7, r9
87802efc:	4630      	mov	r0, r6
87802efe:	3614      	adds	r6, #20
87802f00:	f7ff fa38 	bl	87802374 <vListInitialise>
87802f04:	42be      	cmp	r6, r7
87802f06:	d1f9      	bne.n	87802efc <xTaskCreate+0x160>
87802f08:	4e0c      	ldr	r6, [pc, #48]	; (87802f3c <xTaskCreate+0x1a0>)
87802f0a:	f1a6 0014 	sub.w	r0, r6, #20
87802f0e:	f7ff fa31 	bl	87802374 <vListInitialise>
87802f12:	4630      	mov	r0, r6
87802f14:	f7ff fa2e 	bl	87802374 <vListInitialise>
87802f18:	f1a6 0090 	sub.w	r0, r6, #144	; 0x90
87802f1c:	f7ff fa2a 	bl	87802374 <vListInitialise>
87802f20:	f106 0014 	add.w	r0, r6, #20
87802f24:	f7ff fa26 	bl	87802374 <vListInitialise>
87802f28:	f1a6 00b0 	sub.w	r0, r6, #176	; 0xb0
87802f2c:	f7ff fa22 	bl	87802374 <vListInitialise>
87802f30:	f8c5 9024 	str.w	r9, [r5, #36]	; 0x24
87802f34:	6ae2      	ldr	r2, [r4, #44]	; 0x2c
87802f36:	622e      	str	r6, [r5, #32]
87802f38:	e79d      	b.n	87802e76 <xTaskCreate+0xda>
87802f3a:	bf00      	nop
87802f3c:	8780b310 	usada8hi	r0, r0, r3, fp

87802f40 <vTaskDelete>:
87802f40:	b5f8      	push	{r3, r4, r5, r6, r7, lr}
87802f42:	4605      	mov	r5, r0
87802f44:	f24b 2454 	movw	r4, #45652	; 0xb254
87802f48:	f2c8 7480 	movt	r4, #34688	; 0x8780
87802f4c:	f001 f9f4 	bl	87804338 <vPortEnterCritical>
87802f50:	2d00      	cmp	r5, #0
87802f52:	d041      	beq.n	87802fd8 <vTaskDelete+0x98>
87802f54:	1d2f      	adds	r7, r5, #4
87802f56:	4638      	mov	r0, r7
87802f58:	f7ff fa46 	bl	878023e8 <uxListRemove>
87802f5c:	b950      	cbnz	r0, 87802f74 <vTaskDelete+0x34>
87802f5e:	6ae8      	ldr	r0, [r5, #44]	; 0x2c
87802f60:	f24b 2254 	movw	r2, #45652	; 0xb254
87802f64:	f2c8 7280 	movt	r2, #34688	; 0x8780
87802f68:	0103      	lsls	r3, r0, #4
87802f6a:	eb03 0380 	add.w	r3, r3, r0, lsl #2
87802f6e:	4423      	add	r3, r4
87802f70:	6c5b      	ldr	r3, [r3, #68]	; 0x44
87802f72:	b353      	cbz	r3, 87802fca <vTaskDelete+0x8a>
87802f74:	6aab      	ldr	r3, [r5, #40]	; 0x28
87802f76:	b11b      	cbz	r3, 87802f80 <vTaskDelete+0x40>
87802f78:	f105 0018 	add.w	r0, r5, #24
87802f7c:	f7ff fa34 	bl	878023e8 <uxListRemove>
87802f80:	6862      	ldr	r2, [r4, #4]
87802f82:	f24b 2654 	movw	r6, #45652	; 0xb254
87802f86:	f8d4 30e8 	ldr.w	r3, [r4, #232]	; 0xe8
87802f8a:	f2c8 7680 	movt	r6, #34688	; 0x8780
87802f8e:	4295      	cmp	r5, r2
87802f90:	f103 0301 	add.w	r3, r3, #1
87802f94:	f8c4 30e8 	str.w	r3, [r4, #232]	; 0xe8
87802f98:	d020      	beq.n	87802fdc <vTaskDelete+0x9c>
87802f9a:	6c33      	ldr	r3, [r6, #64]	; 0x40
87802f9c:	6b28      	ldr	r0, [r5, #48]	; 0x30
87802f9e:	3b01      	subs	r3, #1
87802fa0:	6433      	str	r3, [r6, #64]	; 0x40
87802fa2:	f001 fab7 	bl	87804514 <vPortFree>
87802fa6:	4628      	mov	r0, r5
87802fa8:	f001 fab4 	bl	87804514 <vPortFree>
87802fac:	f7ff fece 	bl	87802d4c <prvResetNextTaskUnblockTime>
87802fb0:	f001 f8ee 	bl	87804190 <vPortExitCritical>
87802fb4:	f8d4 20e4 	ldr.w	r2, [r4, #228]	; 0xe4
87802fb8:	f24b 2354 	movw	r3, #45652	; 0xb254
87802fbc:	f2c8 7380 	movt	r3, #34688	; 0x8780
87802fc0:	b112      	cbz	r2, 87802fc8 <vTaskDelete+0x88>
87802fc2:	685a      	ldr	r2, [r3, #4]
87802fc4:	4295      	cmp	r5, r2
87802fc6:	d014      	beq.n	87802ff2 <vTaskDelete+0xb2>
87802fc8:	bdf8      	pop	{r3, r4, r5, r6, r7, pc}
87802fca:	6893      	ldr	r3, [r2, #8]
87802fcc:	2101      	movs	r1, #1
87802fce:	4081      	lsls	r1, r0
87802fd0:	ea23 0301 	bic.w	r3, r3, r1
87802fd4:	6093      	str	r3, [r2, #8]
87802fd6:	e7cd      	b.n	87802f74 <vTaskDelete+0x34>
87802fd8:	6865      	ldr	r5, [r4, #4]
87802fda:	e7bb      	b.n	87802f54 <vTaskDelete+0x14>
87802fdc:	4639      	mov	r1, r7
87802fde:	f106 00d0 	add.w	r0, r6, #208	; 0xd0
87802fe2:	f7ff f9d7 	bl	87802394 <vListInsertEnd>
87802fe6:	f8d6 30ec 	ldr.w	r3, [r6, #236]	; 0xec
87802fea:	3301      	adds	r3, #1
87802fec:	f8c6 30ec 	str.w	r3, [r6, #236]	; 0xec
87802ff0:	e7de      	b.n	87802fb0 <vTaskDelete+0x70>
87802ff2:	f8d3 30f0 	ldr.w	r3, [r3, #240]	; 0xf0
87802ff6:	b90b      	cbnz	r3, 87802ffc <vTaskDelete+0xbc>
87802ff8:	df00      	svc	0
87802ffa:	bdf8      	pop	{r3, r4, r5, r6, r7, pc}
87802ffc:	f001 f908 	bl	87804210 <ulPortSetInterruptMask>
87803000:	e7fe      	b.n	87803000 <vTaskDelete+0xc0>
87803002:	bf00      	nop

87803004 <eTaskGetState>:
87803004:	b570      	push	{r4, r5, r6, lr}
87803006:	4606      	mov	r6, r0
87803008:	b338      	cbz	r0, 8780305a <eTaskGetState+0x56>
8780300a:	f24b 2454 	movw	r4, #45652	; 0xb254
8780300e:	f2c8 7480 	movt	r4, #34688	; 0x8780
87803012:	6863      	ldr	r3, [r4, #4]
87803014:	4298      	cmp	r0, r3
87803016:	d018      	beq.n	8780304a <eTaskGetState+0x46>
87803018:	f001 f98e 	bl	87804338 <vPortEnterCritical>
8780301c:	6975      	ldr	r5, [r6, #20]
8780301e:	f001 f8b7 	bl	87804190 <vPortExitCritical>
87803022:	6a63      	ldr	r3, [r4, #36]	; 0x24
87803024:	429d      	cmp	r5, r3
87803026:	d00e      	beq.n	87803046 <eTaskGetState+0x42>
87803028:	6a23      	ldr	r3, [r4, #32]
8780302a:	429d      	cmp	r5, r3
8780302c:	d00b      	beq.n	87803046 <eTaskGetState+0x42>
8780302e:	f104 030c 	add.w	r3, r4, #12
87803032:	429d      	cmp	r5, r3
87803034:	d00b      	beq.n	8780304e <eTaskGetState+0x4a>
87803036:	34d0      	adds	r4, #208	; 0xd0
87803038:	2d00      	cmp	r5, #0
8780303a:	bf18      	it	ne
8780303c:	42a5      	cmpne	r5, r4
8780303e:	bf0c      	ite	eq
87803040:	2004      	moveq	r0, #4
87803042:	2001      	movne	r0, #1
87803044:	bd70      	pop	{r4, r5, r6, pc}
87803046:	2002      	movs	r0, #2
87803048:	bd70      	pop	{r4, r5, r6, pc}
8780304a:	2000      	movs	r0, #0
8780304c:	bd70      	pop	{r4, r5, r6, pc}
8780304e:	6ab3      	ldr	r3, [r6, #40]	; 0x28
87803050:	2b00      	cmp	r3, #0
87803052:	bf0c      	ite	eq
87803054:	2003      	moveq	r0, #3
87803056:	2002      	movne	r0, #2
87803058:	bd70      	pop	{r4, r5, r6, pc}
8780305a:	f001 f8d9 	bl	87804210 <ulPortSetInterruptMask>
8780305e:	e7fe      	b.n	8780305e <eTaskGetState+0x5a>

87803060 <uxTaskPriorityGet>:
87803060:	b510      	push	{r4, lr}
87803062:	4604      	mov	r4, r0
87803064:	f001 f968 	bl	87804338 <vPortEnterCritical>
87803068:	b124      	cbz	r4, 87803074 <uxTaskPriorityGet+0x14>
8780306a:	6ae4      	ldr	r4, [r4, #44]	; 0x2c
8780306c:	f001 f890 	bl	87804190 <vPortExitCritical>
87803070:	4620      	mov	r0, r4
87803072:	bd10      	pop	{r4, pc}
87803074:	f24b 2354 	movw	r3, #45652	; 0xb254
87803078:	f2c8 7380 	movt	r3, #34688	; 0x8780
8780307c:	685c      	ldr	r4, [r3, #4]
8780307e:	6ae4      	ldr	r4, [r4, #44]	; 0x2c
87803080:	f001 f886 	bl	87804190 <vPortExitCritical>
87803084:	4620      	mov	r0, r4
87803086:	bd10      	pop	{r4, pc}

87803088 <uxTaskPriorityGetFromISR>:
87803088:	b510      	push	{r4, lr}
8780308a:	4604      	mov	r4, r0
8780308c:	f001 f96c 	bl	87804368 <vPortValidateInterruptPriority>
87803090:	f001 f8be 	bl	87804210 <ulPortSetInterruptMask>
87803094:	b124      	cbz	r4, 878030a0 <uxTaskPriorityGetFromISR+0x18>
87803096:	6ae4      	ldr	r4, [r4, #44]	; 0x2c
87803098:	f001 f8a4 	bl	878041e4 <vPortClearInterruptMask>
8780309c:	4620      	mov	r0, r4
8780309e:	bd10      	pop	{r4, pc}
878030a0:	f24b 2354 	movw	r3, #45652	; 0xb254
878030a4:	f2c8 7380 	movt	r3, #34688	; 0x8780
878030a8:	685c      	ldr	r4, [r3, #4]
878030aa:	6ae4      	ldr	r4, [r4, #44]	; 0x2c
878030ac:	f001 f89a 	bl	878041e4 <vPortClearInterruptMask>
878030b0:	4620      	mov	r0, r4
878030b2:	bd10      	pop	{r4, pc}

878030b4 <vTaskPrioritySet>:
878030b4:	2904      	cmp	r1, #4
878030b6:	e92d 47f0 	stmdb	sp!, {r4, r5, r6, r7, r8, r9, sl, lr}
878030ba:	460e      	mov	r6, r1
878030bc:	d83d      	bhi.n	8780313a <vTaskPrioritySet+0x86>
878030be:	4604      	mov	r4, r0
878030c0:	f001 f93a 	bl	87804338 <vPortEnterCritical>
878030c4:	2c00      	cmp	r4, #0
878030c6:	d03b      	beq.n	87803140 <vTaskPrioritySet+0x8c>
878030c8:	6d63      	ldr	r3, [r4, #84]	; 0x54
878030ca:	429e      	cmp	r6, r3
878030cc:	d02b      	beq.n	87803126 <vTaskPrioritySet+0x72>
878030ce:	f24b 2554 	movw	r5, #45652	; 0xb254
878030d2:	f2c8 7580 	movt	r5, #34688	; 0x8780
878030d6:	d92a      	bls.n	8780312e <vTaskPrioritySet+0x7a>
878030d8:	686a      	ldr	r2, [r5, #4]
878030da:	4294      	cmp	r4, r2
878030dc:	bf08      	it	eq
878030de:	2700      	moveq	r7, #0
878030e0:	d005      	beq.n	878030ee <vTaskPrioritySet+0x3a>
878030e2:	686a      	ldr	r2, [r5, #4]
878030e4:	6ad7      	ldr	r7, [r2, #44]	; 0x2c
878030e6:	42be      	cmp	r6, r7
878030e8:	bf34      	ite	cc
878030ea:	2700      	movcc	r7, #0
878030ec:	2701      	movcs	r7, #1
878030ee:	f8d4 802c 	ldr.w	r8, [r4, #44]	; 0x2c
878030f2:	6566      	str	r6, [r4, #84]	; 0x54
878030f4:	6962      	ldr	r2, [r4, #20]
878030f6:	4543      	cmp	r3, r8
878030f8:	69a3      	ldr	r3, [r4, #24]
878030fa:	bf08      	it	eq
878030fc:	62e6      	streq	r6, [r4, #44]	; 0x2c
878030fe:	2b00      	cmp	r3, #0
87803100:	ea4f 1308 	mov.w	r3, r8, lsl #4
87803104:	bfa4      	itt	ge
87803106:	f1c6 0605 	rsbge	r6, r6, #5
8780310a:	61a6      	strge	r6, [r4, #24]
8780310c:	f24b 2654 	movw	r6, #45652	; 0xb254
87803110:	f2c8 7680 	movt	r6, #34688	; 0x8780
87803114:	eb03 0388 	add.w	r3, r3, r8, lsl #2
87803118:	f106 0944 	add.w	r9, r6, #68	; 0x44
8780311c:	444b      	add	r3, r9
8780311e:	429a      	cmp	r2, r3
87803120:	d014      	beq.n	8780314c <vTaskPrioritySet+0x98>
87803122:	b107      	cbz	r7, 87803126 <vTaskPrioritySet+0x72>
87803124:	df00      	svc	0
87803126:	e8bd 47f0 	ldmia.w	sp!, {r4, r5, r6, r7, r8, r9, sl, lr}
8780312a:	f001 b831 	b.w	87804190 <vPortExitCritical>
8780312e:	686f      	ldr	r7, [r5, #4]
87803130:	1be7      	subs	r7, r4, r7
87803132:	fab7 f787 	clz	r7, r7
87803136:	097f      	lsrs	r7, r7, #5
87803138:	e7d9      	b.n	878030ee <vTaskPrioritySet+0x3a>
8780313a:	f001 f869 	bl	87804210 <ulPortSetInterruptMask>
8780313e:	e7fe      	b.n	8780313e <vTaskPrioritySet+0x8a>
87803140:	f24b 2354 	movw	r3, #45652	; 0xb254
87803144:	f2c8 7380 	movt	r3, #34688	; 0x8780
87803148:	685c      	ldr	r4, [r3, #4]
8780314a:	e7bd      	b.n	878030c8 <vTaskPrioritySet+0x14>
8780314c:	f104 0a04 	add.w	sl, r4, #4
87803150:	4650      	mov	r0, sl
87803152:	f7ff f949 	bl	878023e8 <uxListRemove>
87803156:	b930      	cbnz	r0, 87803166 <vTaskPrioritySet+0xb2>
87803158:	68b3      	ldr	r3, [r6, #8]
8780315a:	2201      	movs	r2, #1
8780315c:	fa02 f208 	lsl.w	r2, r2, r8
87803160:	ea23 0302 	bic.w	r3, r3, r2
87803164:	60b3      	str	r3, [r6, #8]
87803166:	6ae0      	ldr	r0, [r4, #44]	; 0x2c
87803168:	2401      	movs	r4, #1
8780316a:	68aa      	ldr	r2, [r5, #8]
8780316c:	4651      	mov	r1, sl
8780316e:	0103      	lsls	r3, r0, #4
87803170:	4084      	lsls	r4, r0
87803172:	eb03 0080 	add.w	r0, r3, r0, lsl #2
87803176:	ea44 0302 	orr.w	r3, r4, r2
8780317a:	60ab      	str	r3, [r5, #8]
8780317c:	4448      	add	r0, r9
8780317e:	f7ff f909 	bl	87802394 <vListInsertEnd>
87803182:	e7ce      	b.n	87803122 <vTaskPrioritySet+0x6e>

87803184 <vTaskResume>:
87803184:	e92d 41f0 	stmdb	sp!, {r4, r5, r6, r7, r8, lr}
87803188:	4605      	mov	r5, r0
8780318a:	b380      	cbz	r0, 878031ee <vTaskResume+0x6a>
8780318c:	f24b 2454 	movw	r4, #45652	; 0xb254
87803190:	f2c8 7480 	movt	r4, #34688	; 0x8780
87803194:	6863      	ldr	r3, [r4, #4]
87803196:	4298      	cmp	r0, r3
87803198:	d009      	beq.n	878031ae <vTaskResume+0x2a>
8780319a:	f001 f8cd 	bl	87804338 <vPortEnterCritical>
8780319e:	4628      	mov	r0, r5
878031a0:	f7ff fde6 	bl	87802d70 <prvTaskIsTaskSuspended>
878031a4:	b928      	cbnz	r0, 878031b2 <vTaskResume+0x2e>
878031a6:	e8bd 41f0 	ldmia.w	sp!, {r4, r5, r6, r7, r8, lr}
878031aa:	f000 bff1 	b.w	87804190 <vPortExitCritical>
878031ae:	e8bd 81f0 	ldmia.w	sp!, {r4, r5, r6, r7, r8, pc}
878031b2:	f105 0804 	add.w	r8, r5, #4
878031b6:	2601      	movs	r6, #1
878031b8:	4640      	mov	r0, r8
878031ba:	f7ff f915 	bl	878023e8 <uxListRemove>
878031be:	6aef      	ldr	r7, [r5, #44]	; 0x2c
878031c0:	f104 0044 	add.w	r0, r4, #68	; 0x44
878031c4:	68a2      	ldr	r2, [r4, #8]
878031c6:	4641      	mov	r1, r8
878031c8:	013b      	lsls	r3, r7, #4
878031ca:	40be      	lsls	r6, r7
878031cc:	eb03 0387 	add.w	r3, r3, r7, lsl #2
878031d0:	4332      	orrs	r2, r6
878031d2:	60a2      	str	r2, [r4, #8]
878031d4:	4418      	add	r0, r3
878031d6:	f7ff f8dd 	bl	87802394 <vListInsertEnd>
878031da:	6863      	ldr	r3, [r4, #4]
878031dc:	6aea      	ldr	r2, [r5, #44]	; 0x2c
878031de:	6adb      	ldr	r3, [r3, #44]	; 0x2c
878031e0:	429a      	cmp	r2, r3
878031e2:	d3e0      	bcc.n	878031a6 <vTaskResume+0x22>
878031e4:	df00      	svc	0
878031e6:	e8bd 41f0 	ldmia.w	sp!, {r4, r5, r6, r7, r8, lr}
878031ea:	f000 bfd1 	b.w	87804190 <vPortExitCritical>
878031ee:	f001 f80f 	bl	87804210 <ulPortSetInterruptMask>
878031f2:	e7fe      	b.n	878031f2 <vTaskResume+0x6e>

878031f4 <xTaskResumeFromISR>:
878031f4:	e92d 41f0 	stmdb	sp!, {r4, r5, r6, r7, r8, lr}
878031f8:	4606      	mov	r6, r0
878031fa:	2800      	cmp	r0, #0
878031fc:	d03e      	beq.n	8780327c <xTaskResumeFromISR+0x88>
878031fe:	f001 f8b3 	bl	87804368 <vPortValidateInterruptPriority>
87803202:	f001 f805 	bl	87804210 <ulPortSetInterruptMask>
87803206:	4607      	mov	r7, r0
87803208:	4630      	mov	r0, r6
8780320a:	f7ff fdb1 	bl	87802d70 <prvTaskIsTaskSuspended>
8780320e:	4604      	mov	r4, r0
87803210:	b308      	cbz	r0, 87803256 <xTaskResumeFromISR+0x62>
87803212:	f24b 2554 	movw	r5, #45652	; 0xb254
87803216:	f2c8 7580 	movt	r5, #34688	; 0x8780
8780321a:	f8d5 30f0 	ldr.w	r3, [r5, #240]	; 0xf0
8780321e:	bb03      	cbnz	r3, 87803262 <xTaskResumeFromISR+0x6e>
87803220:	686b      	ldr	r3, [r5, #4]
87803222:	f106 0804 	add.w	r8, r6, #4
87803226:	6af4      	ldr	r4, [r6, #44]	; 0x2c
87803228:	4640      	mov	r0, r8
8780322a:	6adb      	ldr	r3, [r3, #44]	; 0x2c
8780322c:	429c      	cmp	r4, r3
8780322e:	bf34      	ite	cc
87803230:	2400      	movcc	r4, #0
87803232:	2401      	movcs	r4, #1
87803234:	f7ff f8d8 	bl	878023e8 <uxListRemove>
87803238:	6af0      	ldr	r0, [r6, #44]	; 0x2c
8780323a:	2601      	movs	r6, #1
8780323c:	68aa      	ldr	r2, [r5, #8]
8780323e:	f105 0e44 	add.w	lr, r5, #68	; 0x44
87803242:	4641      	mov	r1, r8
87803244:	0103      	lsls	r3, r0, #4
87803246:	4086      	lsls	r6, r0
87803248:	eb03 0080 	add.w	r0, r3, r0, lsl #2
8780324c:	4332      	orrs	r2, r6
8780324e:	60aa      	str	r2, [r5, #8]
87803250:	4470      	add	r0, lr
87803252:	f7ff f89f 	bl	87802394 <vListInsertEnd>
87803256:	4638      	mov	r0, r7
87803258:	f000 ffc4 	bl	878041e4 <vPortClearInterruptMask>
8780325c:	4620      	mov	r0, r4
8780325e:	e8bd 81f0 	ldmia.w	sp!, {r4, r5, r6, r7, r8, pc}
87803262:	f106 0118 	add.w	r1, r6, #24
87803266:	f105 002c 	add.w	r0, r5, #44	; 0x2c
8780326a:	f7ff f893 	bl	87802394 <vListInsertEnd>
8780326e:	2400      	movs	r4, #0
87803270:	4638      	mov	r0, r7
87803272:	f000 ffb7 	bl	878041e4 <vPortClearInterruptMask>
87803276:	4620      	mov	r0, r4
87803278:	e8bd 81f0 	ldmia.w	sp!, {r4, r5, r6, r7, r8, pc}
8780327c:	f000 ffc8 	bl	87804210 <ulPortSetInterruptMask>
87803280:	e7fe      	b.n	87803280 <xTaskResumeFromISR+0x8c>
87803282:	bf00      	nop

87803284 <vTaskStartScheduler>:
87803284:	b570      	push	{r4, r5, r6, lr}
87803286:	f24b 2454 	movw	r4, #45652	; 0xb254
8780328a:	f2c8 7480 	movt	r4, #34688	; 0x8780
8780328e:	b082      	sub	sp, #8
87803290:	2600      	movs	r6, #0
87803292:	f104 03f4 	add.w	r3, r4, #244	; 0xf4
87803296:	f64a 4108 	movw	r1, #44040	; 0xac08
8780329a:	f243 50c5 	movw	r0, #13765	; 0x35c5
8780329e:	9301      	str	r3, [sp, #4]
878032a0:	f2c8 7180 	movt	r1, #34688	; 0x8780
878032a4:	4633      	mov	r3, r6
878032a6:	9600      	str	r6, [sp, #0]
878032a8:	f2c8 7080 	movt	r0, #34688	; 0x8780
878032ac:	225a      	movs	r2, #90	; 0x5a
878032ae:	f7ff fd75 	bl	87802d9c <xTaskCreate>
878032b2:	2801      	cmp	r0, #1
878032b4:	4605      	mov	r5, r0
878032b6:	d003      	beq.n	878032c0 <vTaskStartScheduler+0x3c>
878032b8:	1c45      	adds	r5, r0, #1
878032ba:	d00e      	beq.n	878032da <vTaskStartScheduler+0x56>
878032bc:	b002      	add	sp, #8
878032be:	bd70      	pop	{r4, r5, r6, pc}
878032c0:	f000 ffa6 	bl	87804210 <ulPortSetInterruptMask>
878032c4:	f04f 33ff 	mov.w	r3, #4294967295	; 0xffffffff
878032c8:	62a3      	str	r3, [r4, #40]	; 0x28
878032ca:	f8c4 50e4 	str.w	r5, [r4, #228]	; 0xe4
878032ce:	6026      	str	r6, [r4, #0]
878032d0:	b002      	add	sp, #8
878032d2:	e8bd 4070 	ldmia.w	sp!, {r4, r5, r6, lr}
878032d6:	f000 bfc5 	b.w	87804264 <xPortStartScheduler>
878032da:	f000 ff99 	bl	87804210 <ulPortSetInterruptMask>
878032de:	e7fe      	b.n	878032de <vTaskStartScheduler+0x5a>

878032e0 <vTaskEndScheduler>:
878032e0:	b508      	push	{r3, lr}
878032e2:	f000 ff95 	bl	87804210 <ulPortSetInterruptMask>
878032e6:	f24b 2354 	movw	r3, #45652	; 0xb254
878032ea:	2200      	movs	r2, #0
878032ec:	f2c8 7380 	movt	r3, #34688	; 0x8780
878032f0:	f8c3 20e4 	str.w	r2, [r3, #228]	; 0xe4
878032f4:	e8bd 4008 	ldmia.w	sp!, {r3, lr}
878032f8:	f001 b810 	b.w	8780431c <vPortEndScheduler>

878032fc <vTaskSuspendAll>:
878032fc:	f24b 2354 	movw	r3, #45652	; 0xb254
87803300:	f2c8 7380 	movt	r3, #34688	; 0x8780
87803304:	f8d3 20f0 	ldr.w	r2, [r3, #240]	; 0xf0
87803308:	3201      	adds	r2, #1
8780330a:	f8c3 20f0 	str.w	r2, [r3, #240]	; 0xf0
8780330e:	4770      	bx	lr

87803310 <xTaskGetTickCount>:
87803310:	f24b 2354 	movw	r3, #45652	; 0xb254
87803314:	f2c8 7380 	movt	r3, #34688	; 0x8780
87803318:	6818      	ldr	r0, [r3, #0]
8780331a:	4770      	bx	lr

8780331c <xTaskGetTickCountFromISR>:
8780331c:	b508      	push	{r3, lr}
8780331e:	f001 f823 	bl	87804368 <vPortValidateInterruptPriority>
87803322:	f24b 2354 	movw	r3, #45652	; 0xb254
87803326:	f2c8 7380 	movt	r3, #34688	; 0x8780
8780332a:	6818      	ldr	r0, [r3, #0]
8780332c:	bd08      	pop	{r3, pc}
8780332e:	bf00      	nop

87803330 <uxTaskGetNumberOfTasks>:
87803330:	f24b 2354 	movw	r3, #45652	; 0xb254
87803334:	f2c8 7380 	movt	r3, #34688	; 0x8780
87803338:	6c18      	ldr	r0, [r3, #64]	; 0x40
8780333a:	4770      	bx	lr

8780333c <pcTaskGetName>:
8780333c:	b108      	cbz	r0, 87803342 <pcTaskGetName+0x6>
8780333e:	3034      	adds	r0, #52	; 0x34
87803340:	4770      	bx	lr
87803342:	b508      	push	{r3, lr}
87803344:	f24b 2354 	movw	r3, #45652	; 0xb254
87803348:	f2c8 7380 	movt	r3, #34688	; 0x8780
8780334c:	6858      	ldr	r0, [r3, #4]
8780334e:	b910      	cbnz	r0, 87803356 <pcTaskGetName+0x1a>
87803350:	f000 ff5e 	bl	87804210 <ulPortSetInterruptMask>
87803354:	e7fe      	b.n	87803354 <pcTaskGetName+0x18>
87803356:	3034      	adds	r0, #52	; 0x34
87803358:	bd08      	pop	{r3, pc}
8780335a:	bf00      	nop

8780335c <xTaskIncrementTick>:
8780335c:	e92d 4ff8 	stmdb	sp!, {r3, r4, r5, r6, r7, r8, r9, sl, fp, lr}
87803360:	f24b 2454 	movw	r4, #45652	; 0xb254
87803364:	f2c8 7480 	movt	r4, #34688	; 0x8780
87803368:	f8d4 30f0 	ldr.w	r3, [r4, #240]	; 0xf0
8780336c:	2b00      	cmp	r3, #0
8780336e:	d145      	bne.n	878033fc <xTaskIncrementTick+0xa0>
87803370:	6826      	ldr	r6, [r4, #0]
87803372:	3601      	adds	r6, #1
87803374:	6026      	str	r6, [r4, #0]
87803376:	2e00      	cmp	r6, #0
87803378:	d04e      	beq.n	87803418 <xTaskIncrementTick+0xbc>
8780337a:	6aa3      	ldr	r3, [r4, #40]	; 0x28
8780337c:	429e      	cmp	r6, r3
8780337e:	bf38      	it	cc
87803380:	2500      	movcc	r5, #0
87803382:	d341      	bcc.n	87803408 <xTaskIncrementTick+0xac>
87803384:	f24b 2854 	movw	r8, #45652	; 0xb254
87803388:	2500      	movs	r5, #0
8780338a:	f2c8 7880 	movt	r8, #34688	; 0x8780
8780338e:	f04f 0b01 	mov.w	fp, #1
87803392:	f108 0a44 	add.w	sl, r8, #68	; 0x44
87803396:	e025      	b.n	878033e4 <xTaskIncrementTick+0x88>
87803398:	f8d8 2024 	ldr.w	r2, [r8, #36]	; 0x24
8780339c:	68d2      	ldr	r2, [r2, #12]
8780339e:	68d7      	ldr	r7, [r2, #12]
878033a0:	687a      	ldr	r2, [r7, #4]
878033a2:	f107 0904 	add.w	r9, r7, #4
878033a6:	4648      	mov	r0, r9
878033a8:	4296      	cmp	r6, r2
878033aa:	d325      	bcc.n	878033f8 <xTaskIncrementTick+0x9c>
878033ac:	f7ff f81c 	bl	878023e8 <uxListRemove>
878033b0:	6abb      	ldr	r3, [r7, #40]	; 0x28
878033b2:	f107 0018 	add.w	r0, r7, #24
878033b6:	b10b      	cbz	r3, 878033bc <xTaskIncrementTick+0x60>
878033b8:	f7ff f816 	bl	878023e8 <uxListRemove>
878033bc:	6af8      	ldr	r0, [r7, #44]	; 0x2c
878033be:	4649      	mov	r1, r9
878033c0:	68a2      	ldr	r2, [r4, #8]
878033c2:	0103      	lsls	r3, r0, #4
878033c4:	fa0b fe00 	lsl.w	lr, fp, r0
878033c8:	eb03 0080 	add.w	r0, r3, r0, lsl #2
878033cc:	ea4e 0302 	orr.w	r3, lr, r2
878033d0:	60a3      	str	r3, [r4, #8]
878033d2:	4450      	add	r0, sl
878033d4:	f7fe ffde 	bl	87802394 <vListInsertEnd>
878033d8:	6863      	ldr	r3, [r4, #4]
878033da:	6afa      	ldr	r2, [r7, #44]	; 0x2c
878033dc:	6adb      	ldr	r3, [r3, #44]	; 0x2c
878033de:	429a      	cmp	r2, r3
878033e0:	bf28      	it	cs
878033e2:	2501      	movcs	r5, #1
878033e4:	6a62      	ldr	r2, [r4, #36]	; 0x24
878033e6:	f24b 2354 	movw	r3, #45652	; 0xb254
878033ea:	f2c8 7380 	movt	r3, #34688	; 0x8780
878033ee:	6812      	ldr	r2, [r2, #0]
878033f0:	2a00      	cmp	r2, #0
878033f2:	d1d1      	bne.n	87803398 <xTaskIncrementTick+0x3c>
878033f4:	f04f 32ff 	mov.w	r2, #4294967295	; 0xffffffff
878033f8:	629a      	str	r2, [r3, #40]	; 0x28
878033fa:	e005      	b.n	87803408 <xTaskIncrementTick+0xac>
878033fc:	f8d4 30fc 	ldr.w	r3, [r4, #252]	; 0xfc
87803400:	2500      	movs	r5, #0
87803402:	3301      	adds	r3, #1
87803404:	f8c4 30fc 	str.w	r3, [r4, #252]	; 0xfc
87803408:	f8d4 3100 	ldr.w	r3, [r4, #256]	; 0x100
8780340c:	2b00      	cmp	r3, #0
8780340e:	bf18      	it	ne
87803410:	2501      	movne	r5, #1
87803412:	4628      	mov	r0, r5
87803414:	e8bd 8ff8 	ldmia.w	sp!, {r3, r4, r5, r6, r7, r8, r9, sl, fp, pc}
87803418:	6a63      	ldr	r3, [r4, #36]	; 0x24
8780341a:	681b      	ldr	r3, [r3, #0]
8780341c:	b113      	cbz	r3, 87803424 <xTaskIncrementTick+0xc8>
8780341e:	f000 fef7 	bl	87804210 <ulPortSetInterruptMask>
87803422:	e7fe      	b.n	87803422 <xTaskIncrementTick+0xc6>
87803424:	6a63      	ldr	r3, [r4, #36]	; 0x24
87803426:	6a22      	ldr	r2, [r4, #32]
87803428:	6262      	str	r2, [r4, #36]	; 0x24
8780342a:	6223      	str	r3, [r4, #32]
8780342c:	f8d4 30f8 	ldr.w	r3, [r4, #248]	; 0xf8
87803430:	3301      	adds	r3, #1
87803432:	f8c4 30f8 	str.w	r3, [r4, #248]	; 0xf8
87803436:	f7ff fc89 	bl	87802d4c <prvResetNextTaskUnblockTime>
8780343a:	e79e      	b.n	8780337a <xTaskIncrementTick+0x1e>

8780343c <xTaskResumeAll>:
8780343c:	e92d 43f8 	stmdb	sp!, {r3, r4, r5, r6, r7, r8, r9, lr}
87803440:	f24b 2454 	movw	r4, #45652	; 0xb254
87803444:	f2c8 7480 	movt	r4, #34688	; 0x8780
87803448:	f8d4 30f0 	ldr.w	r3, [r4, #240]	; 0xf0
8780344c:	b913      	cbnz	r3, 87803454 <xTaskResumeAll+0x18>
8780344e:	f000 fedf 	bl	87804210 <ulPortSetInterruptMask>
87803452:	e7fe      	b.n	87803452 <xTaskResumeAll+0x16>
87803454:	f000 ff70 	bl	87804338 <vPortEnterCritical>
87803458:	f8d4 30f0 	ldr.w	r3, [r4, #240]	; 0xf0
8780345c:	3b01      	subs	r3, #1
8780345e:	f8c4 30f0 	str.w	r3, [r4, #240]	; 0xf0
87803462:	f8d4 50f0 	ldr.w	r5, [r4, #240]	; 0xf0
87803466:	2d00      	cmp	r5, #0
87803468:	d148      	bne.n	878034fc <xTaskResumeAll+0xc0>
8780346a:	6c23      	ldr	r3, [r4, #64]	; 0x40
8780346c:	2b00      	cmp	r3, #0
8780346e:	d045      	beq.n	878034fc <xTaskResumeAll+0xc0>
87803470:	46a0      	mov	r8, r4
87803472:	2601      	movs	r6, #1
87803474:	f104 0744 	add.w	r7, r4, #68	; 0x44
87803478:	e023      	b.n	878034c2 <xTaskResumeAll+0x86>
8780347a:	f8d8 3038 	ldr.w	r3, [r8, #56]	; 0x38
8780347e:	68dd      	ldr	r5, [r3, #12]
87803480:	f105 0904 	add.w	r9, r5, #4
87803484:	f105 0018 	add.w	r0, r5, #24
87803488:	f7fe ffae 	bl	878023e8 <uxListRemove>
8780348c:	4648      	mov	r0, r9
8780348e:	f7fe ffab 	bl	878023e8 <uxListRemove>
87803492:	6ae8      	ldr	r0, [r5, #44]	; 0x2c
87803494:	4649      	mov	r1, r9
87803496:	f8d8 2008 	ldr.w	r2, [r8, #8]
8780349a:	0103      	lsls	r3, r0, #4
8780349c:	fa06 fe00 	lsl.w	lr, r6, r0
878034a0:	eb03 0080 	add.w	r0, r3, r0, lsl #2
878034a4:	ea4e 0302 	orr.w	r3, lr, r2
878034a8:	f8c8 3008 	str.w	r3, [r8, #8]
878034ac:	4438      	add	r0, r7
878034ae:	f7fe ff71 	bl	87802394 <vListInsertEnd>
878034b2:	f8d8 3004 	ldr.w	r3, [r8, #4]
878034b6:	6aea      	ldr	r2, [r5, #44]	; 0x2c
878034b8:	6adb      	ldr	r3, [r3, #44]	; 0x2c
878034ba:	429a      	cmp	r2, r3
878034bc:	bf28      	it	cs
878034be:	f8c8 6100 	strcs.w	r6, [r8, #256]	; 0x100
878034c2:	6ae3      	ldr	r3, [r4, #44]	; 0x2c
878034c4:	2b00      	cmp	r3, #0
878034c6:	d1d8      	bne.n	8780347a <xTaskResumeAll+0x3e>
878034c8:	b10d      	cbz	r5, 878034ce <xTaskResumeAll+0x92>
878034ca:	f7ff fc3f 	bl	87802d4c <prvResetNextTaskUnblockTime>
878034ce:	f8d4 50fc 	ldr.w	r5, [r4, #252]	; 0xfc
878034d2:	b14d      	cbz	r5, 878034e8 <xTaskResumeAll+0xac>
878034d4:	2601      	movs	r6, #1
878034d6:	f7ff ff41 	bl	8780335c <xTaskIncrementTick>
878034da:	b108      	cbz	r0, 878034e0 <xTaskResumeAll+0xa4>
878034dc:	f8c4 6100 	str.w	r6, [r4, #256]	; 0x100
878034e0:	3d01      	subs	r5, #1
878034e2:	d1f8      	bne.n	878034d6 <xTaskResumeAll+0x9a>
878034e4:	f8c4 50fc 	str.w	r5, [r4, #252]	; 0xfc
878034e8:	f8d4 3100 	ldr.w	r3, [r4, #256]	; 0x100
878034ec:	b133      	cbz	r3, 878034fc <xTaskResumeAll+0xc0>
878034ee:	df00      	svc	0
878034f0:	2401      	movs	r4, #1
878034f2:	f000 fe4d 	bl	87804190 <vPortExitCritical>
878034f6:	4620      	mov	r0, r4
878034f8:	e8bd 83f8 	ldmia.w	sp!, {r3, r4, r5, r6, r7, r8, r9, pc}
878034fc:	2400      	movs	r4, #0
878034fe:	f000 fe47 	bl	87804190 <vPortExitCritical>
87803502:	4620      	mov	r0, r4
87803504:	e8bd 83f8 	ldmia.w	sp!, {r3, r4, r5, r6, r7, r8, r9, pc}

87803508 <vTaskDelayUntil>:
87803508:	b510      	push	{r4, lr}
8780350a:	2800      	cmp	r0, #0
8780350c:	d03b      	beq.n	87803586 <vTaskDelayUntil+0x7e>
8780350e:	2900      	cmp	r1, #0
87803510:	d036      	beq.n	87803580 <vTaskDelayUntil+0x78>
87803512:	f24b 2454 	movw	r4, #45652	; 0xb254
87803516:	f2c8 7480 	movt	r4, #34688	; 0x8780
8780351a:	f8d4 30f0 	ldr.w	r3, [r4, #240]	; 0xf0
8780351e:	b9eb      	cbnz	r3, 8780355c <vTaskDelayUntil+0x54>
87803520:	f8d4 30f0 	ldr.w	r3, [r4, #240]	; 0xf0
87803524:	6802      	ldr	r2, [r0, #0]
87803526:	3301      	adds	r3, #1
87803528:	f8c4 30f0 	str.w	r3, [r4, #240]	; 0xf0
8780352c:	1853      	adds	r3, r2, r1
8780352e:	6821      	ldr	r1, [r4, #0]
87803530:	4291      	cmp	r1, r2
87803532:	d316      	bcc.n	87803562 <vTaskDelayUntil+0x5a>
87803534:	4299      	cmp	r1, r3
87803536:	bf2c      	ite	cs
87803538:	2400      	movcs	r4, #0
8780353a:	2401      	movcc	r4, #1
8780353c:	429a      	cmp	r2, r3
8780353e:	bf94      	ite	ls
87803540:	4622      	movls	r2, r4
87803542:	f044 0201 	orrhi.w	r2, r4, #1
87803546:	b1aa      	cbz	r2, 87803574 <vTaskDelayUntil+0x6c>
87803548:	6003      	str	r3, [r0, #0]
8780354a:	1a58      	subs	r0, r3, r1
8780354c:	2100      	movs	r1, #0
8780354e:	f7ff fbbb 	bl	87802cc8 <prvAddCurrentTaskToDelayedList>
87803552:	f7ff ff73 	bl	8780343c <xTaskResumeAll>
87803556:	b990      	cbnz	r0, 8780357e <vTaskDelayUntil+0x76>
87803558:	df00      	svc	0
8780355a:	bd10      	pop	{r4, pc}
8780355c:	f000 fe58 	bl	87804210 <ulPortSetInterruptMask>
87803560:	e7fe      	b.n	87803560 <vTaskDelayUntil+0x58>
87803562:	429a      	cmp	r2, r3
87803564:	bf94      	ite	ls
87803566:	2200      	movls	r2, #0
87803568:	2201      	movhi	r2, #1
8780356a:	4299      	cmp	r1, r3
8780356c:	bf28      	it	cs
8780356e:	2200      	movcs	r2, #0
87803570:	2a00      	cmp	r2, #0
87803572:	d1e9      	bne.n	87803548 <vTaskDelayUntil+0x40>
87803574:	6003      	str	r3, [r0, #0]
87803576:	f7ff ff61 	bl	8780343c <xTaskResumeAll>
8780357a:	2800      	cmp	r0, #0
8780357c:	d0ec      	beq.n	87803558 <vTaskDelayUntil+0x50>
8780357e:	bd10      	pop	{r4, pc}
87803580:	f000 fe46 	bl	87804210 <ulPortSetInterruptMask>
87803584:	e7fe      	b.n	87803584 <vTaskDelayUntil+0x7c>
87803586:	f000 fe43 	bl	87804210 <ulPortSetInterruptMask>
8780358a:	e7fe      	b.n	8780358a <vTaskDelayUntil+0x82>

8780358c <vTaskDelay>:
8780358c:	b190      	cbz	r0, 878035b4 <vTaskDelay+0x28>
8780358e:	b508      	push	{r3, lr}
87803590:	f24b 2354 	movw	r3, #45652	; 0xb254
87803594:	f2c8 7380 	movt	r3, #34688	; 0x8780
87803598:	f8d3 10f0 	ldr.w	r1, [r3, #240]	; 0xf0
8780359c:	b961      	cbnz	r1, 878035b8 <vTaskDelay+0x2c>
8780359e:	f8d3 20f0 	ldr.w	r2, [r3, #240]	; 0xf0
878035a2:	3201      	adds	r2, #1
878035a4:	f8c3 20f0 	str.w	r2, [r3, #240]	; 0xf0
878035a8:	f7ff fb8e 	bl	87802cc8 <prvAddCurrentTaskToDelayedList>
878035ac:	f7ff ff46 	bl	8780343c <xTaskResumeAll>
878035b0:	b128      	cbz	r0, 878035be <vTaskDelay+0x32>
878035b2:	bd08      	pop	{r3, pc}
878035b4:	df00      	svc	0
878035b6:	4770      	bx	lr
878035b8:	f000 fe2a 	bl	87804210 <ulPortSetInterruptMask>
878035bc:	e7fe      	b.n	878035bc <vTaskDelay+0x30>
878035be:	df00      	svc	0
878035c0:	bd08      	pop	{r3, pc}
878035c2:	bf00      	nop

878035c4 <prvIdleTask>:
878035c4:	f24b 2654 	movw	r6, #45652	; 0xb254
878035c8:	b580      	push	{r7, lr}
878035ca:	f2c8 7680 	movt	r6, #34688	; 0x8780
878035ce:	4634      	mov	r4, r6
878035d0:	4637      	mov	r7, r6
878035d2:	46b0      	mov	r8, r6
878035d4:	e009      	b.n	878035ea <prvIdleTask+0x26>
878035d6:	f8d4 30f0 	ldr.w	r3, [r4, #240]	; 0xf0
878035da:	f8d4 50d0 	ldr.w	r5, [r4, #208]	; 0xd0
878035de:	3301      	adds	r3, #1
878035e0:	f8c4 30f0 	str.w	r3, [r4, #240]	; 0xf0
878035e4:	f7ff ff2a 	bl	8780343c <xTaskResumeAll>
878035e8:	b94d      	cbnz	r5, 878035fe <prvIdleTask+0x3a>
878035ea:	f8d6 30ec 	ldr.w	r3, [r6, #236]	; 0xec
878035ee:	2b00      	cmp	r3, #0
878035f0:	d1f1      	bne.n	878035d6 <prvIdleTask+0x12>
878035f2:	f8d8 3044 	ldr.w	r3, [r8, #68]	; 0x44
878035f6:	2b01      	cmp	r3, #1
878035f8:	d9f7      	bls.n	878035ea <prvIdleTask+0x26>
878035fa:	df00      	svc	0
878035fc:	e7f5      	b.n	878035ea <prvIdleTask+0x26>
878035fe:	f000 fe9b 	bl	87804338 <vPortEnterCritical>
87803602:	f8d7 30dc 	ldr.w	r3, [r7, #220]	; 0xdc
87803606:	68dd      	ldr	r5, [r3, #12]
87803608:	1d28      	adds	r0, r5, #4
8780360a:	f7fe feed 	bl	878023e8 <uxListRemove>
8780360e:	6c3b      	ldr	r3, [r7, #64]	; 0x40
87803610:	3b01      	subs	r3, #1
87803612:	643b      	str	r3, [r7, #64]	; 0x40
87803614:	f8d7 30ec 	ldr.w	r3, [r7, #236]	; 0xec
87803618:	3b01      	subs	r3, #1
8780361a:	f8c7 30ec 	str.w	r3, [r7, #236]	; 0xec
8780361e:	f000 fdb7 	bl	87804190 <vPortExitCritical>
87803622:	6b28      	ldr	r0, [r5, #48]	; 0x30
87803624:	f000 ff76 	bl	87804514 <vPortFree>
87803628:	4628      	mov	r0, r5
8780362a:	f000 ff73 	bl	87804514 <vPortFree>
8780362e:	e7dc      	b.n	878035ea <prvIdleTask+0x26>

87803630 <vTaskSwitchContext>:
87803630:	b508      	push	{r3, lr}
87803632:	f24b 2354 	movw	r3, #45652	; 0xb254
87803636:	f2c8 7380 	movt	r3, #34688	; 0x8780
8780363a:	f8d3 20f0 	ldr.w	r2, [r3, #240]	; 0xf0
8780363e:	b9ea      	cbnz	r2, 8780367c <vTaskSwitchContext+0x4c>
87803640:	f8c3 2100 	str.w	r2, [r3, #256]	; 0x100
87803644:	689a      	ldr	r2, [r3, #8]
87803646:	fab2 f282 	clz	r2, r2
8780364a:	f1c2 011f 	rsb	r1, r2, #31
8780364e:	010a      	lsls	r2, r1, #4
87803650:	eb02 0281 	add.w	r2, r2, r1, lsl #2
87803654:	1898      	adds	r0, r3, r2
87803656:	6c41      	ldr	r1, [r0, #68]	; 0x44
87803658:	3044      	adds	r0, #68	; 0x44
8780365a:	b161      	cbz	r1, 87803676 <vTaskSwitchContext+0x46>
8780365c:	6841      	ldr	r1, [r0, #4]
8780365e:	441a      	add	r2, r3
87803660:	324c      	adds	r2, #76	; 0x4c
87803662:	6849      	ldr	r1, [r1, #4]
87803664:	4291      	cmp	r1, r2
87803666:	6041      	str	r1, [r0, #4]
87803668:	bf08      	it	eq
8780366a:	6849      	ldreq	r1, [r1, #4]
8780366c:	68ca      	ldr	r2, [r1, #12]
8780366e:	bf08      	it	eq
87803670:	6041      	streq	r1, [r0, #4]
87803672:	605a      	str	r2, [r3, #4]
87803674:	bd08      	pop	{r3, pc}
87803676:	f000 fdcb 	bl	87804210 <ulPortSetInterruptMask>
8780367a:	e7fe      	b.n	8780367a <vTaskSwitchContext+0x4a>
8780367c:	2201      	movs	r2, #1
8780367e:	f8c3 2100 	str.w	r2, [r3, #256]	; 0x100
87803682:	bd08      	pop	{r3, pc}

87803684 <vTaskSuspend>:
87803684:	b570      	push	{r4, r5, r6, lr}
87803686:	4605      	mov	r5, r0
87803688:	f24b 2454 	movw	r4, #45652	; 0xb254
8780368c:	f2c8 7480 	movt	r4, #34688	; 0x8780
87803690:	f000 fe52 	bl	87804338 <vPortEnterCritical>
87803694:	2d00      	cmp	r5, #0
87803696:	d042      	beq.n	8780371e <vTaskSuspend+0x9a>
87803698:	1d2e      	adds	r6, r5, #4
8780369a:	4630      	mov	r0, r6
8780369c:	f7fe fea4 	bl	878023e8 <uxListRemove>
878036a0:	b950      	cbnz	r0, 878036b8 <vTaskSuspend+0x34>
878036a2:	6ae8      	ldr	r0, [r5, #44]	; 0x2c
878036a4:	f24b 2254 	movw	r2, #45652	; 0xb254
878036a8:	f2c8 7280 	movt	r2, #34688	; 0x8780
878036ac:	0103      	lsls	r3, r0, #4
878036ae:	eb03 0380 	add.w	r3, r3, r0, lsl #2
878036b2:	4423      	add	r3, r4
878036b4:	6c5b      	ldr	r3, [r3, #68]	; 0x44
878036b6:	b1b3      	cbz	r3, 878036e6 <vTaskSuspend+0x62>
878036b8:	6aab      	ldr	r3, [r5, #40]	; 0x28
878036ba:	b11b      	cbz	r3, 878036c4 <vTaskSuspend+0x40>
878036bc:	f105 0018 	add.w	r0, r5, #24
878036c0:	f7fe fe92 	bl	878023e8 <uxListRemove>
878036c4:	4631      	mov	r1, r6
878036c6:	481d      	ldr	r0, [pc, #116]	; (8780373c <vTaskSuspend+0xb8>)
878036c8:	f7fe fe64 	bl	87802394 <vListInsertEnd>
878036cc:	f000 fd60 	bl	87804190 <vPortExitCritical>
878036d0:	f8d4 30e4 	ldr.w	r3, [r4, #228]	; 0xe4
878036d4:	b973      	cbnz	r3, 878036f4 <vTaskSuspend+0x70>
878036d6:	6862      	ldr	r2, [r4, #4]
878036d8:	f24b 2354 	movw	r3, #45652	; 0xb254
878036dc:	f2c8 7380 	movt	r3, #34688	; 0x8780
878036e0:	4295      	cmp	r5, r2
878036e2:	d014      	beq.n	8780370e <vTaskSuspend+0x8a>
878036e4:	bd70      	pop	{r4, r5, r6, pc}
878036e6:	6893      	ldr	r3, [r2, #8]
878036e8:	2101      	movs	r1, #1
878036ea:	4081      	lsls	r1, r0
878036ec:	ea23 0301 	bic.w	r3, r3, r1
878036f0:	6093      	str	r3, [r2, #8]
878036f2:	e7e1      	b.n	878036b8 <vTaskSuspend+0x34>
878036f4:	f000 fe20 	bl	87804338 <vPortEnterCritical>
878036f8:	f7ff fb28 	bl	87802d4c <prvResetNextTaskUnblockTime>
878036fc:	f000 fd48 	bl	87804190 <vPortExitCritical>
87803700:	6862      	ldr	r2, [r4, #4]
87803702:	f24b 2354 	movw	r3, #45652	; 0xb254
87803706:	f2c8 7380 	movt	r3, #34688	; 0x8780
8780370a:	4295      	cmp	r5, r2
8780370c:	d1ea      	bne.n	878036e4 <vTaskSuspend+0x60>
8780370e:	f8d3 20e4 	ldr.w	r2, [r3, #228]	; 0xe4
87803712:	b132      	cbz	r2, 87803722 <vTaskSuspend+0x9e>
87803714:	f8d3 30f0 	ldr.w	r3, [r3, #240]	; 0xf0
87803718:	b96b      	cbnz	r3, 87803736 <vTaskSuspend+0xb2>
8780371a:	df00      	svc	0
8780371c:	bd70      	pop	{r4, r5, r6, pc}
8780371e:	6865      	ldr	r5, [r4, #4]
87803720:	e7ba      	b.n	87803698 <vTaskSuspend+0x14>
87803722:	6c19      	ldr	r1, [r3, #64]	; 0x40
87803724:	68d8      	ldr	r0, [r3, #12]
87803726:	4288      	cmp	r0, r1
87803728:	d003      	beq.n	87803732 <vTaskSuspend+0xae>
8780372a:	e8bd 4070 	ldmia.w	sp!, {r4, r5, r6, lr}
8780372e:	f7ff bf7f 	b.w	87803630 <vTaskSwitchContext>
87803732:	605a      	str	r2, [r3, #4]
87803734:	bd70      	pop	{r4, r5, r6, pc}
87803736:	f000 fd6b 	bl	87804210 <ulPortSetInterruptMask>
8780373a:	e7fe      	b.n	8780373a <vTaskSuspend+0xb6>
8780373c:	8780b260 	strhi	fp, [r0, r0, ror #4]

87803740 <vTaskPlaceOnEventList>:
87803740:	b510      	push	{r4, lr}
87803742:	b170      	cbz	r0, 87803762 <vTaskPlaceOnEventList+0x22>
87803744:	f24b 2354 	movw	r3, #45652	; 0xb254
87803748:	460c      	mov	r4, r1
8780374a:	f2c8 7380 	movt	r3, #34688	; 0x8780
8780374e:	6859      	ldr	r1, [r3, #4]
87803750:	3118      	adds	r1, #24
87803752:	f7fe fe2f 	bl	878023b4 <vListInsert>
87803756:	4620      	mov	r0, r4
87803758:	2101      	movs	r1, #1
8780375a:	e8bd 4010 	ldmia.w	sp!, {r4, lr}
8780375e:	f7ff bab3 	b.w	87802cc8 <prvAddCurrentTaskToDelayedList>
87803762:	f000 fd55 	bl	87804210 <ulPortSetInterruptMask>
87803766:	e7fe      	b.n	87803766 <vTaskPlaceOnEventList+0x26>

87803768 <vTaskPlaceOnUnorderedEventList>:
87803768:	b510      	push	{r4, lr}
8780376a:	b1c8      	cbz	r0, 878037a0 <vTaskPlaceOnUnorderedEventList+0x38>
8780376c:	f24b 2354 	movw	r3, #45652	; 0xb254
87803770:	4614      	mov	r4, r2
87803772:	f2c8 7380 	movt	r3, #34688	; 0x8780
87803776:	f8d3 20f0 	ldr.w	r2, [r3, #240]	; 0xf0
8780377a:	b912      	cbnz	r2, 87803782 <vTaskPlaceOnUnorderedEventList+0x1a>
8780377c:	f000 fd48 	bl	87804210 <ulPortSetInterruptMask>
87803780:	e7fe      	b.n	87803780 <vTaskPlaceOnUnorderedEventList+0x18>
87803782:	685a      	ldr	r2, [r3, #4]
87803784:	f041 4100 	orr.w	r1, r1, #2147483648	; 0x80000000
87803788:	685b      	ldr	r3, [r3, #4]
8780378a:	6191      	str	r1, [r2, #24]
8780378c:	f103 0118 	add.w	r1, r3, #24
87803790:	f7fe fe00 	bl	87802394 <vListInsertEnd>
87803794:	4620      	mov	r0, r4
87803796:	2101      	movs	r1, #1
87803798:	e8bd 4010 	ldmia.w	sp!, {r4, lr}
8780379c:	f7ff ba94 	b.w	87802cc8 <prvAddCurrentTaskToDelayedList>
878037a0:	f000 fd36 	bl	87804210 <ulPortSetInterruptMask>
878037a4:	e7fe      	b.n	878037a4 <vTaskPlaceOnUnorderedEventList+0x3c>
878037a6:	bf00      	nop

878037a8 <xTaskRemoveFromEventList>:
878037a8:	68c3      	ldr	r3, [r0, #12]
878037aa:	e92d 41f0 	stmdb	sp!, {r4, r5, r6, r7, r8, lr}
878037ae:	68dd      	ldr	r5, [r3, #12]
878037b0:	b3a5      	cbz	r5, 8780381c <xTaskRemoveFromEventList+0x74>
878037b2:	f105 0618 	add.w	r6, r5, #24
878037b6:	f24b 2454 	movw	r4, #45652	; 0xb254
878037ba:	4630      	mov	r0, r6
878037bc:	f2c8 7480 	movt	r4, #34688	; 0x8780
878037c0:	f7fe fe12 	bl	878023e8 <uxListRemove>
878037c4:	f8d4 30f0 	ldr.w	r3, [r4, #240]	; 0xf0
878037c8:	bb13      	cbnz	r3, 87803810 <xTaskRemoveFromEventList+0x68>
878037ca:	f105 0804 	add.w	r8, r5, #4
878037ce:	2601      	movs	r6, #1
878037d0:	4640      	mov	r0, r8
878037d2:	f7fe fe09 	bl	878023e8 <uxListRemove>
878037d6:	6aef      	ldr	r7, [r5, #44]	; 0x2c
878037d8:	f104 0044 	add.w	r0, r4, #68	; 0x44
878037dc:	68a2      	ldr	r2, [r4, #8]
878037de:	4641      	mov	r1, r8
878037e0:	013b      	lsls	r3, r7, #4
878037e2:	40be      	lsls	r6, r7
878037e4:	eb03 0387 	add.w	r3, r3, r7, lsl #2
878037e8:	4332      	orrs	r2, r6
878037ea:	60a2      	str	r2, [r4, #8]
878037ec:	4418      	add	r0, r3
878037ee:	f7fe fdd1 	bl	87802394 <vListInsertEnd>
878037f2:	6862      	ldr	r2, [r4, #4]
878037f4:	f24b 2354 	movw	r3, #45652	; 0xb254
878037f8:	6ae9      	ldr	r1, [r5, #44]	; 0x2c
878037fa:	f2c8 7380 	movt	r3, #34688	; 0x8780
878037fe:	6ad2      	ldr	r2, [r2, #44]	; 0x2c
87803800:	4291      	cmp	r1, r2
87803802:	bf8a      	itet	hi
87803804:	2001      	movhi	r0, #1
87803806:	2000      	movls	r0, #0
87803808:	f8c3 0100 	strhi.w	r0, [r3, #256]	; 0x100
8780380c:	e8bd 81f0 	ldmia.w	sp!, {r4, r5, r6, r7, r8, pc}
87803810:	4631      	mov	r1, r6
87803812:	f104 002c 	add.w	r0, r4, #44	; 0x2c
87803816:	f7fe fdbd 	bl	87802394 <vListInsertEnd>
8780381a:	e7ea      	b.n	878037f2 <xTaskRemoveFromEventList+0x4a>
8780381c:	f000 fcf8 	bl	87804210 <ulPortSetInterruptMask>
87803820:	e7fe      	b.n	87803820 <xTaskRemoveFromEventList+0x78>
87803822:	bf00      	nop

87803824 <xTaskRemoveFromUnorderedEventList>:
87803824:	e92d 41f0 	stmdb	sp!, {r4, r5, r6, r7, r8, lr}
87803828:	f24b 2454 	movw	r4, #45652	; 0xb254
8780382c:	f2c8 7480 	movt	r4, #34688	; 0x8780
87803830:	f8d4 30f0 	ldr.w	r3, [r4, #240]	; 0xf0
87803834:	b33b      	cbz	r3, 87803886 <xTaskRemoveFromUnorderedEventList+0x62>
87803836:	68c6      	ldr	r6, [r0, #12]
87803838:	f041 4300 	orr.w	r3, r1, #2147483648	; 0x80000000
8780383c:	6003      	str	r3, [r0, #0]
8780383e:	b32e      	cbz	r6, 8780388c <xTaskRemoveFromUnorderedEventList+0x68>
87803840:	f106 0804 	add.w	r8, r6, #4
87803844:	2501      	movs	r5, #1
87803846:	f7fe fdcf 	bl	878023e8 <uxListRemove>
8780384a:	4640      	mov	r0, r8
8780384c:	f7fe fdcc 	bl	878023e8 <uxListRemove>
87803850:	6af7      	ldr	r7, [r6, #44]	; 0x2c
87803852:	f104 0044 	add.w	r0, r4, #68	; 0x44
87803856:	68a2      	ldr	r2, [r4, #8]
87803858:	4641      	mov	r1, r8
8780385a:	013b      	lsls	r3, r7, #4
8780385c:	fa05 fe07 	lsl.w	lr, r5, r7
87803860:	eb03 0387 	add.w	r3, r3, r7, lsl #2
87803864:	ea4e 0202 	orr.w	r2, lr, r2
87803868:	60a2      	str	r2, [r4, #8]
8780386a:	4418      	add	r0, r3
8780386c:	f7fe fd92 	bl	87802394 <vListInsertEnd>
87803870:	6863      	ldr	r3, [r4, #4]
87803872:	6af2      	ldr	r2, [r6, #44]	; 0x2c
87803874:	6adb      	ldr	r3, [r3, #44]	; 0x2c
87803876:	429a      	cmp	r2, r3
87803878:	bf86      	itte	hi
8780387a:	4628      	movhi	r0, r5
8780387c:	f8c4 5100 	strhi.w	r5, [r4, #256]	; 0x100
87803880:	2000      	movls	r0, #0
87803882:	e8bd 81f0 	ldmia.w	sp!, {r4, r5, r6, r7, r8, pc}
87803886:	f000 fcc3 	bl	87804210 <ulPortSetInterruptMask>
8780388a:	e7fe      	b.n	8780388a <xTaskRemoveFromUnorderedEventList+0x66>
8780388c:	f000 fcc0 	bl	87804210 <ulPortSetInterruptMask>
87803890:	e7fe      	b.n	87803890 <xTaskRemoveFromUnorderedEventList+0x6c>
87803892:	bf00      	nop

87803894 <vTaskSetTimeOutState>:
87803894:	b508      	push	{r3, lr}
87803896:	b148      	cbz	r0, 878038ac <vTaskSetTimeOutState+0x18>
87803898:	f24b 2354 	movw	r3, #45652	; 0xb254
8780389c:	f2c8 7380 	movt	r3, #34688	; 0x8780
878038a0:	f8d3 20f8 	ldr.w	r2, [r3, #248]	; 0xf8
878038a4:	681b      	ldr	r3, [r3, #0]
878038a6:	e880 000c 	stmia.w	r0, {r2, r3}
878038aa:	bd08      	pop	{r3, pc}
878038ac:	f000 fcb0 	bl	87804210 <ulPortSetInterruptMask>
878038b0:	e7fe      	b.n	878038b0 <vTaskSetTimeOutState+0x1c>
878038b2:	bf00      	nop

878038b4 <xTaskCheckForTimeOut>:
878038b4:	b570      	push	{r4, r5, r6, lr}
878038b6:	4604      	mov	r4, r0
878038b8:	b380      	cbz	r0, 8780391c <xTaskCheckForTimeOut+0x68>
878038ba:	460e      	mov	r6, r1
878038bc:	b359      	cbz	r1, 87803916 <xTaskCheckForTimeOut+0x62>
878038be:	f000 fd3b 	bl	87804338 <vPortEnterCritical>
878038c2:	6830      	ldr	r0, [r6, #0]
878038c4:	f24b 2254 	movw	r2, #45652	; 0xb254
878038c8:	f2c8 7280 	movt	r2, #34688	; 0x8780
878038cc:	6815      	ldr	r5, [r2, #0]
878038ce:	1c43      	adds	r3, r0, #1
878038d0:	d01c      	beq.n	8780390c <xTaskCheckForTimeOut+0x58>
878038d2:	f8d2 30f8 	ldr.w	r3, [r2, #248]	; 0xf8
878038d6:	6821      	ldr	r1, [r4, #0]
878038d8:	4299      	cmp	r1, r3
878038da:	6863      	ldr	r3, [r4, #4]
878038dc:	d001      	beq.n	878038e2 <xTaskCheckForTimeOut+0x2e>
878038de:	429d      	cmp	r5, r3
878038e0:	d20f      	bcs.n	87803902 <xTaskCheckForTimeOut+0x4e>
878038e2:	1ae9      	subs	r1, r5, r3
878038e4:	4288      	cmp	r0, r1
878038e6:	d90c      	bls.n	87803902 <xTaskCheckForTimeOut+0x4e>
878038e8:	f8d2 10f8 	ldr.w	r1, [r2, #248]	; 0xf8
878038ec:	1b40      	subs	r0, r0, r5
878038ee:	6812      	ldr	r2, [r2, #0]
878038f0:	4403      	add	r3, r0
878038f2:	6033      	str	r3, [r6, #0]
878038f4:	2500      	movs	r5, #0
878038f6:	e884 0006 	stmia.w	r4, {r1, r2}
878038fa:	f000 fc49 	bl	87804190 <vPortExitCritical>
878038fe:	4628      	mov	r0, r5
87803900:	bd70      	pop	{r4, r5, r6, pc}
87803902:	2501      	movs	r5, #1
87803904:	f000 fc44 	bl	87804190 <vPortExitCritical>
87803908:	4628      	mov	r0, r5
8780390a:	bd70      	pop	{r4, r5, r6, pc}
8780390c:	2500      	movs	r5, #0
8780390e:	f000 fc3f 	bl	87804190 <vPortExitCritical>
87803912:	4628      	mov	r0, r5
87803914:	bd70      	pop	{r4, r5, r6, pc}
87803916:	f000 fc7b 	bl	87804210 <ulPortSetInterruptMask>
8780391a:	e7fe      	b.n	8780391a <xTaskCheckForTimeOut+0x66>
8780391c:	f000 fc78 	bl	87804210 <ulPortSetInterruptMask>
87803920:	e7fe      	b.n	87803920 <xTaskCheckForTimeOut+0x6c>
87803922:	bf00      	nop

87803924 <vTaskMissedYield>:
87803924:	f24b 2354 	movw	r3, #45652	; 0xb254
87803928:	2201      	movs	r2, #1
8780392a:	f2c8 7380 	movt	r3, #34688	; 0x8780
8780392e:	f8c3 2100 	str.w	r2, [r3, #256]	; 0x100
87803932:	4770      	bx	lr

87803934 <uxTaskGetTaskNumber>:
87803934:	b100      	cbz	r0, 87803938 <uxTaskGetTaskNumber+0x4>
87803936:	6d00      	ldr	r0, [r0, #80]	; 0x50
87803938:	4770      	bx	lr
8780393a:	bf00      	nop

8780393c <vTaskSetTaskNumber>:
8780393c:	b100      	cbz	r0, 87803940 <vTaskSetTaskNumber+0x4>
8780393e:	6501      	str	r1, [r0, #80]	; 0x50
87803940:	4770      	bx	lr
87803942:	bf00      	nop

87803944 <vTaskSetThreadLocalStoragePointer>:
87803944:	2904      	cmp	r1, #4
87803946:	dc03      	bgt.n	87803950 <vTaskSetThreadLocalStoragePointer+0xc>
87803948:	b118      	cbz	r0, 87803952 <vTaskSetThreadLocalStoragePointer+0xe>
8780394a:	eb00 0081 	add.w	r0, r0, r1, lsl #2
8780394e:	65c2      	str	r2, [r0, #92]	; 0x5c
87803950:	4770      	bx	lr
87803952:	f24b 2354 	movw	r3, #45652	; 0xb254
87803956:	f2c8 7380 	movt	r3, #34688	; 0x8780
8780395a:	6858      	ldr	r0, [r3, #4]
8780395c:	e7f5      	b.n	8780394a <vTaskSetThreadLocalStoragePointer+0x6>
8780395e:	bf00      	nop

87803960 <pvTaskGetThreadLocalStoragePointer>:
87803960:	2904      	cmp	r1, #4
87803962:	dc0d      	bgt.n	87803980 <pvTaskGetThreadLocalStoragePointer+0x20>
87803964:	b118      	cbz	r0, 8780396e <pvTaskGetThreadLocalStoragePointer+0xe>
87803966:	eb00 0081 	add.w	r0, r0, r1, lsl #2
8780396a:	6dc0      	ldr	r0, [r0, #92]	; 0x5c
8780396c:	4770      	bx	lr
8780396e:	f24b 2354 	movw	r3, #45652	; 0xb254
87803972:	f2c8 7380 	movt	r3, #34688	; 0x8780
87803976:	6858      	ldr	r0, [r3, #4]
87803978:	eb00 0081 	add.w	r0, r0, r1, lsl #2
8780397c:	6dc0      	ldr	r0, [r0, #92]	; 0x5c
8780397e:	4770      	bx	lr
87803980:	2000      	movs	r0, #0
87803982:	4770      	bx	lr

87803984 <vTaskGetInfo>:
87803984:	e92d 41f0 	stmdb	sp!, {r4, r5, r6, r7, r8, lr}
87803988:	460c      	mov	r4, r1
8780398a:	4690      	mov	r8, r2
8780398c:	461f      	mov	r7, r3
8780398e:	4606      	mov	r6, r0
87803990:	4605      	mov	r5, r0
87803992:	2800      	cmp	r0, #0
87803994:	d040      	beq.n	87803a18 <vTaskGetInfo+0x94>
87803996:	6aeb      	ldr	r3, [r5, #44]	; 0x2c
87803998:	f105 0034 	add.w	r0, r5, #52	; 0x34
8780399c:	6b29      	ldr	r1, [r5, #48]	; 0x30
8780399e:	6cea      	ldr	r2, [r5, #76]	; 0x4c
878039a0:	6123      	str	r3, [r4, #16]
878039a2:	68e3      	ldr	r3, [r4, #12]
878039a4:	6025      	str	r5, [r4, #0]
878039a6:	61e1      	str	r1, [r4, #28]
878039a8:	2b03      	cmp	r3, #3
878039aa:	60a2      	str	r2, [r4, #8]
878039ac:	6060      	str	r0, [r4, #4]
878039ae:	d01e      	beq.n	878039ee <vTaskGetInfo+0x6a>
878039b0:	6d6b      	ldr	r3, [r5, #84]	; 0x54
878039b2:	2f05      	cmp	r7, #5
878039b4:	f04f 0200 	mov.w	r2, #0
878039b8:	bf18      	it	ne
878039ba:	60e7      	strne	r7, [r4, #12]
878039bc:	61a2      	str	r2, [r4, #24]
878039be:	6163      	str	r3, [r4, #20]
878039c0:	d025      	beq.n	87803a0e <vTaskGetInfo+0x8a>
878039c2:	f1b8 0f00 	cmp.w	r8, #0
878039c6:	d00e      	beq.n	878039e6 <vTaskGetInfo+0x62>
878039c8:	6b29      	ldr	r1, [r5, #48]	; 0x30
878039ca:	780b      	ldrb	r3, [r1, #0]
878039cc:	2ba5      	cmp	r3, #165	; 0xa5
878039ce:	d129      	bne.n	87803a24 <vTaskGetInfo+0xa0>
878039d0:	1c4b      	adds	r3, r1, #1
878039d2:	1a58      	subs	r0, r3, r1
878039d4:	f813 2b01 	ldrb.w	r2, [r3], #1
878039d8:	2aa5      	cmp	r2, #165	; 0xa5
878039da:	d0fa      	beq.n	878039d2 <vTaskGetInfo+0x4e>
878039dc:	f3c0 008f 	ubfx	r0, r0, #2, #16
878039e0:	8420      	strh	r0, [r4, #32]
878039e2:	e8bd 81f0 	ldmia.w	sp!, {r4, r5, r6, r7, r8, pc}
878039e6:	f8a4 8020 	strh.w	r8, [r4, #32]
878039ea:	e8bd 81f0 	ldmia.w	sp!, {r4, r5, r6, r7, r8, pc}
878039ee:	f24b 2354 	movw	r3, #45652	; 0xb254
878039f2:	6aa9      	ldr	r1, [r5, #40]	; 0x28
878039f4:	f2c8 7380 	movt	r3, #34688	; 0x8780
878039f8:	f8d3 20f0 	ldr.w	r2, [r3, #240]	; 0xf0
878039fc:	3201      	adds	r2, #1
878039fe:	f8c3 20f0 	str.w	r2, [r3, #240]	; 0xf0
87803a02:	b109      	cbz	r1, 87803a08 <vTaskGetInfo+0x84>
87803a04:	2302      	movs	r3, #2
87803a06:	60e3      	str	r3, [r4, #12]
87803a08:	f7ff fd18 	bl	8780343c <xTaskResumeAll>
87803a0c:	e7d0      	b.n	878039b0 <vTaskGetInfo+0x2c>
87803a0e:	4630      	mov	r0, r6
87803a10:	f7ff faf8 	bl	87803004 <eTaskGetState>
87803a14:	60e0      	str	r0, [r4, #12]
87803a16:	e7d4      	b.n	878039c2 <vTaskGetInfo+0x3e>
87803a18:	f24b 2354 	movw	r3, #45652	; 0xb254
87803a1c:	f2c8 7380 	movt	r3, #34688	; 0x8780
87803a20:	685d      	ldr	r5, [r3, #4]
87803a22:	e7b8      	b.n	87803996 <vTaskGetInfo+0x12>
87803a24:	2000      	movs	r0, #0
87803a26:	e7db      	b.n	878039e0 <vTaskGetInfo+0x5c>

87803a28 <prvListTasksWithinSingleList.part.3>:
87803a28:	684b      	ldr	r3, [r1, #4]
87803a2a:	e92d 47f0 	stmdb	sp!, {r4, r5, r6, r7, r8, r9, sl, lr}
87803a2e:	f101 0808 	add.w	r8, r1, #8
87803a32:	460e      	mov	r6, r1
87803a34:	4692      	mov	sl, r2
87803a36:	4605      	mov	r5, r0
87803a38:	2700      	movs	r7, #0
87803a3a:	685b      	ldr	r3, [r3, #4]
87803a3c:	4543      	cmp	r3, r8
87803a3e:	604b      	str	r3, [r1, #4]
87803a40:	bf08      	it	eq
87803a42:	685b      	ldreq	r3, [r3, #4]
87803a44:	f8d3 900c 	ldr.w	r9, [r3, #12]
87803a48:	e000      	b.n	87803a4c <prvListTasksWithinSingleList.part.3+0x24>
87803a4a:	6873      	ldr	r3, [r6, #4]
87803a4c:	685c      	ldr	r4, [r3, #4]
87803a4e:	4629      	mov	r1, r5
87803a50:	2201      	movs	r2, #1
87803a52:	4653      	mov	r3, sl
87803a54:	4417      	add	r7, r2
87803a56:	3524      	adds	r5, #36	; 0x24
87803a58:	45a0      	cmp	r8, r4
87803a5a:	6074      	str	r4, [r6, #4]
87803a5c:	bf04      	itt	eq
87803a5e:	68f4      	ldreq	r4, [r6, #12]
87803a60:	6074      	streq	r4, [r6, #4]
87803a62:	68e4      	ldr	r4, [r4, #12]
87803a64:	4620      	mov	r0, r4
87803a66:	f7ff ff8d 	bl	87803984 <vTaskGetInfo>
87803a6a:	45a1      	cmp	r9, r4
87803a6c:	d1ed      	bne.n	87803a4a <prvListTasksWithinSingleList.part.3+0x22>
87803a6e:	4638      	mov	r0, r7
87803a70:	e8bd 87f0 	ldmia.w	sp!, {r4, r5, r6, r7, r8, r9, sl, pc}

87803a74 <uxTaskGetSystemState>:
87803a74:	e92d 43f8 	stmdb	sp!, {r3, r4, r5, r6, r7, r8, r9, lr}
87803a78:	f24b 2554 	movw	r5, #45652	; 0xb254
87803a7c:	f2c8 7580 	movt	r5, #34688	; 0x8780
87803a80:	f8d5 30f0 	ldr.w	r3, [r5, #240]	; 0xf0
87803a84:	3301      	adds	r3, #1
87803a86:	f8c5 30f0 	str.w	r3, [r5, #240]	; 0xf0
87803a8a:	6c2b      	ldr	r3, [r5, #64]	; 0x40
87803a8c:	428b      	cmp	r3, r1
87803a8e:	bf88      	it	hi
87803a90:	2400      	movhi	r4, #0
87803a92:	d825      	bhi.n	87803ae0 <uxTaskGetSystemState+0x6c>
87803a94:	4607      	mov	r7, r0
87803a96:	4690      	mov	r8, r2
87803a98:	f105 0444 	add.w	r4, r5, #68	; 0x44
87803a9c:	f1a5 0920 	sub.w	r9, r5, #32
87803aa0:	2600      	movs	r6, #0
87803aa2:	6d23      	ldr	r3, [r4, #80]	; 0x50
87803aa4:	4618      	mov	r0, r3
87803aa6:	bb03      	cbnz	r3, 87803aea <uxTaskGetSystemState+0x76>
87803aa8:	3c14      	subs	r4, #20
87803aaa:	4406      	add	r6, r0
87803aac:	454c      	cmp	r4, r9
87803aae:	d1f8      	bne.n	87803aa2 <uxTaskGetSystemState+0x2e>
87803ab0:	6a69      	ldr	r1, [r5, #36]	; 0x24
87803ab2:	6808      	ldr	r0, [r1, #0]
87803ab4:	bb60      	cbnz	r0, 87803b10 <uxTaskGetSystemState+0x9c>
87803ab6:	6a29      	ldr	r1, [r5, #32]
87803ab8:	4406      	add	r6, r0
87803aba:	6808      	ldr	r0, [r1, #0]
87803abc:	bba0      	cbnz	r0, 87803b28 <uxTaskGetSystemState+0xb4>
87803abe:	f8d5 30d0 	ldr.w	r3, [r5, #208]	; 0xd0
87803ac2:	4406      	add	r6, r0
87803ac4:	4618      	mov	r0, r3
87803ac6:	2b00      	cmp	r3, #0
87803ac8:	d13b      	bne.n	87803b42 <uxTaskGetSystemState+0xce>
87803aca:	68eb      	ldr	r3, [r5, #12]
87803acc:	4406      	add	r6, r0
87803ace:	4618      	mov	r0, r3
87803ad0:	b9ab      	cbnz	r3, 87803afe <uxTaskGetSystemState+0x8a>
87803ad2:	1984      	adds	r4, r0, r6
87803ad4:	f1b8 0f00 	cmp.w	r8, #0
87803ad8:	d002      	beq.n	87803ae0 <uxTaskGetSystemState+0x6c>
87803ada:	2300      	movs	r3, #0
87803adc:	f8c8 3000 	str.w	r3, [r8]
87803ae0:	f7ff fcac 	bl	8780343c <xTaskResumeAll>
87803ae4:	4620      	mov	r0, r4
87803ae6:	e8bd 83f8 	ldmia.w	sp!, {r3, r4, r5, r6, r7, r8, r9, pc}
87803aea:	0170      	lsls	r0, r6, #5
87803aec:	2201      	movs	r2, #1
87803aee:	f104 0150 	add.w	r1, r4, #80	; 0x50
87803af2:	eb00 0086 	add.w	r0, r0, r6, lsl #2
87803af6:	4438      	add	r0, r7
87803af8:	f7ff ff96 	bl	87803a28 <prvListTasksWithinSingleList.part.3>
87803afc:	e7d4      	b.n	87803aa8 <uxTaskGetSystemState+0x34>
87803afe:	0170      	lsls	r0, r6, #5
87803b00:	2203      	movs	r2, #3
87803b02:	4917      	ldr	r1, [pc, #92]	; (87803b60 <uxTaskGetSystemState+0xec>)
87803b04:	eb00 0086 	add.w	r0, r0, r6, lsl #2
87803b08:	4438      	add	r0, r7
87803b0a:	f7ff ff8d 	bl	87803a28 <prvListTasksWithinSingleList.part.3>
87803b0e:	e7e0      	b.n	87803ad2 <uxTaskGetSystemState+0x5e>
87803b10:	0170      	lsls	r0, r6, #5
87803b12:	2202      	movs	r2, #2
87803b14:	eb00 0086 	add.w	r0, r0, r6, lsl #2
87803b18:	4438      	add	r0, r7
87803b1a:	f7ff ff85 	bl	87803a28 <prvListTasksWithinSingleList.part.3>
87803b1e:	6a29      	ldr	r1, [r5, #32]
87803b20:	4406      	add	r6, r0
87803b22:	6808      	ldr	r0, [r1, #0]
87803b24:	2800      	cmp	r0, #0
87803b26:	d0ca      	beq.n	87803abe <uxTaskGetSystemState+0x4a>
87803b28:	0170      	lsls	r0, r6, #5
87803b2a:	2202      	movs	r2, #2
87803b2c:	eb00 0086 	add.w	r0, r0, r6, lsl #2
87803b30:	4438      	add	r0, r7
87803b32:	f7ff ff79 	bl	87803a28 <prvListTasksWithinSingleList.part.3>
87803b36:	f8d5 30d0 	ldr.w	r3, [r5, #208]	; 0xd0
87803b3a:	4406      	add	r6, r0
87803b3c:	4618      	mov	r0, r3
87803b3e:	2b00      	cmp	r3, #0
87803b40:	d0c3      	beq.n	87803aca <uxTaskGetSystemState+0x56>
87803b42:	0170      	lsls	r0, r6, #5
87803b44:	2204      	movs	r2, #4
87803b46:	4907      	ldr	r1, [pc, #28]	; (87803b64 <uxTaskGetSystemState+0xf0>)
87803b48:	eb00 0086 	add.w	r0, r0, r6, lsl #2
87803b4c:	4438      	add	r0, r7
87803b4e:	f7ff ff6b 	bl	87803a28 <prvListTasksWithinSingleList.part.3>
87803b52:	68eb      	ldr	r3, [r5, #12]
87803b54:	4406      	add	r6, r0
87803b56:	4618      	mov	r0, r3
87803b58:	2b00      	cmp	r3, #0
87803b5a:	d0ba      	beq.n	87803ad2 <uxTaskGetSystemState+0x5e>
87803b5c:	e7cf      	b.n	87803afe <uxTaskGetSystemState+0x8a>
87803b5e:	bf00      	nop
87803b60:	8780b260 	strhi	fp, [r0, r0, ror #4]
87803b64:	8780b324 	strhi	fp, [r0, r4, lsr #6]

87803b68 <xTaskGetCurrentTaskHandle>:
87803b68:	f24b 2354 	movw	r3, #45652	; 0xb254
87803b6c:	f2c8 7380 	movt	r3, #34688	; 0x8780
87803b70:	6858      	ldr	r0, [r3, #4]
87803b72:	4770      	bx	lr

87803b74 <xTaskGetSchedulerState>:
87803b74:	f24b 2354 	movw	r3, #45652	; 0xb254
87803b78:	f2c8 7380 	movt	r3, #34688	; 0x8780
87803b7c:	f8d3 20e4 	ldr.w	r2, [r3, #228]	; 0xe4
87803b80:	b132      	cbz	r2, 87803b90 <xTaskGetSchedulerState+0x1c>
87803b82:	f8d3 30f0 	ldr.w	r3, [r3, #240]	; 0xf0
87803b86:	2b00      	cmp	r3, #0
87803b88:	bf0c      	ite	eq
87803b8a:	2002      	moveq	r0, #2
87803b8c:	2000      	movne	r0, #0
87803b8e:	4770      	bx	lr
87803b90:	2001      	movs	r0, #1
87803b92:	4770      	bx	lr

87803b94 <vTaskPriorityInherit>:
87803b94:	2800      	cmp	r0, #0
87803b96:	d04a      	beq.n	87803c2e <vTaskPriorityInherit+0x9a>
87803b98:	e92d 41f0 	stmdb	sp!, {r4, r5, r6, r7, r8, lr}
87803b9c:	f24b 2454 	movw	r4, #45652	; 0xb254
87803ba0:	f2c8 7480 	movt	r4, #34688	; 0x8780
87803ba4:	6ac2      	ldr	r2, [r0, #44]	; 0x2c
87803ba6:	6863      	ldr	r3, [r4, #4]
87803ba8:	6adb      	ldr	r3, [r3, #44]	; 0x2c
87803baa:	429a      	cmp	r2, r3
87803bac:	d217      	bcs.n	87803bde <vTaskPriorityInherit+0x4a>
87803bae:	6983      	ldr	r3, [r0, #24]
87803bb0:	f24b 2554 	movw	r5, #45652	; 0xb254
87803bb4:	f2c8 7580 	movt	r5, #34688	; 0x8780
87803bb8:	6941      	ldr	r1, [r0, #20]
87803bba:	f105 0644 	add.w	r6, r5, #68	; 0x44
87803bbe:	2b00      	cmp	r3, #0
87803bc0:	bfa1      	itttt	ge
87803bc2:	6863      	ldrge	r3, [r4, #4]
87803bc4:	6adb      	ldrge	r3, [r3, #44]	; 0x2c
87803bc6:	f1c3 0305 	rsbge	r3, r3, #5
87803bca:	6183      	strge	r3, [r0, #24]
87803bcc:	0113      	lsls	r3, r2, #4
87803bce:	eb03 0382 	add.w	r3, r3, r2, lsl #2
87803bd2:	4433      	add	r3, r6
87803bd4:	4299      	cmp	r1, r3
87803bd6:	d004      	beq.n	87803be2 <vTaskPriorityInherit+0x4e>
87803bd8:	686b      	ldr	r3, [r5, #4]
87803bda:	6adb      	ldr	r3, [r3, #44]	; 0x2c
87803bdc:	62c3      	str	r3, [r0, #44]	; 0x2c
87803bde:	e8bd 81f0 	ldmia.w	sp!, {r4, r5, r6, r7, r8, pc}
87803be2:	f100 0804 	add.w	r8, r0, #4
87803be6:	4607      	mov	r7, r0
87803be8:	4640      	mov	r0, r8
87803bea:	f7fe fbfd 	bl	878023e8 <uxListRemove>
87803bee:	b960      	cbnz	r0, 87803c0a <vTaskPriorityInherit+0x76>
87803bf0:	6afa      	ldr	r2, [r7, #44]	; 0x2c
87803bf2:	0113      	lsls	r3, r2, #4
87803bf4:	eb03 0382 	add.w	r3, r3, r2, lsl #2
87803bf8:	442b      	add	r3, r5
87803bfa:	6c5b      	ldr	r3, [r3, #68]	; 0x44
87803bfc:	b92b      	cbnz	r3, 87803c0a <vTaskPriorityInherit+0x76>
87803bfe:	68a9      	ldr	r1, [r5, #8]
87803c00:	2301      	movs	r3, #1
87803c02:	4093      	lsls	r3, r2
87803c04:	ea21 0303 	bic.w	r3, r1, r3
87803c08:	60ab      	str	r3, [r5, #8]
87803c0a:	6863      	ldr	r3, [r4, #4]
87803c0c:	2501      	movs	r5, #1
87803c0e:	68a2      	ldr	r2, [r4, #8]
87803c10:	4641      	mov	r1, r8
87803c12:	6adb      	ldr	r3, [r3, #44]	; 0x2c
87803c14:	62fb      	str	r3, [r7, #44]	; 0x2c
87803c16:	0118      	lsls	r0, r3, #4
87803c18:	409d      	lsls	r5, r3
87803c1a:	eb00 0083 	add.w	r0, r0, r3, lsl #2
87803c1e:	ea45 0302 	orr.w	r3, r5, r2
87803c22:	60a3      	str	r3, [r4, #8]
87803c24:	4430      	add	r0, r6
87803c26:	e8bd 41f0 	ldmia.w	sp!, {r4, r5, r6, r7, r8, lr}
87803c2a:	f7fe bbb3 	b.w	87802394 <vListInsertEnd>
87803c2e:	4770      	bx	lr

87803c30 <xTaskPriorityDisinherit>:
87803c30:	b158      	cbz	r0, 87803c4a <xTaskPriorityDisinherit+0x1a>
87803c32:	b5f8      	push	{r3, r4, r5, r6, r7, lr}
87803c34:	f24b 2554 	movw	r5, #45652	; 0xb254
87803c38:	f2c8 7580 	movt	r5, #34688	; 0x8780
87803c3c:	4604      	mov	r4, r0
87803c3e:	686b      	ldr	r3, [r5, #4]
87803c40:	4298      	cmp	r0, r3
87803c42:	d004      	beq.n	87803c4e <xTaskPriorityDisinherit+0x1e>
87803c44:	f000 fae4 	bl	87804210 <ulPortSetInterruptMask>
87803c48:	e7fe      	b.n	87803c48 <xTaskPriorityDisinherit+0x18>
87803c4a:	2000      	movs	r0, #0
87803c4c:	4770      	bx	lr
87803c4e:	6d83      	ldr	r3, [r0, #88]	; 0x58
87803c50:	b163      	cbz	r3, 87803c6c <xTaskPriorityDisinherit+0x3c>
87803c52:	6ac1      	ldr	r1, [r0, #44]	; 0x2c
87803c54:	3b01      	subs	r3, #1
87803c56:	6d42      	ldr	r2, [r0, #84]	; 0x54
87803c58:	6583      	str	r3, [r0, #88]	; 0x58
87803c5a:	fab3 f383 	clz	r3, r3
87803c5e:	095b      	lsrs	r3, r3, #5
87803c60:	4291      	cmp	r1, r2
87803c62:	bf08      	it	eq
87803c64:	2300      	moveq	r3, #0
87803c66:	b923      	cbnz	r3, 87803c72 <xTaskPriorityDisinherit+0x42>
87803c68:	2000      	movs	r0, #0
87803c6a:	bdf8      	pop	{r3, r4, r5, r6, r7, pc}
87803c6c:	f000 fad0 	bl	87804210 <ulPortSetInterruptMask>
87803c70:	e7fe      	b.n	87803c70 <xTaskPriorityDisinherit+0x40>
87803c72:	1d07      	adds	r7, r0, #4
87803c74:	4638      	mov	r0, r7
87803c76:	f7fe fbb7 	bl	878023e8 <uxListRemove>
87803c7a:	b960      	cbnz	r0, 87803c96 <xTaskPriorityDisinherit+0x66>
87803c7c:	6ae1      	ldr	r1, [r4, #44]	; 0x2c
87803c7e:	010b      	lsls	r3, r1, #4
87803c80:	eb03 0381 	add.w	r3, r3, r1, lsl #2
87803c84:	442b      	add	r3, r5
87803c86:	6c5b      	ldr	r3, [r3, #68]	; 0x44
87803c88:	b92b      	cbnz	r3, 87803c96 <xTaskPriorityDisinherit+0x66>
87803c8a:	68ab      	ldr	r3, [r5, #8]
87803c8c:	2201      	movs	r2, #1
87803c8e:	408a      	lsls	r2, r1
87803c90:	ea23 0302 	bic.w	r3, r3, r2
87803c94:	60ab      	str	r3, [r5, #8]
87803c96:	6d63      	ldr	r3, [r4, #84]	; 0x54
87803c98:	2601      	movs	r6, #1
87803c9a:	68aa      	ldr	r2, [r5, #8]
87803c9c:	4639      	mov	r1, r7
87803c9e:	f8df e024 	ldr.w	lr, [pc, #36]	; 87803cc4 <xTaskPriorityDisinherit+0x94>
87803ca2:	62e3      	str	r3, [r4, #44]	; 0x2c
87803ca4:	0118      	lsls	r0, r3, #4
87803ca6:	fa06 f703 	lsl.w	r7, r6, r3
87803caa:	eb00 0083 	add.w	r0, r0, r3, lsl #2
87803cae:	f1c3 0305 	rsb	r3, r3, #5
87803cb2:	61a3      	str	r3, [r4, #24]
87803cb4:	ea47 0302 	orr.w	r3, r7, r2
87803cb8:	4470      	add	r0, lr
87803cba:	60ab      	str	r3, [r5, #8]
87803cbc:	f7fe fb6a 	bl	87802394 <vListInsertEnd>
87803cc0:	4630      	mov	r0, r6
87803cc2:	bdf8      	pop	{r3, r4, r5, r6, r7, pc}
87803cc4:	8780b298 			; <UNDEFINED> instruction: 0x8780b298

87803cc8 <uxTaskResetEventItemValue>:
87803cc8:	f24b 2354 	movw	r3, #45652	; 0xb254
87803ccc:	f2c8 7380 	movt	r3, #34688	; 0x8780
87803cd0:	6859      	ldr	r1, [r3, #4]
87803cd2:	685a      	ldr	r2, [r3, #4]
87803cd4:	685b      	ldr	r3, [r3, #4]
87803cd6:	6988      	ldr	r0, [r1, #24]
87803cd8:	6adb      	ldr	r3, [r3, #44]	; 0x2c
87803cda:	f1c3 0305 	rsb	r3, r3, #5
87803cde:	6193      	str	r3, [r2, #24]
87803ce0:	4770      	bx	lr
87803ce2:	bf00      	nop

87803ce4 <pvTaskIncrementMutexHeldCount>:
87803ce4:	f24b 2354 	movw	r3, #45652	; 0xb254
87803ce8:	f2c8 7380 	movt	r3, #34688	; 0x8780
87803cec:	685a      	ldr	r2, [r3, #4]
87803cee:	b11a      	cbz	r2, 87803cf8 <pvTaskIncrementMutexHeldCount+0x14>
87803cf0:	6859      	ldr	r1, [r3, #4]
87803cf2:	6d8a      	ldr	r2, [r1, #88]	; 0x58
87803cf4:	3201      	adds	r2, #1
87803cf6:	658a      	str	r2, [r1, #88]	; 0x58
87803cf8:	6858      	ldr	r0, [r3, #4]
87803cfa:	4770      	bx	lr

87803cfc <ulTaskNotifyTake>:
87803cfc:	b570      	push	{r4, r5, r6, lr}
87803cfe:	f24b 2454 	movw	r4, #45652	; 0xb254
87803d02:	f2c8 7480 	movt	r4, #34688	; 0x8780
87803d06:	4606      	mov	r6, r0
87803d08:	460d      	mov	r5, r1
87803d0a:	f000 fb15 	bl	87804338 <vPortEnterCritical>
87803d0e:	6863      	ldr	r3, [r4, #4]
87803d10:	6f1b      	ldr	r3, [r3, #112]	; 0x70
87803d12:	b923      	cbnz	r3, 87803d1e <ulTaskNotifyTake+0x22>
87803d14:	6863      	ldr	r3, [r4, #4]
87803d16:	2101      	movs	r1, #1
87803d18:	f883 1074 	strb.w	r1, [r3, #116]	; 0x74
87803d1c:	b9cd      	cbnz	r5, 87803d52 <ulTaskNotifyTake+0x56>
87803d1e:	f000 fa37 	bl	87804190 <vPortExitCritical>
87803d22:	f000 fb09 	bl	87804338 <vPortEnterCritical>
87803d26:	6862      	ldr	r2, [r4, #4]
87803d28:	f24b 2354 	movw	r3, #45652	; 0xb254
87803d2c:	f2c8 7380 	movt	r3, #34688	; 0x8780
87803d30:	6f15      	ldr	r5, [r2, #112]	; 0x70
87803d32:	b11d      	cbz	r5, 87803d3c <ulTaskNotifyTake+0x40>
87803d34:	685b      	ldr	r3, [r3, #4]
87803d36:	b94e      	cbnz	r6, 87803d4c <ulTaskNotifyTake+0x50>
87803d38:	1e6a      	subs	r2, r5, #1
87803d3a:	671a      	str	r2, [r3, #112]	; 0x70
87803d3c:	6863      	ldr	r3, [r4, #4]
87803d3e:	2200      	movs	r2, #0
87803d40:	f883 2074 	strb.w	r2, [r3, #116]	; 0x74
87803d44:	f000 fa24 	bl	87804190 <vPortExitCritical>
87803d48:	4628      	mov	r0, r5
87803d4a:	bd70      	pop	{r4, r5, r6, pc}
87803d4c:	2200      	movs	r2, #0
87803d4e:	671a      	str	r2, [r3, #112]	; 0x70
87803d50:	e7f4      	b.n	87803d3c <ulTaskNotifyTake+0x40>
87803d52:	4628      	mov	r0, r5
87803d54:	f7fe ffb8 	bl	87802cc8 <prvAddCurrentTaskToDelayedList>
87803d58:	df00      	svc	0
87803d5a:	e7e0      	b.n	87803d1e <ulTaskNotifyTake+0x22>

87803d5c <xTaskNotifyWait>:
87803d5c:	e92d 43f8 	stmdb	sp!, {r3, r4, r5, r6, r7, r8, r9, lr}
87803d60:	f24b 2454 	movw	r4, #45652	; 0xb254
87803d64:	f2c8 7480 	movt	r4, #34688	; 0x8780
87803d68:	4615      	mov	r5, r2
87803d6a:	4681      	mov	r9, r0
87803d6c:	460e      	mov	r6, r1
87803d6e:	4698      	mov	r8, r3
87803d70:	f000 fae2 	bl	87804338 <vPortEnterCritical>
87803d74:	6862      	ldr	r2, [r4, #4]
87803d76:	f892 2074 	ldrb.w	r2, [r2, #116]	; 0x74
87803d7a:	2a02      	cmp	r2, #2
87803d7c:	d00b      	beq.n	87803d96 <xTaskNotifyWait+0x3a>
87803d7e:	6867      	ldr	r7, [r4, #4]
87803d80:	2101      	movs	r1, #1
87803d82:	6f3a      	ldr	r2, [r7, #112]	; 0x70
87803d84:	ea22 0209 	bic.w	r2, r2, r9
87803d88:	673a      	str	r2, [r7, #112]	; 0x70
87803d8a:	6863      	ldr	r3, [r4, #4]
87803d8c:	f883 1074 	strb.w	r1, [r3, #116]	; 0x74
87803d90:	f1b8 0f00 	cmp.w	r8, #0
87803d94:	d121      	bne.n	87803dda <xTaskNotifyWait+0x7e>
87803d96:	f000 f9fb 	bl	87804190 <vPortExitCritical>
87803d9a:	f000 facd 	bl	87804338 <vPortEnterCritical>
87803d9e:	b115      	cbz	r5, 87803da6 <xTaskNotifyWait+0x4a>
87803da0:	6863      	ldr	r3, [r4, #4]
87803da2:	6f1b      	ldr	r3, [r3, #112]	; 0x70
87803da4:	602b      	str	r3, [r5, #0]
87803da6:	6862      	ldr	r2, [r4, #4]
87803da8:	f24b 2354 	movw	r3, #45652	; 0xb254
87803dac:	f2c8 7380 	movt	r3, #34688	; 0x8780
87803db0:	f892 2074 	ldrb.w	r2, [r2, #116]	; 0x74
87803db4:	2a01      	cmp	r2, #1
87803db6:	f04f 0200 	mov.w	r2, #0
87803dba:	bf1b      	ittet	ne
87803dbc:	685b      	ldrne	r3, [r3, #4]
87803dbe:	2501      	movne	r5, #1
87803dc0:	2500      	moveq	r5, #0
87803dc2:	6f19      	ldrne	r1, [r3, #112]	; 0x70
87803dc4:	bf1c      	itt	ne
87803dc6:	43b1      	bicne	r1, r6
87803dc8:	6719      	strne	r1, [r3, #112]	; 0x70
87803dca:	6863      	ldr	r3, [r4, #4]
87803dcc:	f883 2074 	strb.w	r2, [r3, #116]	; 0x74
87803dd0:	f000 f9de 	bl	87804190 <vPortExitCritical>
87803dd4:	4628      	mov	r0, r5
87803dd6:	e8bd 83f8 	ldmia.w	sp!, {r3, r4, r5, r6, r7, r8, r9, pc}
87803dda:	4640      	mov	r0, r8
87803ddc:	f7fe ff74 	bl	87802cc8 <prvAddCurrentTaskToDelayedList>
87803de0:	df00      	svc	0
87803de2:	e7d8      	b.n	87803d96 <xTaskNotifyWait+0x3a>

87803de4 <xTaskGenericNotify>:
87803de4:	b5f8      	push	{r3, r4, r5, r6, r7, lr}
87803de6:	4604      	mov	r4, r0
87803de8:	2800      	cmp	r0, #0
87803dea:	d04a      	beq.n	87803e82 <xTaskGenericNotify+0x9e>
87803dec:	461d      	mov	r5, r3
87803dee:	460f      	mov	r7, r1
87803df0:	4616      	mov	r6, r2
87803df2:	f000 faa1 	bl	87804338 <vPortEnterCritical>
87803df6:	b10d      	cbz	r5, 87803dfc <xTaskGenericNotify+0x18>
87803df8:	6f23      	ldr	r3, [r4, #112]	; 0x70
87803dfa:	602b      	str	r3, [r5, #0]
87803dfc:	f894 5074 	ldrb.w	r5, [r4, #116]	; 0x74
87803e00:	2202      	movs	r2, #2
87803e02:	1e73      	subs	r3, r6, #1
87803e04:	f884 2074 	strb.w	r2, [r4, #116]	; 0x74
87803e08:	b2ed      	uxtb	r5, r5
87803e0a:	2b03      	cmp	r3, #3
87803e0c:	d804      	bhi.n	87803e18 <xTaskGenericNotify+0x34>
87803e0e:	e8df f003 	tbb	[pc, r3]
87803e12:	31020a2d 	tstcc	r2, sp, lsr #20
87803e16:	6727      	str	r7, [r4, #112]	; 0x70
87803e18:	2d01      	cmp	r5, #1
87803e1a:	d00a      	beq.n	87803e32 <xTaskGenericNotify+0x4e>
87803e1c:	2501      	movs	r5, #1
87803e1e:	f000 f9b7 	bl	87804190 <vPortExitCritical>
87803e22:	4628      	mov	r0, r5
87803e24:	bdf8      	pop	{r3, r4, r5, r6, r7, pc}
87803e26:	6f23      	ldr	r3, [r4, #112]	; 0x70
87803e28:	2d01      	cmp	r5, #1
87803e2a:	f103 0301 	add.w	r3, r3, #1
87803e2e:	6723      	str	r3, [r4, #112]	; 0x70
87803e30:	d1f4      	bne.n	87803e1c <xTaskGenericNotify+0x38>
87803e32:	1d27      	adds	r7, r4, #4
87803e34:	f24b 2654 	movw	r6, #45652	; 0xb254
87803e38:	4638      	mov	r0, r7
87803e3a:	f2c8 7680 	movt	r6, #34688	; 0x8780
87803e3e:	f7fe fad3 	bl	878023e8 <uxListRemove>
87803e42:	6ae0      	ldr	r0, [r4, #44]	; 0x2c
87803e44:	4639      	mov	r1, r7
87803e46:	68b2      	ldr	r2, [r6, #8]
87803e48:	f106 0744 	add.w	r7, r6, #68	; 0x44
87803e4c:	0103      	lsls	r3, r0, #4
87803e4e:	fa05 fe00 	lsl.w	lr, r5, r0
87803e52:	eb03 0080 	add.w	r0, r3, r0, lsl #2
87803e56:	ea4e 0202 	orr.w	r2, lr, r2
87803e5a:	60b2      	str	r2, [r6, #8]
87803e5c:	4438      	add	r0, r7
87803e5e:	f7fe fa99 	bl	87802394 <vListInsertEnd>
87803e62:	6aa3      	ldr	r3, [r4, #40]	; 0x28
87803e64:	b183      	cbz	r3, 87803e88 <xTaskGenericNotify+0xa4>
87803e66:	f000 f9d3 	bl	87804210 <ulPortSetInterruptMask>
87803e6a:	e7fe      	b.n	87803e6a <xTaskGenericNotify+0x86>
87803e6c:	6f23      	ldr	r3, [r4, #112]	; 0x70
87803e6e:	431f      	orrs	r7, r3
87803e70:	6727      	str	r7, [r4, #112]	; 0x70
87803e72:	e7d1      	b.n	87803e18 <xTaskGenericNotify+0x34>
87803e74:	2d02      	cmp	r5, #2
87803e76:	d1ce      	bne.n	87803e16 <xTaskGenericNotify+0x32>
87803e78:	2500      	movs	r5, #0
87803e7a:	f000 f989 	bl	87804190 <vPortExitCritical>
87803e7e:	4628      	mov	r0, r5
87803e80:	bdf8      	pop	{r3, r4, r5, r6, r7, pc}
87803e82:	f000 f9c5 	bl	87804210 <ulPortSetInterruptMask>
87803e86:	e7fe      	b.n	87803e86 <xTaskGenericNotify+0xa2>
87803e88:	6873      	ldr	r3, [r6, #4]
87803e8a:	6ae2      	ldr	r2, [r4, #44]	; 0x2c
87803e8c:	6adb      	ldr	r3, [r3, #44]	; 0x2c
87803e8e:	429a      	cmp	r2, r3
87803e90:	d9c4      	bls.n	87803e1c <xTaskGenericNotify+0x38>
87803e92:	df00      	svc	0
87803e94:	f000 f97c 	bl	87804190 <vPortExitCritical>
87803e98:	4628      	mov	r0, r5
87803e9a:	bdf8      	pop	{r3, r4, r5, r6, r7, pc}

87803e9c <xTaskGenericNotifyFromISR>:
87803e9c:	e92d 43f8 	stmdb	sp!, {r3, r4, r5, r6, r7, r8, r9, lr}
87803ea0:	4604      	mov	r4, r0
87803ea2:	f8dd 8020 	ldr.w	r8, [sp, #32]
87803ea6:	2800      	cmp	r0, #0
87803ea8:	d039      	beq.n	87803f1e <xTaskGenericNotifyFromISR+0x82>
87803eaa:	461e      	mov	r6, r3
87803eac:	4689      	mov	r9, r1
87803eae:	4615      	mov	r5, r2
87803eb0:	f000 fa5a 	bl	87804368 <vPortValidateInterruptPriority>
87803eb4:	f000 f9ac 	bl	87804210 <ulPortSetInterruptMask>
87803eb8:	4607      	mov	r7, r0
87803eba:	b10e      	cbz	r6, 87803ec0 <xTaskGenericNotifyFromISR+0x24>
87803ebc:	6f23      	ldr	r3, [r4, #112]	; 0x70
87803ebe:	6033      	str	r3, [r6, #0]
87803ec0:	f894 6074 	ldrb.w	r6, [r4, #116]	; 0x74
87803ec4:	2202      	movs	r2, #2
87803ec6:	1e6b      	subs	r3, r5, #1
87803ec8:	f884 2074 	strb.w	r2, [r4, #116]	; 0x74
87803ecc:	b2f6      	uxtb	r6, r6
87803ece:	2b03      	cmp	r3, #3
87803ed0:	d805      	bhi.n	87803ede <xTaskGenericNotifyFromISR+0x42>
87803ed2:	e8df f003 	tbb	[pc, r3]
87803ed6:	1b021216 	blne	87888736 <__bss_end+0x70352>
87803eda:	f8c4 9070 	str.w	r9, [r4, #112]	; 0x70
87803ede:	2e01      	cmp	r6, #1
87803ee0:	d104      	bne.n	87803eec <xTaskGenericNotifyFromISR+0x50>
87803ee2:	6aa3      	ldr	r3, [r4, #40]	; 0x28
87803ee4:	b1f3      	cbz	r3, 87803f24 <xTaskGenericNotifyFromISR+0x88>
87803ee6:	f000 f993 	bl	87804210 <ulPortSetInterruptMask>
87803eea:	e7fe      	b.n	87803eea <xTaskGenericNotifyFromISR+0x4e>
87803eec:	4638      	mov	r0, r7
87803eee:	2401      	movs	r4, #1
87803ef0:	f000 f978 	bl	878041e4 <vPortClearInterruptMask>
87803ef4:	4620      	mov	r0, r4
87803ef6:	e8bd 83f8 	ldmia.w	sp!, {r3, r4, r5, r6, r7, r8, r9, pc}
87803efa:	6f23      	ldr	r3, [r4, #112]	; 0x70
87803efc:	3301      	adds	r3, #1
87803efe:	6723      	str	r3, [r4, #112]	; 0x70
87803f00:	e7ed      	b.n	87803ede <xTaskGenericNotifyFromISR+0x42>
87803f02:	6f23      	ldr	r3, [r4, #112]	; 0x70
87803f04:	ea49 0303 	orr.w	r3, r9, r3
87803f08:	6723      	str	r3, [r4, #112]	; 0x70
87803f0a:	e7e8      	b.n	87803ede <xTaskGenericNotifyFromISR+0x42>
87803f0c:	2e02      	cmp	r6, #2
87803f0e:	d1e4      	bne.n	87803eda <xTaskGenericNotifyFromISR+0x3e>
87803f10:	4638      	mov	r0, r7
87803f12:	2400      	movs	r4, #0
87803f14:	f000 f966 	bl	878041e4 <vPortClearInterruptMask>
87803f18:	4620      	mov	r0, r4
87803f1a:	e8bd 83f8 	ldmia.w	sp!, {r3, r4, r5, r6, r7, r8, r9, pc}
87803f1e:	f000 f977 	bl	87804210 <ulPortSetInterruptMask>
87803f22:	e7fe      	b.n	87803f22 <xTaskGenericNotifyFromISR+0x86>
87803f24:	f24b 2554 	movw	r5, #45652	; 0xb254
87803f28:	f2c8 7580 	movt	r5, #34688	; 0x8780
87803f2c:	f8d5 30f0 	ldr.w	r3, [r5, #240]	; 0xf0
87803f30:	bb3b      	cbnz	r3, 87803f82 <xTaskGenericNotifyFromISR+0xe6>
87803f32:	f104 0904 	add.w	r9, r4, #4
87803f36:	4648      	mov	r0, r9
87803f38:	f7fe fa56 	bl	878023e8 <uxListRemove>
87803f3c:	6ae0      	ldr	r0, [r4, #44]	; 0x2c
87803f3e:	f105 0e44 	add.w	lr, r5, #68	; 0x44
87803f42:	68aa      	ldr	r2, [r5, #8]
87803f44:	4649      	mov	r1, r9
87803f46:	0103      	lsls	r3, r0, #4
87803f48:	4086      	lsls	r6, r0
87803f4a:	eb03 0080 	add.w	r0, r3, r0, lsl #2
87803f4e:	4316      	orrs	r6, r2
87803f50:	60ae      	str	r6, [r5, #8]
87803f52:	4470      	add	r0, lr
87803f54:	f7fe fa1e 	bl	87802394 <vListInsertEnd>
87803f58:	686a      	ldr	r2, [r5, #4]
87803f5a:	f24b 2354 	movw	r3, #45652	; 0xb254
87803f5e:	6ae1      	ldr	r1, [r4, #44]	; 0x2c
87803f60:	f2c8 7380 	movt	r3, #34688	; 0x8780
87803f64:	6ad2      	ldr	r2, [r2, #44]	; 0x2c
87803f66:	4291      	cmp	r1, r2
87803f68:	d9c0      	bls.n	87803eec <xTaskGenericNotifyFromISR+0x50>
87803f6a:	2401      	movs	r4, #1
87803f6c:	f1b8 0f00 	cmp.w	r8, #0
87803f70:	d00e      	beq.n	87803f90 <xTaskGenericNotifyFromISR+0xf4>
87803f72:	4638      	mov	r0, r7
87803f74:	f8c8 4000 	str.w	r4, [r8]
87803f78:	f000 f934 	bl	878041e4 <vPortClearInterruptMask>
87803f7c:	4620      	mov	r0, r4
87803f7e:	e8bd 83f8 	ldmia.w	sp!, {r3, r4, r5, r6, r7, r8, r9, pc}
87803f82:	f104 0118 	add.w	r1, r4, #24
87803f86:	f105 002c 	add.w	r0, r5, #44	; 0x2c
87803f8a:	f7fe fa03 	bl	87802394 <vListInsertEnd>
87803f8e:	e7e3      	b.n	87803f58 <xTaskGenericNotifyFromISR+0xbc>
87803f90:	4638      	mov	r0, r7
87803f92:	f8c3 4100 	str.w	r4, [r3, #256]	; 0x100
87803f96:	f000 f925 	bl	878041e4 <vPortClearInterruptMask>
87803f9a:	4620      	mov	r0, r4
87803f9c:	e8bd 83f8 	ldmia.w	sp!, {r3, r4, r5, r6, r7, r8, r9, pc}

87803fa0 <vTaskNotifyGiveFromISR>:
87803fa0:	e92d 43f8 	stmdb	sp!, {r3, r4, r5, r6, r7, r8, r9, lr}
87803fa4:	4604      	mov	r4, r0
87803fa6:	2800      	cmp	r0, #0
87803fa8:	d040      	beq.n	8780402c <vTaskNotifyGiveFromISR+0x8c>
87803faa:	460f      	mov	r7, r1
87803fac:	f000 f9dc 	bl	87804368 <vPortValidateInterruptPriority>
87803fb0:	f000 f92e 	bl	87804210 <ulPortSetInterruptMask>
87803fb4:	f894 6074 	ldrb.w	r6, [r4, #116]	; 0x74
87803fb8:	2302      	movs	r3, #2
87803fba:	f884 3074 	strb.w	r3, [r4, #116]	; 0x74
87803fbe:	4680      	mov	r8, r0
87803fc0:	6f23      	ldr	r3, [r4, #112]	; 0x70
87803fc2:	b2f6      	uxtb	r6, r6
87803fc4:	3301      	adds	r3, #1
87803fc6:	2e01      	cmp	r6, #1
87803fc8:	6723      	str	r3, [r4, #112]	; 0x70
87803fca:	d12a      	bne.n	87804022 <vTaskNotifyGiveFromISR+0x82>
87803fcc:	6aa3      	ldr	r3, [r4, #40]	; 0x28
87803fce:	b113      	cbz	r3, 87803fd6 <vTaskNotifyGiveFromISR+0x36>
87803fd0:	f000 f91e 	bl	87804210 <ulPortSetInterruptMask>
87803fd4:	e7fe      	b.n	87803fd4 <vTaskNotifyGiveFromISR+0x34>
87803fd6:	f24b 2554 	movw	r5, #45652	; 0xb254
87803fda:	f2c8 7580 	movt	r5, #34688	; 0x8780
87803fde:	f8d5 30f0 	ldr.w	r3, [r5, #240]	; 0xf0
87803fe2:	bb33      	cbnz	r3, 87804032 <vTaskNotifyGiveFromISR+0x92>
87803fe4:	f104 0904 	add.w	r9, r4, #4
87803fe8:	4648      	mov	r0, r9
87803fea:	f7fe f9fd 	bl	878023e8 <uxListRemove>
87803fee:	6ae0      	ldr	r0, [r4, #44]	; 0x2c
87803ff0:	f105 0e44 	add.w	lr, r5, #68	; 0x44
87803ff4:	68aa      	ldr	r2, [r5, #8]
87803ff6:	4649      	mov	r1, r9
87803ff8:	0103      	lsls	r3, r0, #4
87803ffa:	4086      	lsls	r6, r0
87803ffc:	eb03 0080 	add.w	r0, r3, r0, lsl #2
87804000:	4316      	orrs	r6, r2
87804002:	60ae      	str	r6, [r5, #8]
87804004:	4470      	add	r0, lr
87804006:	f7fe f9c5 	bl	87802394 <vListInsertEnd>
8780400a:	686a      	ldr	r2, [r5, #4]
8780400c:	f24b 2354 	movw	r3, #45652	; 0xb254
87804010:	6ae1      	ldr	r1, [r4, #44]	; 0x2c
87804012:	f2c8 7380 	movt	r3, #34688	; 0x8780
87804016:	6ad2      	ldr	r2, [r2, #44]	; 0x2c
87804018:	4291      	cmp	r1, r2
8780401a:	d902      	bls.n	87804022 <vTaskNotifyGiveFromISR+0x82>
8780401c:	b187      	cbz	r7, 87804040 <vTaskNotifyGiveFromISR+0xa0>
8780401e:	2301      	movs	r3, #1
87804020:	603b      	str	r3, [r7, #0]
87804022:	4640      	mov	r0, r8
87804024:	e8bd 43f8 	ldmia.w	sp!, {r3, r4, r5, r6, r7, r8, r9, lr}
87804028:	f000 b8dc 	b.w	878041e4 <vPortClearInterruptMask>
8780402c:	f000 f8f0 	bl	87804210 <ulPortSetInterruptMask>
87804030:	e7fe      	b.n	87804030 <vTaskNotifyGiveFromISR+0x90>
87804032:	f104 0118 	add.w	r1, r4, #24
87804036:	f105 002c 	add.w	r0, r5, #44	; 0x2c
8780403a:	f7fe f9ab 	bl	87802394 <vListInsertEnd>
8780403e:	e7e4      	b.n	8780400a <vTaskNotifyGiveFromISR+0x6a>
87804040:	2201      	movs	r2, #1
87804042:	4640      	mov	r0, r8
87804044:	f8c3 2100 	str.w	r2, [r3, #256]	; 0x100
87804048:	e8bd 43f8 	ldmia.w	sp!, {r3, r4, r5, r6, r7, r8, r9, lr}
8780404c:	f000 b8ca 	b.w	878041e4 <vPortClearInterruptMask>

87804050 <xTaskNotifyStateClear>:
87804050:	b538      	push	{r3, r4, r5, lr}
87804052:	4604      	mov	r4, r0
87804054:	b170      	cbz	r0, 87804074 <xTaskNotifyStateClear+0x24>
87804056:	f000 f96f 	bl	87804338 <vPortEnterCritical>
8780405a:	f894 3074 	ldrb.w	r3, [r4, #116]	; 0x74
8780405e:	2b02      	cmp	r3, #2
87804060:	bf05      	ittet	eq
87804062:	2300      	moveq	r3, #0
87804064:	2501      	moveq	r5, #1
87804066:	2500      	movne	r5, #0
87804068:	f884 3074 	strbeq.w	r3, [r4, #116]	; 0x74
8780406c:	f000 f890 	bl	87804190 <vPortExitCritical>
87804070:	4628      	mov	r0, r5
87804072:	bd38      	pop	{r3, r4, r5, pc}
87804074:	f24b 2354 	movw	r3, #45652	; 0xb254
87804078:	f2c8 7380 	movt	r3, #34688	; 0x8780
8780407c:	685c      	ldr	r4, [r3, #4]
8780407e:	e7ea      	b.n	87804056 <xTaskNotifyStateClear+0x6>

87804080 <FreeRTOS_Tick_Handler>:
87804080:	b508      	push	{r3, lr}
87804082:	b672      	cpsid	i
87804084:	f3bf 8f4f 	dsb	sy
87804088:	f3bf 8f6f 	isb	sy
8780408c:	f242 0304 	movw	r3, #8196	; 0x2004
87804090:	22a0      	movs	r2, #160	; 0xa0
87804092:	f2c0 03a0 	movt	r3, #160	; 0xa0
87804096:	601a      	str	r2, [r3, #0]
87804098:	f3bf 8f4f 	dsb	sy
8780409c:	f3bf 8f6f 	isb	sy
878040a0:	b662      	cpsie	i
878040a2:	f3bf 8f4f 	dsb	sy
878040a6:	f3bf 8f6f 	isb	sy
878040aa:	f7ff f957 	bl	8780335c <xTaskIncrementTick>
878040ae:	b128      	cbz	r0, 878040bc <FreeRTOS_Tick_Handler+0x3c>
878040b0:	f24b 3358 	movw	r3, #45912	; 0xb358
878040b4:	2201      	movs	r2, #1
878040b6:	f2c8 7380 	movt	r3, #34688	; 0x8780
878040ba:	601a      	str	r2, [r3, #0]
878040bc:	b672      	cpsid	i
878040be:	f3bf 8f4f 	dsb	sy
878040c2:	f3bf 8f6f 	isb	sy
878040c6:	f242 0304 	movw	r3, #8196	; 0x2004
878040ca:	22ff      	movs	r2, #255	; 0xff
878040cc:	f2c0 03a0 	movt	r3, #160	; 0xa0
878040d0:	601a      	str	r2, [r3, #0]
878040d2:	f3bf 8f4f 	dsb	sy
878040d6:	f3bf 8f6f 	isb	sy
878040da:	b662      	cpsie	i
878040dc:	f3bf 8f4f 	dsb	sy
878040e0:	f3bf 8f6f 	isb	sy
878040e4:	e8bd 4008 	ldmia.w	sp!, {r3, lr}
878040e8:	f7fc bd86 	b.w	87800bf8 <SystemClearSystickFlag>

878040ec <pxPortInitialiseStack>:
878040ec:	4603      	mov	r3, r0
878040ee:	f011 0f01 	tst.w	r1, #1
878040f2:	f244 2049 	movw	r0, #16969	; 0x4249
878040f6:	b5f0      	push	{r4, r5, r6, r7, lr}
878040f8:	f2c8 7080 	movt	r0, #34688	; 0x8780
878040fc:	bf0c      	ite	eq
878040fe:	f04f 0e1f 	moveq.w	lr, #31
87804102:	f04f 0e3f 	movne.w	lr, #63	; 0x3f
87804106:	f04f 3712 	mov.w	r7, #303174162	; 0x12121212
8780410a:	f843 1c10 	str.w	r1, [r3, #-16]
8780410e:	f04f 3611 	mov.w	r6, #286331153	; 0x11111111
87804112:	f843 2c48 	str.w	r2, [r3, #-72]
87804116:	f04f 3510 	mov.w	r5, #269488144	; 0x10101010
8780411a:	f04f 3409 	mov.w	r4, #151587081	; 0x9090909
8780411e:	f04f 3108 	mov.w	r1, #134744072	; 0x8080808
87804122:	f04f 3206 	mov.w	r2, #101058054	; 0x6060606
87804126:	f843 ec0c 	str.w	lr, [r3, #-12]
8780412a:	f843 0c14 	str.w	r0, [r3, #-20]
8780412e:	f04f 3e07 	mov.w	lr, #117901063	; 0x7070707
87804132:	f843 7c18 	str.w	r7, [r3, #-24]
87804136:	4618      	mov	r0, r3
87804138:	f843 6c1c 	str.w	r6, [r3, #-28]
8780413c:	f04f 3705 	mov.w	r7, #84215045	; 0x5050505
87804140:	f843 5c20 	str.w	r5, [r3, #-32]
87804144:	f04f 3604 	mov.w	r6, #67372036	; 0x4040404
87804148:	f843 4c24 	str.w	r4, [r3, #-36]
8780414c:	f04f 3503 	mov.w	r5, #50529027	; 0x3030303
87804150:	f843 1c28 	str.w	r1, [r3, #-40]
87804154:	f04f 3402 	mov.w	r4, #33686018	; 0x2020202
87804158:	f843 2c30 	str.w	r2, [r3, #-48]
8780415c:	f04f 3101 	mov.w	r1, #16843009	; 0x1010101
87804160:	2200      	movs	r2, #0
87804162:	f843 ec2c 	str.w	lr, [r3, #-44]
87804166:	f843 7c34 	str.w	r7, [r3, #-52]
8780416a:	f843 6c38 	str.w	r6, [r3, #-56]
8780416e:	f843 5c3c 	str.w	r5, [r3, #-60]
87804172:	f843 4c40 	str.w	r4, [r3, #-64]
87804176:	f843 1c44 	str.w	r1, [r3, #-68]
8780417a:	601a      	str	r2, [r3, #0]
8780417c:	f843 2c04 	str.w	r2, [r3, #-4]
87804180:	f843 2c08 	str.w	r2, [r3, #-8]
87804184:	f843 2c4c 	str.w	r2, [r3, #-76]
87804188:	f840 2d50 	str.w	r2, [r0, #-80]!
8780418c:	bdf0      	pop	{r4, r5, r6, r7, pc}
8780418e:	bf00      	nop

87804190 <vPortExitCritical>:
87804190:	f64a 4348 	movw	r3, #44104	; 0xac48
87804194:	f2c8 7380 	movt	r3, #34688	; 0x8780
87804198:	681a      	ldr	r2, [r3, #0]
8780419a:	b1c2      	cbz	r2, 878041ce <vPortExitCritical+0x3e>
8780419c:	681a      	ldr	r2, [r3, #0]
8780419e:	3a01      	subs	r2, #1
878041a0:	601a      	str	r2, [r3, #0]
878041a2:	681b      	ldr	r3, [r3, #0]
878041a4:	b99b      	cbnz	r3, 878041ce <vPortExitCritical+0x3e>
878041a6:	b672      	cpsid	i
878041a8:	f3bf 8f4f 	dsb	sy
878041ac:	f3bf 8f6f 	isb	sy
878041b0:	f242 0304 	movw	r3, #8196	; 0x2004
878041b4:	22ff      	movs	r2, #255	; 0xff
878041b6:	f2c0 03a0 	movt	r3, #160	; 0xa0
878041ba:	601a      	str	r2, [r3, #0]
878041bc:	f3bf 8f4f 	dsb	sy
878041c0:	f3bf 8f6f 	isb	sy
878041c4:	b662      	cpsie	i
878041c6:	f3bf 8f4f 	dsb	sy
878041ca:	f3bf 8f6f 	isb	sy
878041ce:	4770      	bx	lr

878041d0 <vPortTaskUsesFPU>:
878041d0:	f24b 3358 	movw	r3, #45912	; 0xb358
878041d4:	2101      	movs	r1, #1
878041d6:	f2c8 7380 	movt	r3, #34688	; 0x8780
878041da:	2200      	movs	r2, #0
878041dc:	6059      	str	r1, [r3, #4]
878041de:	eee1 2a10 	vmsr	fpscr, r2
878041e2:	4770      	bx	lr

878041e4 <vPortClearInterruptMask>:
878041e4:	b998      	cbnz	r0, 8780420e <vPortClearInterruptMask+0x2a>
878041e6:	b672      	cpsid	i
878041e8:	f3bf 8f4f 	dsb	sy
878041ec:	f3bf 8f6f 	isb	sy
878041f0:	f242 0304 	movw	r3, #8196	; 0x2004
878041f4:	22ff      	movs	r2, #255	; 0xff
878041f6:	f2c0 03a0 	movt	r3, #160	; 0xa0
878041fa:	601a      	str	r2, [r3, #0]
878041fc:	f3bf 8f4f 	dsb	sy
87804200:	f3bf 8f6f 	isb	sy
87804204:	b662      	cpsie	i
87804206:	f3bf 8f4f 	dsb	sy
8780420a:	f3bf 8f6f 	isb	sy
8780420e:	4770      	bx	lr

87804210 <ulPortSetInterruptMask>:
87804210:	b672      	cpsid	i
87804212:	f3bf 8f4f 	dsb	sy
87804216:	f3bf 8f6f 	isb	sy
8780421a:	f242 0304 	movw	r3, #8196	; 0x2004
8780421e:	f2c0 03a0 	movt	r3, #160	; 0xa0
87804222:	681a      	ldr	r2, [r3, #0]
87804224:	2aa0      	cmp	r2, #160	; 0xa0
87804226:	bf08      	it	eq
87804228:	2001      	moveq	r0, #1
8780422a:	d006      	beq.n	8780423a <ulPortSetInterruptMask+0x2a>
8780422c:	22a0      	movs	r2, #160	; 0xa0
8780422e:	601a      	str	r2, [r3, #0]
87804230:	f3bf 8f4f 	dsb	sy
87804234:	f3bf 8f6f 	isb	sy
87804238:	2000      	movs	r0, #0
8780423a:	b662      	cpsie	i
8780423c:	f3bf 8f4f 	dsb	sy
87804240:	f3bf 8f6f 	isb	sy
87804244:	4770      	bx	lr
87804246:	bf00      	nop

87804248 <prvTaskExitError>:
87804248:	b508      	push	{r3, lr}
8780424a:	f24b 3358 	movw	r3, #45912	; 0xb358
8780424e:	f2c8 7380 	movt	r3, #34688	; 0x8780
87804252:	689b      	ldr	r3, [r3, #8]
87804254:	3301      	adds	r3, #1
87804256:	d002      	beq.n	8780425e <prvTaskExitError+0x16>
87804258:	f7ff ffda 	bl	87804210 <ulPortSetInterruptMask>
8780425c:	e7fe      	b.n	8780425c <prvTaskExitError+0x14>
8780425e:	f7ff ffd7 	bl	87804210 <ulPortSetInterruptMask>
87804262:	e7fe      	b.n	87804262 <prvTaskExitError+0x1a>

87804264 <xPortStartScheduler>:
87804264:	f44f 53a0 	mov.w	r3, #5120	; 0x1400
87804268:	b500      	push	{lr}
8780426a:	f2c0 03a0 	movt	r3, #160	; 0xa0
8780426e:	b083      	sub	sp, #12
87804270:	21ff      	movs	r1, #255	; 0xff
87804272:	781a      	ldrb	r2, [r3, #0]
87804274:	b2d2      	uxtb	r2, r2
87804276:	9201      	str	r2, [sp, #4]
87804278:	7019      	strb	r1, [r3, #0]
8780427a:	781b      	ldrb	r3, [r3, #0]
8780427c:	b2db      	uxtb	r3, r3
8780427e:	f88d 3003 	strb.w	r3, [sp, #3]
87804282:	f89d 3003 	ldrb.w	r3, [sp, #3]
87804286:	07da      	lsls	r2, r3, #31
87804288:	d408      	bmi.n	8780429c <xPortStartScheduler+0x38>
8780428a:	f89d 3003 	ldrb.w	r3, [sp, #3]
8780428e:	085b      	lsrs	r3, r3, #1
87804290:	f88d 3003 	strb.w	r3, [sp, #3]
87804294:	f89d 3003 	ldrb.w	r3, [sp, #3]
87804298:	07db      	lsls	r3, r3, #31
8780429a:	d5f6      	bpl.n	8780428a <xPortStartScheduler+0x26>
8780429c:	f89d 3003 	ldrb.w	r3, [sp, #3]
878042a0:	2b1f      	cmp	r3, #31
878042a2:	d002      	beq.n	878042aa <xPortStartScheduler+0x46>
878042a4:	f7ff ffb4 	bl	87804210 <ulPortSetInterruptMask>
878042a8:	e7fe      	b.n	878042a8 <xPortStartScheduler+0x44>
878042aa:	9b01      	ldr	r3, [sp, #4]
878042ac:	f44f 52a0 	mov.w	r2, #5120	; 0x1400
878042b0:	f2c0 02a0 	movt	r2, #160	; 0xa0
878042b4:	b2db      	uxtb	r3, r3
878042b6:	7013      	strb	r3, [r2, #0]
878042b8:	f3ef 8300 	mrs	r3, CPSR
878042bc:	f003 031f 	and.w	r3, r3, #31
878042c0:	2b10      	cmp	r3, #16
878042c2:	d011      	beq.n	878042e8 <xPortStartScheduler+0x84>
878042c4:	f242 0308 	movw	r3, #8200	; 0x2008
878042c8:	f2c0 03a0 	movt	r3, #160	; 0xa0
878042cc:	681a      	ldr	r2, [r3, #0]
878042ce:	f002 0203 	and.w	r2, r2, #3
878042d2:	2a03      	cmp	r2, #3
878042d4:	d01f      	beq.n	87804316 <xPortStartScheduler+0xb2>
878042d6:	681b      	ldr	r3, [r3, #0]
878042d8:	f003 0303 	and.w	r3, r3, #3
878042dc:	2b03      	cmp	r3, #3
878042de:	d106      	bne.n	878042ee <xPortStartScheduler+0x8a>
878042e0:	2000      	movs	r0, #0
878042e2:	b003      	add	sp, #12
878042e4:	f85d fb04 	ldr.w	pc, [sp], #4
878042e8:	f7ff ff92 	bl	87804210 <ulPortSetInterruptMask>
878042ec:	e7fe      	b.n	878042ec <xPortStartScheduler+0x88>
878042ee:	b672      	cpsid	i
878042f0:	f3bf 8f4f 	dsb	sy
878042f4:	f3bf 8f6f 	isb	sy
878042f8:	f244 0181 	movw	r1, #16513	; 0x4081
878042fc:	221e      	movs	r2, #30
878042fe:	f2c8 7180 	movt	r1, #34688	; 0x8780
87804302:	f44f 707a 	mov.w	r0, #1000	; 0x3e8
87804306:	f7fc fc33 	bl	87800b70 <SystemSetupSystick>
8780430a:	f7fb ef86 	blx	87800218 <vPortRestoreTaskContext>
8780430e:	2000      	movs	r0, #0
87804310:	b003      	add	sp, #12
87804312:	f85d fb04 	ldr.w	pc, [sp], #4
87804316:	f7ff ff7b 	bl	87804210 <ulPortSetInterruptMask>
8780431a:	e7fe      	b.n	8780431a <xPortStartScheduler+0xb6>

8780431c <vPortEndScheduler>:
8780431c:	b508      	push	{r3, lr}
8780431e:	f64a 4348 	movw	r3, #44104	; 0xac48
87804322:	f2c8 7380 	movt	r3, #34688	; 0x8780
87804326:	681b      	ldr	r3, [r3, #0]
87804328:	f5b3 7f7a 	cmp.w	r3, #1000	; 0x3e8
8780432c:	d002      	beq.n	87804334 <vPortEndScheduler+0x18>
8780432e:	f7ff ff6f 	bl	87804210 <ulPortSetInterruptMask>
87804332:	e7fe      	b.n	87804332 <vPortEndScheduler+0x16>
87804334:	bd08      	pop	{r3, pc}
87804336:	bf00      	nop

87804338 <vPortEnterCritical>:
87804338:	b508      	push	{r3, lr}
8780433a:	f7ff ff69 	bl	87804210 <ulPortSetInterruptMask>
8780433e:	f64a 4348 	movw	r3, #44104	; 0xac48
87804342:	f2c8 7380 	movt	r3, #34688	; 0x8780
87804346:	681a      	ldr	r2, [r3, #0]
87804348:	3201      	adds	r2, #1
8780434a:	601a      	str	r2, [r3, #0]
8780434c:	681b      	ldr	r3, [r3, #0]
8780434e:	2b01      	cmp	r3, #1
87804350:	d000      	beq.n	87804354 <vPortEnterCritical+0x1c>
87804352:	bd08      	pop	{r3, pc}
87804354:	f24b 3358 	movw	r3, #45912	; 0xb358
87804358:	f2c8 7380 	movt	r3, #34688	; 0x8780
8780435c:	689b      	ldr	r3, [r3, #8]
8780435e:	2b00      	cmp	r3, #0
87804360:	d0f7      	beq.n	87804352 <vPortEnterCritical+0x1a>
87804362:	f7ff ff55 	bl	87804210 <ulPortSetInterruptMask>
87804366:	e7fe      	b.n	87804366 <vPortEnterCritical+0x2e>

87804368 <vPortValidateInterruptPriority>:
87804368:	b508      	push	{r3, lr}
8780436a:	f242 0314 	movw	r3, #8212	; 0x2014
8780436e:	f2c0 03a0 	movt	r3, #160	; 0xa0
87804372:	681b      	ldr	r3, [r3, #0]
87804374:	2b9f      	cmp	r3, #159	; 0x9f
87804376:	d909      	bls.n	8780438c <vPortValidateInterruptPriority+0x24>
87804378:	f242 0308 	movw	r3, #8200	; 0x2008
8780437c:	f2c0 03a0 	movt	r3, #160	; 0xa0
87804380:	681b      	ldr	r3, [r3, #0]
87804382:	f003 0303 	and.w	r3, r3, #3
87804386:	2b03      	cmp	r3, #3
87804388:	d003      	beq.n	87804392 <vPortValidateInterruptPriority+0x2a>
8780438a:	bd08      	pop	{r3, pc}
8780438c:	f7ff ff40 	bl	87804210 <ulPortSetInterruptMask>
87804390:	e7fe      	b.n	87804390 <vPortValidateInterruptPriority+0x28>
87804392:	f7ff ff3d 	bl	87804210 <ulPortSetInterruptMask>
87804396:	e7fe      	b.n	87804396 <vPortValidateInterruptPriority+0x2e>

87804398 <vApplicationFPUSafeIRQHandler>:
87804398:	f7fc bbc4 	b.w	87800b24 <SystemIrqHandler>

8780439c <prvInsertBlockIntoFreeList>:
8780439c:	f24b 3164 	movw	r1, #45924	; 0xb364
878043a0:	f2c8 7180 	movt	r1, #34688	; 0x8780
878043a4:	460a      	mov	r2, r1
878043a6:	e000      	b.n	878043aa <prvInsertBlockIntoFreeList+0xe>
878043a8:	461a      	mov	r2, r3
878043aa:	6813      	ldr	r3, [r2, #0]
878043ac:	4283      	cmp	r3, r0
878043ae:	d3fb      	bcc.n	878043a8 <prvInsertBlockIntoFreeList+0xc>
878043b0:	b430      	push	{r4, r5}
878043b2:	6855      	ldr	r5, [r2, #4]
878043b4:	1954      	adds	r4, r2, r5
878043b6:	4284      	cmp	r4, r0
878043b8:	6844      	ldr	r4, [r0, #4]
878043ba:	bf04      	itt	eq
878043bc:	4610      	moveq	r0, r2
878043be:	1964      	addeq	r4, r4, r5
878043c0:	eb00 0504 	add.w	r5, r0, r4
878043c4:	bf08      	it	eq
878043c6:	6054      	streq	r4, [r2, #4]
878043c8:	42ab      	cmp	r3, r5
878043ca:	d005      	beq.n	878043d8 <prvInsertBlockIntoFreeList+0x3c>
878043cc:	4290      	cmp	r0, r2
878043ce:	6003      	str	r3, [r0, #0]
878043d0:	bc30      	pop	{r4, r5}
878043d2:	bf18      	it	ne
878043d4:	6010      	strne	r0, [r2, #0]
878043d6:	4770      	bx	lr
878043d8:	6889      	ldr	r1, [r1, #8]
878043da:	428b      	cmp	r3, r1
878043dc:	d0f6      	beq.n	878043cc <prvInsertBlockIntoFreeList+0x30>
878043de:	6859      	ldr	r1, [r3, #4]
878043e0:	4290      	cmp	r0, r2
878043e2:	681b      	ldr	r3, [r3, #0]
878043e4:	440c      	add	r4, r1
878043e6:	e880 0018 	stmia.w	r0, {r3, r4}
878043ea:	bf18      	it	ne
878043ec:	6010      	strne	r0, [r2, #0]
878043ee:	bc30      	pop	{r4, r5}
878043f0:	4770      	bx	lr
878043f2:	bf00      	nop

878043f4 <pvPortMalloc>:
878043f4:	e92d 41f0 	stmdb	sp!, {r4, r5, r6, r7, r8, lr}
878043f8:	4604      	mov	r4, r0
878043fa:	f7fe ff7f 	bl	878032fc <vTaskSuspendAll>
878043fe:	f24b 3264 	movw	r2, #45924	; 0xb364
87804402:	f2c8 7280 	movt	r2, #34688	; 0x8780
87804406:	6893      	ldr	r3, [r2, #8]
87804408:	2b00      	cmp	r3, #0
8780440a:	d059      	beq.n	878044c0 <pvPortMalloc+0xcc>
8780440c:	68d7      	ldr	r7, [r2, #12]
8780440e:	4227      	tst	r7, r4
87804410:	d150      	bne.n	878044b4 <pvPortMalloc+0xc0>
87804412:	2c00      	cmp	r4, #0
87804414:	d04e      	beq.n	878044b4 <pvPortMalloc+0xc0>
87804416:	f104 0308 	add.w	r3, r4, #8
8780441a:	0758      	lsls	r0, r3, #29
8780441c:	bf1c      	itt	ne
8780441e:	f023 0307 	bicne.w	r3, r3, #7
87804422:	3308      	addne	r3, #8
87804424:	2b00      	cmp	r3, #0
87804426:	d045      	beq.n	878044b4 <pvPortMalloc+0xc0>
87804428:	f646 680c 	movw	r8, #28172	; 0x6e0c
8780442c:	f2c8 7881 	movt	r8, #34689	; 0x8781
87804430:	f8d8 5d6c 	ldr.w	r5, [r8, #3436]	; 0xd6c
87804434:	42ab      	cmp	r3, r5
87804436:	d83d      	bhi.n	878044b4 <pvPortMalloc+0xc0>
87804438:	6814      	ldr	r4, [r2, #0]
8780443a:	f24b 3264 	movw	r2, #45924	; 0xb364
8780443e:	f2c8 7280 	movt	r2, #34688	; 0x8780
87804442:	4696      	mov	lr, r2
87804444:	e003      	b.n	8780444e <pvPortMalloc+0x5a>
87804446:	6820      	ldr	r0, [r4, #0]
87804448:	b120      	cbz	r0, 87804454 <pvPortMalloc+0x60>
8780444a:	46a6      	mov	lr, r4
8780444c:	4604      	mov	r4, r0
8780444e:	6861      	ldr	r1, [r4, #4]
87804450:	428b      	cmp	r3, r1
87804452:	d8f8      	bhi.n	87804446 <pvPortMalloc+0x52>
87804454:	6892      	ldr	r2, [r2, #8]
87804456:	4294      	cmp	r4, r2
87804458:	d02c      	beq.n	878044b4 <pvPortMalloc+0xc0>
8780445a:	f8de 6000 	ldr.w	r6, [lr]
8780445e:	1aca      	subs	r2, r1, r3
87804460:	6820      	ldr	r0, [r4, #0]
87804462:	2a10      	cmp	r2, #16
87804464:	f106 0608 	add.w	r6, r6, #8
87804468:	f8ce 0000 	str.w	r0, [lr]
8780446c:	d90a      	bls.n	87804484 <pvPortMalloc+0x90>
8780446e:	18e0      	adds	r0, r4, r3
87804470:	0741      	lsls	r1, r0, #29
87804472:	d002      	beq.n	8780447a <pvPortMalloc+0x86>
87804474:	f7ff fecc 	bl	87804210 <ulPortSetInterruptMask>
87804478:	e7fe      	b.n	87804478 <pvPortMalloc+0x84>
8780447a:	6042      	str	r2, [r0, #4]
8780447c:	6063      	str	r3, [r4, #4]
8780447e:	f7ff ff8d 	bl	8780439c <prvInsertBlockIntoFreeList>
87804482:	6861      	ldr	r1, [r4, #4]
87804484:	f8d8 0d68 	ldr.w	r0, [r8, #3432]	; 0xd68
87804488:	1a6b      	subs	r3, r5, r1
8780448a:	f646 620c 	movw	r2, #28172	; 0x6e0c
8780448e:	f8c8 3d6c 	str.w	r3, [r8, #3436]	; 0xd6c
87804492:	f2c8 7281 	movt	r2, #34689	; 0x8781
87804496:	4339      	orrs	r1, r7
87804498:	4283      	cmp	r3, r0
8780449a:	6061      	str	r1, [r4, #4]
8780449c:	bf38      	it	cc
8780449e:	f8c2 3d68 	strcc.w	r3, [r2, #3432]	; 0xd68
878044a2:	2300      	movs	r3, #0
878044a4:	6023      	str	r3, [r4, #0]
878044a6:	f7fe ffc9 	bl	8780343c <xTaskResumeAll>
878044aa:	0773      	lsls	r3, r6, #29
878044ac:	d005      	beq.n	878044ba <pvPortMalloc+0xc6>
878044ae:	f7ff feaf 	bl	87804210 <ulPortSetInterruptMask>
878044b2:	e7fe      	b.n	878044b2 <pvPortMalloc+0xbe>
878044b4:	2600      	movs	r6, #0
878044b6:	f7fe ffc1 	bl	8780343c <xTaskResumeAll>
878044ba:	4630      	mov	r0, r6
878044bc:	e8bd 81f0 	ldmia.w	sp!, {r4, r5, r6, r7, r8, pc}
878044c0:	f102 0110 	add.w	r1, r2, #16
878044c4:	2600      	movs	r6, #0
878044c6:	074d      	lsls	r5, r1, #29
878044c8:	f04f 4e00 	mov.w	lr, #2147483648	; 0x80000000
878044cc:	bf1d      	ittte	ne
878044ce:	f102 0017 	addne.w	r0, r2, #23
878044d2:	f501 4348 	addne.w	r3, r1, #51200	; 0xc800
878044d6:	f020 0007 	bicne.w	r0, r0, #7
878044da:	f44f 4348 	moveq.w	r3, #51200	; 0xc800
878044de:	bf1c      	itt	ne
878044e0:	4601      	movne	r1, r0
878044e2:	1a1b      	subne	r3, r3, r0
878044e4:	440b      	add	r3, r1
878044e6:	f646 600c 	movw	r0, #28172	; 0x6e0c
878044ea:	3b08      	subs	r3, #8
878044ec:	f2c8 7081 	movt	r0, #34689	; 0x8781
878044f0:	f023 0307 	bic.w	r3, r3, #7
878044f4:	e882 0042 	stmia.w	r2, {r1, r6}
878044f8:	1a5d      	subs	r5, r3, r1
878044fa:	605e      	str	r6, [r3, #4]
878044fc:	601e      	str	r6, [r3, #0]
878044fe:	4677      	mov	r7, lr
87804500:	6093      	str	r3, [r2, #8]
87804502:	f8c0 5d68 	str.w	r5, [r0, #3432]	; 0xd68
87804506:	f8c0 5d6c 	str.w	r5, [r0, #3436]	; 0xd6c
8780450a:	e881 0028 	stmia.w	r1, {r3, r5}
8780450e:	f8c2 e00c 	str.w	lr, [r2, #12]
87804512:	e77c      	b.n	8780440e <pvPortMalloc+0x1a>

87804514 <vPortFree>:
87804514:	b198      	cbz	r0, 8780453e <vPortFree+0x2a>
87804516:	f24b 3264 	movw	r2, #45924	; 0xb364
8780451a:	f850 3c04 	ldr.w	r3, [r0, #-4]
8780451e:	f2c8 7280 	movt	r2, #34688	; 0x8780
87804522:	b510      	push	{r4, lr}
87804524:	68d2      	ldr	r2, [r2, #12]
87804526:	4604      	mov	r4, r0
87804528:	421a      	tst	r2, r3
8780452a:	d005      	beq.n	87804538 <vPortFree+0x24>
8780452c:	f850 1c08 	ldr.w	r1, [r0, #-8]
87804530:	b131      	cbz	r1, 87804540 <vPortFree+0x2c>
87804532:	f7ff fe6d 	bl	87804210 <ulPortSetInterruptMask>
87804536:	e7fe      	b.n	87804536 <vPortFree+0x22>
87804538:	f7ff fe6a 	bl	87804210 <ulPortSetInterruptMask>
8780453c:	e7fe      	b.n	8780453c <vPortFree+0x28>
8780453e:	4770      	bx	lr
87804540:	ea23 0302 	bic.w	r3, r3, r2
87804544:	f840 3c04 	str.w	r3, [r0, #-4]
87804548:	f7fe fed8 	bl	878032fc <vTaskSuspendAll>
8780454c:	f646 630c 	movw	r3, #28172	; 0x6e0c
87804550:	f854 2c04 	ldr.w	r2, [r4, #-4]
87804554:	f2c8 7381 	movt	r3, #34689	; 0x8781
87804558:	f1a4 0008 	sub.w	r0, r4, #8
8780455c:	f8d3 1d6c 	ldr.w	r1, [r3, #3436]	; 0xd6c
87804560:	440a      	add	r2, r1
87804562:	f8c3 2d6c 	str.w	r2, [r3, #3436]	; 0xd6c
87804566:	f7ff ff19 	bl	8780439c <prvInsertBlockIntoFreeList>
8780456a:	e8bd 4010 	ldmia.w	sp!, {r4, lr}
8780456e:	f7fe bf65 	b.w	8780343c <xTaskResumeAll>
87804572:	bf00      	nop

87804574 <xPortGetFreeHeapSize>:
87804574:	f646 630c 	movw	r3, #28172	; 0x6e0c
87804578:	f2c8 7381 	movt	r3, #34689	; 0x8781
8780457c:	f8d3 0d6c 	ldr.w	r0, [r3, #3436]	; 0xd6c
87804580:	4770      	bx	lr
87804582:	bf00      	nop

87804584 <xPortGetMinimumEverFreeHeapSize>:
87804584:	f646 630c 	movw	r3, #28172	; 0x6e0c
87804588:	f2c8 7381 	movt	r3, #34689	; 0x8781
8780458c:	f8d3 0d68 	ldr.w	r0, [r3, #3432]	; 0xd68
87804590:	4770      	bx	lr
87804592:	bf00      	nop

87804594 <vPortInitialiseBlocks>:
87804594:	4770      	bx	lr
87804596:	bf00      	nop

87804598 <__div64_32>:
87804598:	e92d 4ff8 	stmdb	sp!, {r3, r4, r5, r6, r7, r8, r9, sl, fp, lr}
8780459c:	4688      	mov	r8, r1
8780459e:	e9d0 6700 	ldrd	r6, r7, [r0]
878045a2:	f04f 0b00 	mov.w	fp, #0
878045a6:	4681      	mov	r9, r0
878045a8:	468a      	mov	sl, r1
878045aa:	4644      	mov	r4, r8
878045ac:	465d      	mov	r5, fp
878045ae:	42b9      	cmp	r1, r7
878045b0:	bf84      	itt	hi
878045b2:	2200      	movhi	r2, #0
878045b4:	2300      	movhi	r3, #0
878045b6:	d80b      	bhi.n	878045d0 <__div64_32+0x38>
878045b8:	4638      	mov	r0, r7
878045ba:	f001 fc85 	bl	87805ec8 <__aeabi_uidiv>
878045be:	4686      	mov	lr, r0
878045c0:	2000      	movs	r0, #0
878045c2:	fb08 f10e 	mul.w	r1, r8, lr
878045c6:	4602      	mov	r2, r0
878045c8:	4673      	mov	r3, lr
878045ca:	1a36      	subs	r6, r6, r0
878045cc:	eb67 0701 	sbc.w	r7, r7, r1
878045d0:	45bb      	cmp	fp, r7
878045d2:	bf08      	it	eq
878045d4:	45b2      	cmpeq	sl, r6
878045d6:	bf34      	ite	cc
878045d8:	2101      	movcc	r1, #1
878045da:	2100      	movcs	r1, #0
878045dc:	f1ba 0f01 	cmp.w	sl, #1
878045e0:	f001 0101 	and.w	r1, r1, #1
878045e4:	f17b 0000 	sbcs.w	r0, fp, #0
878045e8:	f04f 0001 	mov.w	r0, #1
878045ec:	bfb8      	it	lt
878045ee:	2100      	movlt	r1, #0
878045f0:	b371      	cbz	r1, 87804650 <__div64_32+0xb8>
878045f2:	2100      	movs	r1, #0
878045f4:	1924      	adds	r4, r4, r4
878045f6:	416d      	adcs	r5, r5
878045f8:	1800      	adds	r0, r0, r0
878045fa:	4149      	adcs	r1, r1
878045fc:	2c01      	cmp	r4, #1
878045fe:	f175 0e00 	sbcs.w	lr, r5, #0
87804602:	bfac      	ite	ge
87804604:	f04f 0e01 	movge.w	lr, #1
87804608:	f04f 0e00 	movlt.w	lr, #0
8780460c:	42bd      	cmp	r5, r7
8780460e:	f00e 0e01 	and.w	lr, lr, #1
87804612:	bf08      	it	eq
87804614:	42b4      	cmpeq	r4, r6
87804616:	bf28      	it	cs
87804618:	f04f 0e00 	movcs.w	lr, #0
8780461c:	f1be 0f00 	cmp.w	lr, #0
87804620:	d1e8      	bne.n	878045f4 <__div64_32+0x5c>
87804622:	42af      	cmp	r7, r5
87804624:	bf08      	it	eq
87804626:	42a6      	cmpeq	r6, r4
87804628:	d304      	bcc.n	87804634 <__div64_32+0x9c>
8780462a:	1b36      	subs	r6, r6, r4
8780462c:	eb67 0705 	sbc.w	r7, r7, r5
87804630:	1812      	adds	r2, r2, r0
87804632:	414b      	adcs	r3, r1
87804634:	0849      	lsrs	r1, r1, #1
87804636:	ea4f 0030 	mov.w	r0, r0, rrx
8780463a:	086d      	lsrs	r5, r5, #1
8780463c:	ea4f 0434 	mov.w	r4, r4, rrx
87804640:	ea50 0e01 	orrs.w	lr, r0, r1
87804644:	d1ed      	bne.n	87804622 <__div64_32+0x8a>
87804646:	e9c9 2300 	strd	r2, r3, [r9]
8780464a:	4630      	mov	r0, r6
8780464c:	e8bd 8ff8 	ldmia.w	sp!, {r3, r4, r5, r6, r7, r8, r9, sl, fp, pc}
87804650:	2100      	movs	r1, #0
87804652:	e7e6      	b.n	87804622 <__div64_32+0x8a>

87804654 <__muldi3>:
87804654:	fb02 f101 	mul.w	r1, r2, r1
87804658:	b4f0      	push	{r4, r5, r6, r7}
8780465a:	4604      	mov	r4, r0
8780465c:	ea4f 4610 	mov.w	r6, r0, lsr #16
87804660:	ea4f 4512 	mov.w	r5, r2, lsr #16
87804664:	ea20 4706 	bic.w	r7, r0, r6, lsl #16
87804668:	ea22 4205 	bic.w	r2, r2, r5, lsl #16
8780466c:	fb07 f002 	mul.w	r0, r7, r2
87804670:	fb06 f202 	mul.w	r2, r6, r2
87804674:	fb05 f707 	mul.w	r7, r5, r7
87804678:	fb06 f505 	mul.w	r5, r6, r5
8780467c:	19d7      	adds	r7, r2, r7
8780467e:	bf28      	it	cs
87804680:	f505 3580 	addcs.w	r5, r5, #65536	; 0x10000
87804684:	eb10 4007 	adds.w	r0, r0, r7, lsl #16
87804688:	eb45 4517 	adc.w	r5, r5, r7, lsr #16
8780468c:	fb03 1104 	mla	r1, r3, r4, r1
87804690:	4429      	add	r1, r5
87804692:	bcf0      	pop	{r4, r5, r6, r7}
87804694:	4770      	bx	lr
87804696:	bf00      	nop

87804698 <printf>:
87804698:	b40f      	push	{r0, r1, r2, r3}
8780469a:	f647 307c 	movw	r0, #31612	; 0x7b7c
8780469e:	b570      	push	{r4, r5, r6, lr}
878046a0:	f2c8 7081 	movt	r0, #34689	; 0x8781
878046a4:	aa05      	add	r2, sp, #20
878046a6:	2400      	movs	r4, #0
878046a8:	9904      	ldr	r1, [sp, #16]
878046aa:	f001 f923 	bl	878058f4 <vsprintf>
878046ae:	4d0b      	ldr	r5, [pc, #44]	; (878046dc <printf+0x44>)
878046b0:	4606      	mov	r6, r0
878046b2:	e003      	b.n	878046bc <printf+0x24>
878046b4:	f815 0f01 	ldrb.w	r0, [r5, #1]!
878046b8:	f7fd fcb2 	bl	87802020 <putc>
878046bc:	f647 307c 	movw	r0, #31612	; 0x7b7c
878046c0:	f2c8 7081 	movt	r0, #34689	; 0x8781
878046c4:	f000 f8fc 	bl	878048c0 <strlen>
878046c8:	4284      	cmp	r4, r0
878046ca:	f104 0401 	add.w	r4, r4, #1
878046ce:	d3f1      	bcc.n	878046b4 <printf+0x1c>
878046d0:	4630      	mov	r0, r6
878046d2:	e8bd 4070 	ldmia.w	sp!, {r4, r5, r6, lr}
878046d6:	b004      	add	sp, #16
878046d8:	4770      	bx	lr
878046da:	bf00      	nop
878046dc:	87817b7b 			; <UNDEFINED> instruction: 0x87817b7b

878046e0 <scanf>:
878046e0:	b40f      	push	{r0, r1, r2, r3}
878046e2:	b570      	push	{r4, r5, r6, lr}
878046e4:	2500      	movs	r5, #0
878046e6:	4e10      	ldr	r6, [pc, #64]	; (87804728 <scanf+0x48>)
878046e8:	e002      	b.n	878046f0 <scanf+0x10>
878046ea:	3501      	adds	r5, #1
878046ec:	f806 4f01 	strb.w	r4, [r6, #1]!
878046f0:	f7fd fcb6 	bl	87802060 <getc>
878046f4:	4604      	mov	r4, r0
878046f6:	f7fd fc93 	bl	87802020 <putc>
878046fa:	2c0d      	cmp	r4, #13
878046fc:	bf18      	it	ne
878046fe:	2c0a      	cmpne	r4, #10
87804700:	d1f3      	bne.n	878046ea <scanf+0xa>
87804702:	f647 307c 	movw	r0, #31612	; 0x7b7c
87804706:	2300      	movs	r3, #0
87804708:	f2c8 7081 	movt	r0, #34689	; 0x8781
8780470c:	aa05      	add	r2, sp, #20
8780470e:	4405      	add	r5, r0
87804710:	9904      	ldr	r1, [sp, #16]
87804712:	f500 6080 	add.w	r0, r0, #1024	; 0x400
87804716:	f885 3400 	strb.w	r3, [r5, #1024]	; 0x400
8780471a:	f001 f8fd 	bl	87805918 <vsscanf>
8780471e:	e8bd 4070 	ldmia.w	sp!, {r4, r5, r6, lr}
87804722:	b004      	add	sp, #16
87804724:	4770      	bx	lr
87804726:	bf00      	nop
87804728:	87817f7b 			; <UNDEFINED> instruction: 0x87817f7b

8780472c <strnicmp>:
8780472c:	b322      	cbz	r2, 87804778 <strnicmp+0x4c>
8780472e:	b5f0      	push	{r4, r5, r6, r7, lr}
87804730:	f64a 454c 	movw	r5, #44108	; 0xac4c
87804734:	3801      	subs	r0, #1
87804736:	f2c8 7580 	movt	r5, #34688	; 0x8780
8780473a:	e008      	b.n	8780474e <strnicmp+0x22>
8780473c:	07f6      	lsls	r6, r6, #31
8780473e:	fa5f f38e 	uxtb.w	r3, lr
87804742:	d500      	bpl.n	87804746 <strnicmp+0x1a>
87804744:	b2fc      	uxtb	r4, r7
87804746:	42a3      	cmp	r3, r4
87804748:	d114      	bne.n	87804774 <strnicmp+0x48>
8780474a:	3a01      	subs	r2, #1
8780474c:	d01a      	beq.n	87804784 <strnicmp+0x58>
8780474e:	f810 3f01 	ldrb.w	r3, [r0, #1]!
87804752:	f811 4b01 	ldrb.w	r4, [r1], #1
87804756:	b18b      	cbz	r3, 8780477c <strnicmp+0x50>
87804758:	b194      	cbz	r4, 87804780 <strnicmp+0x54>
8780475a:	42a3      	cmp	r3, r4
8780475c:	d0f5      	beq.n	8780474a <strnicmp+0x1e>
8780475e:	5cee      	ldrb	r6, [r5, r3]
87804760:	f104 0720 	add.w	r7, r4, #32
87804764:	f103 0e20 	add.w	lr, r3, #32
87804768:	f016 0f01 	tst.w	r6, #1
8780476c:	5d2e      	ldrb	r6, [r5, r4]
8780476e:	d1e5      	bne.n	8780473c <strnicmp+0x10>
87804770:	07f6      	lsls	r6, r6, #31
87804772:	d4e7      	bmi.n	87804744 <strnicmp+0x18>
87804774:	1b18      	subs	r0, r3, r4
87804776:	bdf0      	pop	{r4, r5, r6, r7, pc}
87804778:	4610      	mov	r0, r2
8780477a:	4770      	bx	lr
8780477c:	4260      	negs	r0, r4
8780477e:	bdf0      	pop	{r4, r5, r6, r7, pc}
87804780:	4618      	mov	r0, r3
87804782:	bdf0      	pop	{r4, r5, r6, r7, pc}
87804784:	4610      	mov	r0, r2
87804786:	bdf0      	pop	{r4, r5, r6, r7, pc}

87804788 <strcpy>:
87804788:	1e42      	subs	r2, r0, #1
8780478a:	f811 3b01 	ldrb.w	r3, [r1], #1
8780478e:	f802 3f01 	strb.w	r3, [r2, #1]!
87804792:	2b00      	cmp	r3, #0
87804794:	d1f9      	bne.n	8780478a <strcpy+0x2>
87804796:	4770      	bx	lr

87804798 <strncpy>:
87804798:	b410      	push	{r4}
8780479a:	440a      	add	r2, r1
8780479c:	1e44      	subs	r4, r0, #1
8780479e:	e004      	b.n	878047aa <strncpy+0x12>
878047a0:	f811 3b01 	ldrb.w	r3, [r1], #1
878047a4:	f804 3f01 	strb.w	r3, [r4, #1]!
878047a8:	b10b      	cbz	r3, 878047ae <strncpy+0x16>
878047aa:	4291      	cmp	r1, r2
878047ac:	d1f8      	bne.n	878047a0 <strncpy+0x8>
878047ae:	f85d 4b04 	ldr.w	r4, [sp], #4
878047b2:	4770      	bx	lr

878047b4 <strcat>:
878047b4:	7803      	ldrb	r3, [r0, #0]
878047b6:	b163      	cbz	r3, 878047d2 <strcat+0x1e>
878047b8:	4603      	mov	r3, r0
878047ba:	f813 2f01 	ldrb.w	r2, [r3, #1]!
878047be:	2a00      	cmp	r2, #0
878047c0:	d1fb      	bne.n	878047ba <strcat+0x6>
878047c2:	3b01      	subs	r3, #1
878047c4:	f811 2b01 	ldrb.w	r2, [r1], #1
878047c8:	f803 2f01 	strb.w	r2, [r3, #1]!
878047cc:	2a00      	cmp	r2, #0
878047ce:	d1f9      	bne.n	878047c4 <strcat+0x10>
878047d0:	4770      	bx	lr
878047d2:	4603      	mov	r3, r0
878047d4:	e7f5      	b.n	878047c2 <strcat+0xe>
878047d6:	bf00      	nop

878047d8 <strncat>:
878047d8:	b1ba      	cbz	r2, 8780480a <strncat+0x32>
878047da:	7803      	ldrb	r3, [r0, #0]
878047dc:	b430      	push	{r4, r5}
878047de:	b1bb      	cbz	r3, 87804810 <strncat+0x38>
878047e0:	4603      	mov	r3, r0
878047e2:	f813 4f01 	ldrb.w	r4, [r3, #1]!
878047e6:	2c00      	cmp	r4, #0
878047e8:	d1fb      	bne.n	878047e2 <strncat+0xa>
878047ea:	f811 4b01 	ldrb.w	r4, [r1], #1
878047ee:	461d      	mov	r5, r3
878047f0:	f803 4b01 	strb.w	r4, [r3], #1
878047f4:	b144      	cbz	r4, 87804808 <strncat+0x30>
878047f6:	3a01      	subs	r2, #1
878047f8:	d008      	beq.n	8780480c <strncat+0x34>
878047fa:	f811 4b01 	ldrb.w	r4, [r1], #1
878047fe:	461d      	mov	r5, r3
87804800:	f803 4b01 	strb.w	r4, [r3], #1
87804804:	2c00      	cmp	r4, #0
87804806:	d1f6      	bne.n	878047f6 <strncat+0x1e>
87804808:	bc30      	pop	{r4, r5}
8780480a:	4770      	bx	lr
8780480c:	706a      	strb	r2, [r5, #1]
8780480e:	e7fb      	b.n	87804808 <strncat+0x30>
87804810:	4603      	mov	r3, r0
87804812:	e7f2      	b.n	878047fa <strncat+0x22>

87804814 <strcmp>:
87804814:	1e42      	subs	r2, r0, #1
87804816:	e000      	b.n	8780481a <strcmp+0x6>
87804818:	b148      	cbz	r0, 8780482e <strcmp+0x1a>
8780481a:	f812 0f01 	ldrb.w	r0, [r2, #1]!
8780481e:	f811 3b01 	ldrb.w	r3, [r1], #1
87804822:	1ac3      	subs	r3, r0, r3
87804824:	f013 03ff 	ands.w	r3, r3, #255	; 0xff
87804828:	d0f6      	beq.n	87804818 <strcmp+0x4>
8780482a:	b258      	sxtb	r0, r3
8780482c:	4770      	bx	lr
8780482e:	4770      	bx	lr

87804830 <strncmp>:
87804830:	b302      	cbz	r2, 87804874 <strncmp+0x44>
87804832:	b470      	push	{r4, r5, r6}
87804834:	1c4d      	adds	r5, r1, #1
87804836:	7803      	ldrb	r3, [r0, #0]
87804838:	780e      	ldrb	r6, [r1, #0]
8780483a:	1b9e      	subs	r6, r3, r6
8780483c:	f016 06ff 	ands.w	r6, r6, #255	; 0xff
87804840:	bf18      	it	ne
87804842:	b270      	sxtbne	r0, r6
87804844:	d10e      	bne.n	87804864 <strncmp+0x34>
87804846:	b1bb      	cbz	r3, 87804878 <strncmp+0x48>
87804848:	440a      	add	r2, r1
8780484a:	e008      	b.n	8780485e <strncmp+0x2e>
8780484c:	f810 4f01 	ldrb.w	r4, [r0, #1]!
87804850:	f815 3b01 	ldrb.w	r3, [r5], #1
87804854:	1ae3      	subs	r3, r4, r3
87804856:	f013 03ff 	ands.w	r3, r3, #255	; 0xff
8780485a:	d105      	bne.n	87804868 <strncmp+0x38>
8780485c:	b13c      	cbz	r4, 8780486e <strncmp+0x3e>
8780485e:	4295      	cmp	r5, r2
87804860:	d1f4      	bne.n	8780484c <strncmp+0x1c>
87804862:	2000      	movs	r0, #0
87804864:	bc70      	pop	{r4, r5, r6}
87804866:	4770      	bx	lr
87804868:	b258      	sxtb	r0, r3
8780486a:	bc70      	pop	{r4, r5, r6}
8780486c:	4770      	bx	lr
8780486e:	4620      	mov	r0, r4
87804870:	bc70      	pop	{r4, r5, r6}
87804872:	4770      	bx	lr
87804874:	4610      	mov	r0, r2
87804876:	4770      	bx	lr
87804878:	4618      	mov	r0, r3
8780487a:	e7f3      	b.n	87804864 <strncmp+0x34>

8780487c <strchr>:
8780487c:	7803      	ldrb	r3, [r0, #0]
8780487e:	b2c9      	uxtb	r1, r1
87804880:	428b      	cmp	r3, r1
87804882:	d006      	beq.n	87804892 <strchr+0x16>
87804884:	b123      	cbz	r3, 87804890 <strchr+0x14>
87804886:	f810 3f01 	ldrb.w	r3, [r0, #1]!
8780488a:	428b      	cmp	r3, r1
8780488c:	d1fa      	bne.n	87804884 <strchr+0x8>
8780488e:	4770      	bx	lr
87804890:	4618      	mov	r0, r3
87804892:	4770      	bx	lr

87804894 <strrchr>:
87804894:	7803      	ldrb	r3, [r0, #0]
87804896:	b18b      	cbz	r3, 878048bc <strrchr+0x28>
87804898:	4603      	mov	r3, r0
8780489a:	f813 2f01 	ldrb.w	r2, [r3, #1]!
8780489e:	2a00      	cmp	r2, #0
878048a0:	d1fb      	bne.n	8780489a <strrchr+0x6>
878048a2:	b2c9      	uxtb	r1, r1
878048a4:	2200      	movs	r2, #0
878048a6:	e003      	b.n	878048b0 <strrchr+0x1c>
878048a8:	3b01      	subs	r3, #1
878048aa:	4298      	cmp	r0, r3
878048ac:	d804      	bhi.n	878048b8 <strrchr+0x24>
878048ae:	781a      	ldrb	r2, [r3, #0]
878048b0:	428a      	cmp	r2, r1
878048b2:	d1f9      	bne.n	878048a8 <strrchr+0x14>
878048b4:	4618      	mov	r0, r3
878048b6:	4770      	bx	lr
878048b8:	2000      	movs	r0, #0
878048ba:	4770      	bx	lr
878048bc:	4603      	mov	r3, r0
878048be:	e7f0      	b.n	878048a2 <strrchr+0xe>

878048c0 <strlen>:
878048c0:	7802      	ldrb	r2, [r0, #0]
878048c2:	b132      	cbz	r2, 878048d2 <strlen+0x12>
878048c4:	4603      	mov	r3, r0
878048c6:	f813 1f01 	ldrb.w	r1, [r3, #1]!
878048ca:	2900      	cmp	r1, #0
878048cc:	d1fb      	bne.n	878048c6 <strlen+0x6>
878048ce:	1a18      	subs	r0, r3, r0
878048d0:	4770      	bx	lr
878048d2:	4610      	mov	r0, r2
878048d4:	4770      	bx	lr
878048d6:	bf00      	nop

878048d8 <strnlen>:
878048d8:	b199      	cbz	r1, 87804902 <strnlen+0x2a>
878048da:	7803      	ldrb	r3, [r0, #0]
878048dc:	b19b      	cbz	r3, 87804906 <strnlen+0x2e>
878048de:	b410      	push	{r4}
878048e0:	4401      	add	r1, r0
878048e2:	1c43      	adds	r3, r0, #1
878048e4:	e002      	b.n	878048ec <strnlen+0x14>
878048e6:	781c      	ldrb	r4, [r3, #0]
878048e8:	3301      	adds	r3, #1
878048ea:	b134      	cbz	r4, 878048fa <strnlen+0x22>
878048ec:	428b      	cmp	r3, r1
878048ee:	461a      	mov	r2, r3
878048f0:	d1f9      	bne.n	878048e6 <strnlen+0xe>
878048f2:	1a18      	subs	r0, r3, r0
878048f4:	f85d 4b04 	ldr.w	r4, [sp], #4
878048f8:	4770      	bx	lr
878048fa:	1a10      	subs	r0, r2, r0
878048fc:	f85d 4b04 	ldr.w	r4, [sp], #4
87804900:	4770      	bx	lr
87804902:	4608      	mov	r0, r1
87804904:	4770      	bx	lr
87804906:	4618      	mov	r0, r3
87804908:	4770      	bx	lr
8780490a:	bf00      	nop

8780490c <strspn>:
8780490c:	b470      	push	{r4, r5, r6}
8780490e:	4605      	mov	r5, r0
87804910:	7804      	ldrb	r4, [r0, #0]
87804912:	b1ac      	cbz	r4, 87804940 <strspn+0x34>
87804914:	780e      	ldrb	r6, [r1, #0]
87804916:	2000      	movs	r0, #0
87804918:	b14e      	cbz	r6, 8780492e <strspn+0x22>
8780491a:	42a6      	cmp	r6, r4
8780491c:	d009      	beq.n	87804932 <strspn+0x26>
8780491e:	460a      	mov	r2, r1
87804920:	e001      	b.n	87804926 <strspn+0x1a>
87804922:	429c      	cmp	r4, r3
87804924:	d005      	beq.n	87804932 <strspn+0x26>
87804926:	f812 3f01 	ldrb.w	r3, [r2, #1]!
8780492a:	2b00      	cmp	r3, #0
8780492c:	d1f9      	bne.n	87804922 <strspn+0x16>
8780492e:	bc70      	pop	{r4, r5, r6}
87804930:	4770      	bx	lr
87804932:	f815 4f01 	ldrb.w	r4, [r5, #1]!
87804936:	3001      	adds	r0, #1
87804938:	2c00      	cmp	r4, #0
8780493a:	d1ed      	bne.n	87804918 <strspn+0xc>
8780493c:	bc70      	pop	{r4, r5, r6}
8780493e:	4770      	bx	lr
87804940:	4620      	mov	r0, r4
87804942:	e7f4      	b.n	8780492e <strspn+0x22>

87804944 <strpbrk>:
87804944:	b430      	push	{r4, r5}
87804946:	7804      	ldrb	r4, [r0, #0]
87804948:	b17c      	cbz	r4, 8780496a <strpbrk+0x26>
8780494a:	780d      	ldrb	r5, [r1, #0]
8780494c:	b14d      	cbz	r5, 87804962 <strpbrk+0x1e>
8780494e:	42a5      	cmp	r5, r4
87804950:	d00c      	beq.n	8780496c <strpbrk+0x28>
87804952:	460a      	mov	r2, r1
87804954:	e001      	b.n	8780495a <strpbrk+0x16>
87804956:	429c      	cmp	r4, r3
87804958:	d008      	beq.n	8780496c <strpbrk+0x28>
8780495a:	f812 3f01 	ldrb.w	r3, [r2, #1]!
8780495e:	2b00      	cmp	r3, #0
87804960:	d1f9      	bne.n	87804956 <strpbrk+0x12>
87804962:	f810 4f01 	ldrb.w	r4, [r0, #1]!
87804966:	2c00      	cmp	r4, #0
87804968:	d1f0      	bne.n	8780494c <strpbrk+0x8>
8780496a:	4620      	mov	r0, r4
8780496c:	bc30      	pop	{r4, r5}
8780496e:	4770      	bx	lr

87804970 <strtok>:
87804970:	b5f0      	push	{r4, r5, r6, r7, lr}
87804972:	f248 3ee0 	movw	lr, #33760	; 0x83e0
87804976:	f2c8 7e81 	movt	lr, #34689	; 0x8781
8780497a:	2800      	cmp	r0, #0
8780497c:	d03e      	beq.n	878049fc <strtok+0x8c>
8780497e:	7804      	ldrb	r4, [r0, #0]
87804980:	2c00      	cmp	r4, #0
87804982:	d037      	beq.n	878049f4 <strtok+0x84>
87804984:	780d      	ldrb	r5, [r1, #0]
87804986:	4607      	mov	r7, r0
87804988:	2600      	movs	r6, #0
8780498a:	b14d      	cbz	r5, 878049a0 <strtok+0x30>
8780498c:	42a5      	cmp	r5, r4
8780498e:	d01e      	beq.n	878049ce <strtok+0x5e>
87804990:	460a      	mov	r2, r1
87804992:	e001      	b.n	87804998 <strtok+0x28>
87804994:	429c      	cmp	r4, r3
87804996:	d01a      	beq.n	878049ce <strtok+0x5e>
87804998:	f812 3f01 	ldrb.w	r3, [r2, #1]!
8780499c:	2b00      	cmp	r3, #0
8780499e:	d1f9      	bne.n	87804994 <strtok+0x24>
878049a0:	5d84      	ldrb	r4, [r0, r6]
878049a2:	4430      	add	r0, r6
878049a4:	4606      	mov	r6, r0
878049a6:	b32c      	cbz	r4, 878049f4 <strtok+0x84>
878049a8:	b14d      	cbz	r5, 878049be <strtok+0x4e>
878049aa:	42a5      	cmp	r5, r4
878049ac:	d01a      	beq.n	878049e4 <strtok+0x74>
878049ae:	460a      	mov	r2, r1
878049b0:	e001      	b.n	878049b6 <strtok+0x46>
878049b2:	429c      	cmp	r4, r3
878049b4:	d016      	beq.n	878049e4 <strtok+0x74>
878049b6:	f812 3f01 	ldrb.w	r3, [r2, #1]!
878049ba:	2b00      	cmp	r3, #0
878049bc:	d1f9      	bne.n	878049b2 <strtok+0x42>
878049be:	f816 4f01 	ldrb.w	r4, [r6, #1]!
878049c2:	2c00      	cmp	r4, #0
878049c4:	d1f0      	bne.n	878049a8 <strtok+0x38>
878049c6:	4626      	mov	r6, r4
878049c8:	f8ce 6000 	str.w	r6, [lr]
878049cc:	bdf0      	pop	{r4, r5, r6, r7, pc}
878049ce:	f817 4f01 	ldrb.w	r4, [r7, #1]!
878049d2:	3601      	adds	r6, #1
878049d4:	2c00      	cmp	r4, #0
878049d6:	d1d8      	bne.n	8780498a <strtok+0x1a>
878049d8:	5d84      	ldrb	r4, [r0, r6]
878049da:	4430      	add	r0, r6
878049dc:	4606      	mov	r6, r0
878049de:	2c00      	cmp	r4, #0
878049e0:	d1e2      	bne.n	878049a8 <strtok+0x38>
878049e2:	e007      	b.n	878049f4 <strtok+0x84>
878049e4:	7833      	ldrb	r3, [r6, #0]
878049e6:	4632      	mov	r2, r6
878049e8:	2b00      	cmp	r3, #0
878049ea:	d0ed      	beq.n	878049c8 <strtok+0x58>
878049ec:	2300      	movs	r3, #0
878049ee:	3601      	adds	r6, #1
878049f0:	7013      	strb	r3, [r2, #0]
878049f2:	e7e9      	b.n	878049c8 <strtok+0x58>
878049f4:	2000      	movs	r0, #0
878049f6:	f8ce 0000 	str.w	r0, [lr]
878049fa:	bdf0      	pop	{r4, r5, r6, r7, pc}
878049fc:	f8de 0000 	ldr.w	r0, [lr]
87804a00:	2800      	cmp	r0, #0
87804a02:	d1bc      	bne.n	8780497e <strtok+0xe>
87804a04:	e7e2      	b.n	878049cc <strtok+0x5c>
87804a06:	bf00      	nop

87804a08 <strsep>:
87804a08:	b4f0      	push	{r4, r5, r6, r7}
87804a0a:	4607      	mov	r7, r0
87804a0c:	6800      	ldr	r0, [r0, #0]
87804a0e:	b198      	cbz	r0, 87804a38 <strsep+0x30>
87804a10:	7804      	ldrb	r4, [r0, #0]
87804a12:	b184      	cbz	r4, 87804a36 <strsep+0x2e>
87804a14:	780e      	ldrb	r6, [r1, #0]
87804a16:	4605      	mov	r5, r0
87804a18:	b14e      	cbz	r6, 87804a2e <strsep+0x26>
87804a1a:	42a6      	cmp	r6, r4
87804a1c:	d00e      	beq.n	87804a3c <strsep+0x34>
87804a1e:	460a      	mov	r2, r1
87804a20:	e001      	b.n	87804a26 <strsep+0x1e>
87804a22:	429c      	cmp	r4, r3
87804a24:	d00a      	beq.n	87804a3c <strsep+0x34>
87804a26:	f812 3f01 	ldrb.w	r3, [r2, #1]!
87804a2a:	2b00      	cmp	r3, #0
87804a2c:	d1f9      	bne.n	87804a22 <strsep+0x1a>
87804a2e:	f815 4f01 	ldrb.w	r4, [r5, #1]!
87804a32:	2c00      	cmp	r4, #0
87804a34:	d1f0      	bne.n	87804a18 <strsep+0x10>
87804a36:	603c      	str	r4, [r7, #0]
87804a38:	bcf0      	pop	{r4, r5, r6, r7}
87804a3a:	4770      	bx	lr
87804a3c:	2300      	movs	r3, #0
87804a3e:	1c6c      	adds	r4, r5, #1
87804a40:	702b      	strb	r3, [r5, #0]
87804a42:	e7f8      	b.n	87804a36 <strsep+0x2e>

87804a44 <memset>:
87804a44:	b132      	cbz	r2, 87804a54 <memset+0x10>
87804a46:	b2c9      	uxtb	r1, r1
87804a48:	4402      	add	r2, r0
87804a4a:	4603      	mov	r3, r0
87804a4c:	f803 1b01 	strb.w	r1, [r3], #1
87804a50:	4293      	cmp	r3, r2
87804a52:	d1fb      	bne.n	87804a4c <memset+0x8>
87804a54:	4770      	bx	lr
87804a56:	bf00      	nop

87804a58 <bcopy>:
87804a58:	b13a      	cbz	r2, 87804a6a <bcopy+0x12>
87804a5a:	3901      	subs	r1, #1
87804a5c:	4402      	add	r2, r0
87804a5e:	f810 3b01 	ldrb.w	r3, [r0], #1
87804a62:	4290      	cmp	r0, r2
87804a64:	f801 3f01 	strb.w	r3, [r1, #1]!
87804a68:	d1f9      	bne.n	87804a5e <bcopy+0x6>
87804a6a:	4770      	bx	lr

87804a6c <memcpy>:
87804a6c:	b152      	cbz	r2, 87804a84 <memcpy+0x18>
87804a6e:	440a      	add	r2, r1
87804a70:	1e43      	subs	r3, r0, #1
87804a72:	b410      	push	{r4}
87804a74:	f811 4b01 	ldrb.w	r4, [r1], #1
87804a78:	4291      	cmp	r1, r2
87804a7a:	f803 4f01 	strb.w	r4, [r3, #1]!
87804a7e:	d1f9      	bne.n	87804a74 <memcpy+0x8>
87804a80:	f85d 4b04 	ldr.w	r4, [sp], #4
87804a84:	4770      	bx	lr
87804a86:	bf00      	nop

87804a88 <memmove>:
87804a88:	4288      	cmp	r0, r1
87804a8a:	b410      	push	{r4}
87804a8c:	d80b      	bhi.n	87804aa6 <memmove+0x1e>
87804a8e:	b13a      	cbz	r2, 87804aa0 <memmove+0x18>
87804a90:	440a      	add	r2, r1
87804a92:	1e43      	subs	r3, r0, #1
87804a94:	f811 4b01 	ldrb.w	r4, [r1], #1
87804a98:	4291      	cmp	r1, r2
87804a9a:	f803 4f01 	strb.w	r4, [r3, #1]!
87804a9e:	d1f9      	bne.n	87804a94 <memmove+0xc>
87804aa0:	f85d 4b04 	ldr.w	r4, [sp], #4
87804aa4:	4770      	bx	lr
87804aa6:	4411      	add	r1, r2
87804aa8:	1883      	adds	r3, r0, r2
87804aaa:	2a00      	cmp	r2, #0
87804aac:	d0f8      	beq.n	87804aa0 <memmove+0x18>
87804aae:	1a8a      	subs	r2, r1, r2
87804ab0:	f811 4d01 	ldrb.w	r4, [r1, #-1]!
87804ab4:	4291      	cmp	r1, r2
87804ab6:	f803 4d01 	strb.w	r4, [r3, #-1]!
87804aba:	d1f9      	bne.n	87804ab0 <memmove+0x28>
87804abc:	f85d 4b04 	ldr.w	r4, [sp], #4
87804ac0:	4770      	bx	lr
87804ac2:	bf00      	nop

87804ac4 <memcmp>:
87804ac4:	b1aa      	cbz	r2, 87804af2 <memcmp+0x2e>
87804ac6:	b430      	push	{r4, r5}
87804ac8:	4604      	mov	r4, r0
87804aca:	7803      	ldrb	r3, [r0, #0]
87804acc:	7808      	ldrb	r0, [r1, #0]
87804ace:	1a18      	subs	r0, r3, r0
87804ad0:	d10a      	bne.n	87804ae8 <memcmp+0x24>
87804ad2:	4422      	add	r2, r4
87804ad4:	3401      	adds	r4, #1
87804ad6:	e005      	b.n	87804ae4 <memcmp+0x20>
87804ad8:	f814 3b01 	ldrb.w	r3, [r4], #1
87804adc:	f811 5f01 	ldrb.w	r5, [r1, #1]!
87804ae0:	1b5b      	subs	r3, r3, r5
87804ae2:	d103      	bne.n	87804aec <memcmp+0x28>
87804ae4:	4294      	cmp	r4, r2
87804ae6:	d1f7      	bne.n	87804ad8 <memcmp+0x14>
87804ae8:	bc30      	pop	{r4, r5}
87804aea:	4770      	bx	lr
87804aec:	4618      	mov	r0, r3
87804aee:	bc30      	pop	{r4, r5}
87804af0:	4770      	bx	lr
87804af2:	4610      	mov	r0, r2
87804af4:	4770      	bx	lr
87804af6:	bf00      	nop

87804af8 <memscan>:
87804af8:	b182      	cbz	r2, 87804b1c <memscan+0x24>
87804afa:	7803      	ldrb	r3, [r0, #0]
87804afc:	428b      	cmp	r3, r1
87804afe:	d00d      	beq.n	87804b1c <memscan+0x24>
87804b00:	b410      	push	{r4}
87804b02:	4402      	add	r2, r0
87804b04:	1c43      	adds	r3, r0, #1
87804b06:	e002      	b.n	87804b0e <memscan+0x16>
87804b08:	7804      	ldrb	r4, [r0, #0]
87804b0a:	428c      	cmp	r4, r1
87804b0c:	d004      	beq.n	87804b18 <memscan+0x20>
87804b0e:	4293      	cmp	r3, r2
87804b10:	4618      	mov	r0, r3
87804b12:	f103 0301 	add.w	r3, r3, #1
87804b16:	d1f7      	bne.n	87804b08 <memscan+0x10>
87804b18:	f85d 4b04 	ldr.w	r4, [sp], #4
87804b1c:	4770      	bx	lr
87804b1e:	bf00      	nop

87804b20 <strstr>:
87804b20:	b5f0      	push	{r4, r5, r6, r7, lr}
87804b22:	468e      	mov	lr, r1
87804b24:	f891 c000 	ldrb.w	ip, [r1]
87804b28:	f1bc 0f00 	cmp.w	ip, #0
87804b2c:	d028      	beq.n	87804b80 <strstr+0x60>
87804b2e:	460e      	mov	r6, r1
87804b30:	f816 3f01 	ldrb.w	r3, [r6, #1]!
87804b34:	2b00      	cmp	r3, #0
87804b36:	d1fb      	bne.n	87804b30 <strstr+0x10>
87804b38:	ebb6 010e 	subs.w	r1, r6, lr
87804b3c:	d020      	beq.n	87804b80 <strstr+0x60>
87804b3e:	7807      	ldrb	r7, [r0, #0]
87804b40:	b12f      	cbz	r7, 87804b4e <strstr+0x2e>
87804b42:	4607      	mov	r7, r0
87804b44:	f817 3f01 	ldrb.w	r3, [r7, #1]!
87804b48:	2b00      	cmp	r3, #0
87804b4a:	d1fb      	bne.n	87804b44 <strstr+0x24>
87804b4c:	1a3f      	subs	r7, r7, r0
87804b4e:	42b9      	cmp	r1, r7
87804b50:	dc15      	bgt.n	87804b7e <strstr+0x5e>
87804b52:	3f01      	subs	r7, #1
87804b54:	b1a1      	cbz	r1, 87804b80 <strstr+0x60>
87804b56:	7803      	ldrb	r3, [r0, #0]
87804b58:	4563      	cmp	r3, ip
87804b5a:	d10c      	bne.n	87804b76 <strstr+0x56>
87804b5c:	4602      	mov	r2, r0
87804b5e:	f10e 0301 	add.w	r3, lr, #1
87804b62:	e005      	b.n	87804b70 <strstr+0x50>
87804b64:	f813 4b01 	ldrb.w	r4, [r3], #1
87804b68:	f812 5f01 	ldrb.w	r5, [r2, #1]!
87804b6c:	42a5      	cmp	r5, r4
87804b6e:	d102      	bne.n	87804b76 <strstr+0x56>
87804b70:	42b3      	cmp	r3, r6
87804b72:	d1f7      	bne.n	87804b64 <strstr+0x44>
87804b74:	bdf0      	pop	{r4, r5, r6, r7, pc}
87804b76:	428f      	cmp	r7, r1
87804b78:	f100 0001 	add.w	r0, r0, #1
87804b7c:	dae9      	bge.n	87804b52 <strstr+0x32>
87804b7e:	2000      	movs	r0, #0
87804b80:	bdf0      	pop	{r4, r5, r6, r7, pc}
87804b82:	bf00      	nop

87804b84 <memchr>:
87804b84:	b410      	push	{r4}
87804b86:	b2c9      	uxtb	r1, r1
87804b88:	4402      	add	r2, r0
87804b8a:	e004      	b.n	87804b96 <memchr+0x12>
87804b8c:	f813 4b01 	ldrb.w	r4, [r3], #1
87804b90:	428c      	cmp	r4, r1
87804b92:	d004      	beq.n	87804b9e <memchr+0x1a>
87804b94:	4618      	mov	r0, r3
87804b96:	4290      	cmp	r0, r2
87804b98:	4603      	mov	r3, r0
87804b9a:	d1f7      	bne.n	87804b8c <memchr+0x8>
87804b9c:	2000      	movs	r0, #0
87804b9e:	f85d 4b04 	ldr.w	r4, [sp], #4
87804ba2:	4770      	bx	lr

87804ba4 <number>:
87804ba4:	e92d 4ff0 	stmdb	sp!, {r4, r5, r6, r7, r8, r9, sl, fp, lr}
87804ba8:	b0a7      	sub	sp, #156	; 0x9c
87804baa:	460e      	mov	r6, r1
87804bac:	9930      	ldr	r1, [sp, #192]	; 0xc0
87804bae:	4604      	mov	r4, r0
87804bb0:	f8dd 80cc 	ldr.w	r8, [sp, #204]	; 0xcc
87804bb4:	390a      	subs	r1, #10
87804bb6:	bf18      	it	ne
87804bb8:	2101      	movne	r1, #1
87804bba:	f008 0520 	and.w	r5, r8, #32
87804bbe:	ea01 1058 	and.w	r0, r1, r8, lsr #5
87804bc2:	b2ed      	uxtb	r5, r5
87804bc4:	9000      	str	r0, [sp, #0]
87804bc6:	f018 0010 	ands.w	r0, r8, #16
87804bca:	bf18      	it	ne
87804bcc:	f028 0801 	bicne.w	r8, r8, #1
87804bd0:	9006      	str	r0, [sp, #24]
87804bd2:	f018 0002 	ands.w	r0, r8, #2
87804bd6:	d011      	beq.n	87804bfc <number+0x58>
87804bd8:	2a00      	cmp	r2, #0
87804bda:	f173 0000 	sbcs.w	r0, r3, #0
87804bde:	f2c0 80e6 	blt.w	87804dae <number+0x20a>
87804be2:	f018 0f04 	tst.w	r8, #4
87804be6:	f040 80c7 	bne.w	87804d78 <number+0x1d4>
87804bea:	f018 0008 	ands.w	r0, r8, #8
87804bee:	d005      	beq.n	87804bfc <number+0x58>
87804bf0:	9831      	ldr	r0, [sp, #196]	; 0xc4
87804bf2:	3801      	subs	r0, #1
87804bf4:	9031      	str	r0, [sp, #196]	; 0xc4
87804bf6:	2020      	movs	r0, #32
87804bf8:	9001      	str	r0, [sp, #4]
87804bfa:	e000      	b.n	87804bfe <number+0x5a>
87804bfc:	9001      	str	r0, [sp, #4]
87804bfe:	9800      	ldr	r0, [sp, #0]
87804c00:	b130      	cbz	r0, 87804c10 <number+0x6c>
87804c02:	9830      	ldr	r0, [sp, #192]	; 0xc0
87804c04:	2810      	cmp	r0, #16
87804c06:	f000 80c6 	beq.w	87804d96 <number+0x1f2>
87804c0a:	9831      	ldr	r0, [sp, #196]	; 0xc4
87804c0c:	3801      	subs	r0, #1
87804c0e:	9031      	str	r0, [sp, #196]	; 0xc4
87804c10:	ea52 0003 	orrs.w	r0, r2, r3
87804c14:	d17c      	bne.n	87804d10 <number+0x16c>
87804c16:	2200      	movs	r2, #0
87804c18:	2701      	movs	r7, #1
87804c1a:	2330      	movs	r3, #48	; 0x30
87804c1c:	f88d 3034 	strb.w	r3, [sp, #52]	; 0x34
87804c20:	9b32      	ldr	r3, [sp, #200]	; 0xc8
87804c22:	9931      	ldr	r1, [sp, #196]	; 0xc4
87804c24:	42bb      	cmp	r3, r7
87804c26:	bfb8      	it	lt
87804c28:	463b      	movlt	r3, r7
87804c2a:	f018 0f11 	tst.w	r8, #17
87804c2e:	eba1 0003 	sub.w	r0, r1, r3
87804c32:	d110      	bne.n	87804c56 <number+0xb2>
87804c34:	f1b0 0c01 	subs.w	ip, r0, #1
87804c38:	f100 81d0 	bmi.w	87804fdc <number+0x438>
87804c3c:	1821      	adds	r1, r4, r0
87804c3e:	f04f 0e20 	mov.w	lr, #32
87804c42:	42a6      	cmp	r6, r4
87804c44:	f104 0401 	add.w	r4, r4, #1
87804c48:	bf88      	it	hi
87804c4a:	f804 ec01 	strbhi.w	lr, [r4, #-1]
87804c4e:	428c      	cmp	r4, r1
87804c50:	d1f7      	bne.n	87804c42 <number+0x9e>
87804c52:	ebc0 000c 	rsb	r0, r0, ip
87804c56:	9901      	ldr	r1, [sp, #4]
87804c58:	b139      	cbz	r1, 87804c6a <number+0xc6>
87804c5a:	42b4      	cmp	r4, r6
87804c5c:	f104 0401 	add.w	r4, r4, #1
87804c60:	bf3c      	itt	cc
87804c62:	f89d 1004 	ldrbcc.w	r1, [sp, #4]
87804c66:	f804 1c01 	strbcc.w	r1, [r4, #-1]
87804c6a:	9900      	ldr	r1, [sp, #0]
87804c6c:	b151      	cbz	r1, 87804c84 <number+0xe0>
87804c6e:	42b4      	cmp	r4, r6
87804c70:	f104 0e01 	add.w	lr, r4, #1
87804c74:	bf3c      	itt	cc
87804c76:	2130      	movcc	r1, #48	; 0x30
87804c78:	7021      	strbcc	r1, [r4, #0]
87804c7a:	9930      	ldr	r1, [sp, #192]	; 0xc0
87804c7c:	2910      	cmp	r1, #16
87804c7e:	bf18      	it	ne
87804c80:	4674      	movne	r4, lr
87804c82:	d07f      	beq.n	87804d84 <number+0x1e0>
87804c84:	9906      	ldr	r1, [sp, #24]
87804c86:	b991      	cbnz	r1, 87804cae <number+0x10a>
87804c88:	f018 0f01 	tst.w	r8, #1
87804c8c:	bf14      	ite	ne
87804c8e:	2130      	movne	r1, #48	; 0x30
87804c90:	2120      	moveq	r1, #32
87804c92:	1e45      	subs	r5, r0, #1
87804c94:	f100 81a4 	bmi.w	87804fe0 <number+0x43c>
87804c98:	4420      	add	r0, r4
87804c9a:	42a6      	cmp	r6, r4
87804c9c:	f104 0401 	add.w	r4, r4, #1
87804ca0:	bf88      	it	hi
87804ca2:	f804 1c01 	strbhi.w	r1, [r4, #-1]
87804ca6:	4284      	cmp	r4, r0
87804ca8:	d1f7      	bne.n	87804c9a <number+0xf6>
87804caa:	f04f 30ff 	mov.w	r0, #4294967295	; 0xffffffff
87804cae:	429f      	cmp	r7, r3
87804cb0:	f280 8122 	bge.w	87804ef8 <number+0x354>
87804cb4:	1bdb      	subs	r3, r3, r7
87804cb6:	2130      	movs	r1, #48	; 0x30
87804cb8:	4423      	add	r3, r4
87804cba:	42a6      	cmp	r6, r4
87804cbc:	f104 0401 	add.w	r4, r4, #1
87804cc0:	bf88      	it	hi
87804cc2:	f804 1c01 	strbhi.w	r1, [r4, #-1]
87804cc6:	429c      	cmp	r4, r3
87804cc8:	d1f7      	bne.n	87804cba <number+0x116>
87804cca:	2a00      	cmp	r2, #0
87804ccc:	f2c0 8110 	blt.w	87804ef0 <number+0x34c>
87804cd0:	1c51      	adds	r1, r2, #1
87804cd2:	ac0d      	add	r4, sp, #52	; 0x34
87804cd4:	4422      	add	r2, r4
87804cd6:	4419      	add	r1, r3
87804cd8:	429e      	cmp	r6, r3
87804cda:	f103 0301 	add.w	r3, r3, #1
87804cde:	bf88      	it	hi
87804ce0:	7814      	ldrbhi	r4, [r2, #0]
87804ce2:	f102 32ff 	add.w	r2, r2, #4294967295	; 0xffffffff
87804ce6:	bf88      	it	hi
87804ce8:	f803 4c01 	strbhi.w	r4, [r3, #-1]
87804cec:	428b      	cmp	r3, r1
87804cee:	d1f3      	bne.n	87804cd8 <number+0x134>
87804cf0:	2800      	cmp	r0, #0
87804cf2:	f340 80ff 	ble.w	87804ef4 <number+0x350>
87804cf6:	4408      	add	r0, r1
87804cf8:	2320      	movs	r3, #32
87804cfa:	428e      	cmp	r6, r1
87804cfc:	f101 0101 	add.w	r1, r1, #1
87804d00:	bf88      	it	hi
87804d02:	f801 3c01 	strbhi.w	r3, [r1, #-1]
87804d06:	4281      	cmp	r1, r0
87804d08:	d1f7      	bne.n	87804cfa <number+0x156>
87804d0a:	b027      	add	sp, #156	; 0x9c
87804d0c:	e8bd 8ff0 	ldmia.w	sp!, {r4, r5, r6, r7, r8, r9, sl, fp, pc}
87804d10:	2900      	cmp	r1, #0
87804d12:	d055      	beq.n	87804dc0 <number+0x21c>
87804d14:	9930      	ldr	r1, [sp, #192]	; 0xc0
87804d16:	2910      	cmp	r1, #16
87804d18:	f101 3eff 	add.w	lr, r1, #4294967295	; 0xffffffff
87804d1c:	bf12      	itee	ne
87804d1e:	f04f 0903 	movne.w	r9, #3
87804d22:	f04f 0e0f 	moveq.w	lr, #15
87804d26:	f04f 0904 	moveq.w	r9, #4
87804d2a:	f64a 4c20 	movw	ip, #44064	; 0xac20
87804d2e:	f10d 0033 	add.w	r0, sp, #51	; 0x33
87804d32:	f2c8 7c80 	movt	ip, #34688	; 0x8780
87804d36:	2700      	movs	r7, #0
87804d38:	b2d1      	uxtb	r1, r2
87804d3a:	f1c9 0a20 	rsb	sl, r9, #32
87804d3e:	f1b9 0b20 	subs.w	fp, r9, #32
87804d42:	fa03 fa0a 	lsl.w	sl, r3, sl
87804d46:	ea01 010e 	and.w	r1, r1, lr
87804d4a:	fa22 f209 	lsr.w	r2, r2, r9
87804d4e:	f81c 1001 	ldrb.w	r1, [ip, r1]
87804d52:	bf58      	it	pl
87804d54:	fa43 fb0b 	asrpl.w	fp, r3, fp
87804d58:	ea42 020a 	orr.w	r2, r2, sl
87804d5c:	fa43 f309 	asr.w	r3, r3, r9
87804d60:	bf58      	it	pl
87804d62:	ea42 020b 	orrpl.w	r2, r2, fp
87804d66:	4329      	orrs	r1, r5
87804d68:	3701      	adds	r7, #1
87804d6a:	f800 1f01 	strb.w	r1, [r0, #1]!
87804d6e:	ea52 0103 	orrs.w	r1, r2, r3
87804d72:	d1e1      	bne.n	87804d38 <number+0x194>
87804d74:	1e7a      	subs	r2, r7, #1
87804d76:	e753      	b.n	87804c20 <number+0x7c>
87804d78:	9831      	ldr	r0, [sp, #196]	; 0xc4
87804d7a:	3801      	subs	r0, #1
87804d7c:	9031      	str	r0, [sp, #196]	; 0xc4
87804d7e:	202b      	movs	r0, #43	; 0x2b
87804d80:	9001      	str	r0, [sp, #4]
87804d82:	e73c      	b.n	87804bfe <number+0x5a>
87804d84:	4576      	cmp	r6, lr
87804d86:	f104 0402 	add.w	r4, r4, #2
87804d8a:	bf84      	itt	hi
87804d8c:	f045 0558 	orrhi.w	r5, r5, #88	; 0x58
87804d90:	f804 5c01 	strbhi.w	r5, [r4, #-1]
87804d94:	e776      	b.n	87804c84 <number+0xe0>
87804d96:	9931      	ldr	r1, [sp, #196]	; 0xc4
87804d98:	3902      	subs	r1, #2
87804d9a:	9131      	str	r1, [sp, #196]	; 0xc4
87804d9c:	ea52 0103 	orrs.w	r1, r2, r3
87804da0:	bf1c      	itt	ne
87804da2:	f04f 0e0f 	movne.w	lr, #15
87804da6:	f04f 0904 	movne.w	r9, #4
87804daa:	d1be      	bne.n	87804d2a <number+0x186>
87804dac:	e733      	b.n	87804c16 <number+0x72>
87804dae:	9831      	ldr	r0, [sp, #196]	; 0xc4
87804db0:	4252      	negs	r2, r2
87804db2:	eb63 0343 	sbc.w	r3, r3, r3, lsl #1
87804db6:	3801      	subs	r0, #1
87804db8:	9031      	str	r0, [sp, #196]	; 0xc4
87804dba:	202d      	movs	r0, #45	; 0x2d
87804dbc:	9001      	str	r0, [sp, #4]
87804dbe:	e71e      	b.n	87804bfe <number+0x5a>
87804dc0:	4610      	mov	r0, r2
87804dc2:	4619      	mov	r1, r3
87804dc4:	f248 629f 	movw	r2, #34463	; 0x869f
87804dc8:	2300      	movs	r3, #0
87804dca:	f2c0 0201 	movt	r2, #1
87804dce:	428b      	cmp	r3, r1
87804dd0:	bf08      	it	eq
87804dd2:	4282      	cmpeq	r2, r0
87804dd4:	e9cd 0104 	strd	r0, r1, [sp, #16]
87804dd8:	e9cd 010a 	strd	r0, r1, [sp, #40]	; 0x28
87804ddc:	f080 8102 	bcs.w	87804fe4 <number+0x440>
87804de0:	f248 61a0 	movw	r1, #34464	; 0x86a0
87804de4:	f645 20c5 	movw	r0, #23237	; 0x5ac5
87804de8:	f2c0 0101 	movt	r1, #1
87804dec:	f6c0 207c 	movt	r0, #2684	; 0xa7c
87804df0:	9507      	str	r5, [sp, #28]
87804df2:	f10d 0939 	add.w	r9, sp, #57	; 0x39
87804df6:	9609      	str	r6, [sp, #36]	; 0x24
87804df8:	4605      	mov	r5, r0
87804dfa:	f8cd 80cc 	str.w	r8, [sp, #204]	; 0xcc
87804dfe:	4688      	mov	r8, r1
87804e00:	e9cd 2302 	strd	r2, r3, [sp, #8]
87804e04:	9408      	str	r4, [sp, #32]
87804e06:	e9dd 6704 	ldrd	r6, r7, [sp, #16]
87804e0a:	e05f      	b.n	87804ecc <number+0x328>
87804e0c:	09d8      	lsrs	r0, r3, #7
87804e0e:	2700      	movs	r7, #0
87804e10:	4603      	mov	r3, r0
87804e12:	fb08 6010 	mls	r0, r8, r0, r6
87804e16:	461e      	mov	r6, r3
87804e18:	e9cd 670a 	strd	r6, r7, [sp, #40]	; 0x28
87804e1c:	f3c0 1a03 	ubfx	sl, r0, #4, #4
87804e20:	f3c0 2303 	ubfx	r3, r0, #8, #4
87804e24:	0b02      	lsrs	r2, r0, #12
87804e26:	eb0a 0103 	add.w	r1, sl, r3
87804e2a:	f000 0e0f 	and.w	lr, r0, #15
87804e2e:	eb03 0c83 	add.w	ip, r3, r3, lsl #2
87804e32:	4411      	add	r1, r2
87804e34:	eb02 00c2 	add.w	r0, r2, r2, lsl #3
87804e38:	00cc      	lsls	r4, r1, #3
87804e3a:	46cb      	mov	fp, r9
87804e3c:	4450      	add	r0, sl
87804e3e:	eba4 0141 	sub.w	r1, r4, r1, lsl #1
87804e42:	24cd      	movs	r4, #205	; 0xcd
87804e44:	4460      	add	r0, ip
87804e46:	4471      	add	r1, lr
87804e48:	f109 0905 	add.w	r9, r9, #5
87804e4c:	fb04 fa01 	mul.w	sl, r4, r1
87804e50:	ea4f 2ada 	mov.w	sl, sl, lsr #11
87804e54:	4450      	add	r0, sl
87804e56:	ea4f 0eca 	mov.w	lr, sl, lsl #3
87804e5a:	fb04 fc00 	mul.w	ip, r4, r0
87804e5e:	eb0e 0e4a 	add.w	lr, lr, sl, lsl #1
87804e62:	ebce 0101 	rsb	r1, lr, r1
87804e66:	ea4f 2cdc 	mov.w	ip, ip, lsr #11
87804e6a:	3130      	adds	r1, #48	; 0x30
87804e6c:	f809 1c0a 	strb.w	r1, [r9, #-10]
87804e70:	eb0c 0343 	add.w	r3, ip, r3, lsl #1
87804e74:	ea4f 0ecc 	mov.w	lr, ip, lsl #3
87804e78:	0119      	lsls	r1, r3, #4
87804e7a:	eb0e 0c4c 	add.w	ip, lr, ip, lsl #1
87804e7e:	eba1 0183 	sub.w	r1, r1, r3, lsl #2
87804e82:	ebcc 0c00 	rsb	ip, ip, r0
87804e86:	f10c 0030 	add.w	r0, ip, #48	; 0x30
87804e8a:	4419      	add	r1, r3
87804e8c:	f809 0c09 	strb.w	r0, [r9, #-9]
87804e90:	09c9      	lsrs	r1, r1, #7
87804e92:	eb01 0282 	add.w	r2, r1, r2, lsl #2
87804e96:	00c8      	lsls	r0, r1, #3
87804e98:	fb04 f402 	mul.w	r4, r4, r2
87804e9c:	eb00 0141 	add.w	r1, r0, r1, lsl #1
87804ea0:	1a5b      	subs	r3, r3, r1
87804ea2:	3330      	adds	r3, #48	; 0x30
87804ea4:	0ae4      	lsrs	r4, r4, #11
87804ea6:	f809 3c08 	strb.w	r3, [r9, #-8]
87804eaa:	00e3      	lsls	r3, r4, #3
87804eac:	f104 0130 	add.w	r1, r4, #48	; 0x30
87804eb0:	f809 1c06 	strb.w	r1, [r9, #-6]
87804eb4:	eb03 0444 	add.w	r4, r3, r4, lsl #1
87804eb8:	1b12      	subs	r2, r2, r4
87804eba:	e9dd 3402 	ldrd	r3, r4, [sp, #8]
87804ebe:	3230      	adds	r2, #48	; 0x30
87804ec0:	f809 2c07 	strb.w	r2, [r9, #-7]
87804ec4:	42bc      	cmp	r4, r7
87804ec6:	bf08      	it	eq
87804ec8:	42b3      	cmpeq	r3, r6
87804eca:	d217      	bcs.n	87804efc <number+0x358>
87804ecc:	0038      	movs	r0, r7
87804ece:	2100      	movs	r1, #0
87804ed0:	0972      	lsrs	r2, r6, #5
87804ed2:	ea50 0301 	orrs.w	r3, r0, r1
87804ed6:	fba2 2305 	umull	r2, r3, r2, r5
87804eda:	d097      	beq.n	87804e0c <number+0x268>
87804edc:	f248 61a0 	movw	r1, #34464	; 0x86a0
87804ee0:	a80a      	add	r0, sp, #40	; 0x28
87804ee2:	f2c0 0101 	movt	r1, #1
87804ee6:	f7ff fb57 	bl	87804598 <__div64_32>
87804eea:	e9dd 670a 	ldrd	r6, r7, [sp, #40]	; 0x28
87804eee:	e795      	b.n	87804e1c <number+0x278>
87804ef0:	4619      	mov	r1, r3
87804ef2:	e6fd      	b.n	87804cf0 <number+0x14c>
87804ef4:	4608      	mov	r0, r1
87804ef6:	e708      	b.n	87804d0a <number+0x166>
87804ef8:	4623      	mov	r3, r4
87804efa:	e6e6      	b.n	87804cca <number+0x126>
87804efc:	e9cd 6704 	strd	r6, r7, [sp, #16]
87804f00:	f10d 0e34 	add.w	lr, sp, #52	; 0x34
87804f04:	9d07      	ldr	r5, [sp, #28]
87804f06:	9c08      	ldr	r4, [sp, #32]
87804f08:	9e09      	ldr	r6, [sp, #36]	; 0x24
87804f0a:	f8dd 80cc 	ldr.w	r8, [sp, #204]	; 0xcc
87804f0e:	e9dd 0104 	ldrd	r0, r1, [sp, #16]
87804f12:	f04f 0acd 	mov.w	sl, #205	; 0xcd
87804f16:	f3c0 1303 	ubfx	r3, r0, #4, #4
87804f1a:	f3c0 2903 	ubfx	r9, r0, #8, #4
87804f1e:	ea4f 3c10 	mov.w	ip, r0, lsr #12
87804f22:	eb03 0209 	add.w	r2, r3, r9
87804f26:	f000 010f 	and.w	r1, r0, #15
87804f2a:	eb09 0789 	add.w	r7, r9, r9, lsl #2
87804f2e:	4462      	add	r2, ip
87804f30:	9102      	str	r1, [sp, #8]
87804f32:	00d1      	lsls	r1, r2, #3
87804f34:	eb0c 00cc 	add.w	r0, ip, ip, lsl #3
87804f38:	eba1 0142 	sub.w	r1, r1, r2, lsl #1
87804f3c:	9a02      	ldr	r2, [sp, #8]
87804f3e:	4403      	add	r3, r0
87804f40:	443b      	add	r3, r7
87804f42:	4411      	add	r1, r2
87804f44:	fb0a f201 	mul.w	r2, sl, r1
87804f48:	0ad2      	lsrs	r2, r2, #11
87804f4a:	00d0      	lsls	r0, r2, #3
87804f4c:	eb00 0042 	add.w	r0, r0, r2, lsl #1
87804f50:	189a      	adds	r2, r3, r2
87804f52:	bf08      	it	eq
87804f54:	f10b 0701 	addeq.w	r7, fp, #1
87804f58:	eba1 0100 	sub.w	r1, r1, r0
87804f5c:	f101 0130 	add.w	r1, r1, #48	; 0x30
87804f60:	f88b 1000 	strb.w	r1, [fp]
87804f64:	d037      	beq.n	87804fd6 <number+0x432>
87804f66:	fb0a f102 	mul.w	r1, sl, r2
87804f6a:	0ac9      	lsrs	r1, r1, #11
87804f6c:	00c8      	lsls	r0, r1, #3
87804f6e:	eb01 0349 	add.w	r3, r1, r9, lsl #1
87804f72:	eb00 0141 	add.w	r1, r0, r1, lsl #1
87804f76:	1a52      	subs	r2, r2, r1
87804f78:	3230      	adds	r2, #48	; 0x30
87804f7a:	f88b 2001 	strb.w	r2, [fp, #1]
87804f7e:	ea53 020c 	orrs.w	r2, r3, ip
87804f82:	bf08      	it	eq
87804f84:	f10b 0702 	addeq.w	r7, fp, #2
87804f88:	d025      	beq.n	87804fd6 <number+0x432>
87804f8a:	011a      	lsls	r2, r3, #4
87804f8c:	eba2 0283 	sub.w	r2, r2, r3, lsl #2
87804f90:	441a      	add	r2, r3
87804f92:	09d2      	lsrs	r2, r2, #7
87804f94:	00d1      	lsls	r1, r2, #3
87804f96:	eb01 0142 	add.w	r1, r1, r2, lsl #1
87804f9a:	eb12 028c 	adds.w	r2, r2, ip, lsl #2
87804f9e:	eba3 0301 	sub.w	r3, r3, r1
87804fa2:	bf08      	it	eq
87804fa4:	f10b 0703 	addeq.w	r7, fp, #3
87804fa8:	f103 0330 	add.w	r3, r3, #48	; 0x30
87804fac:	f88b 3002 	strb.w	r3, [fp, #2]
87804fb0:	d011      	beq.n	87804fd6 <number+0x432>
87804fb2:	fb0a f302 	mul.w	r3, sl, r2
87804fb6:	f10b 0704 	add.w	r7, fp, #4
87804fba:	0adb      	lsrs	r3, r3, #11
87804fbc:	00d9      	lsls	r1, r3, #3
87804fbe:	eb01 0143 	add.w	r1, r1, r3, lsl #1
87804fc2:	1a52      	subs	r2, r2, r1
87804fc4:	3230      	adds	r2, #48	; 0x30
87804fc6:	f88b 2003 	strb.w	r2, [fp, #3]
87804fca:	b123      	cbz	r3, 87804fd6 <number+0x432>
87804fcc:	f10b 0705 	add.w	r7, fp, #5
87804fd0:	3330      	adds	r3, #48	; 0x30
87804fd2:	f88b 3004 	strb.w	r3, [fp, #4]
87804fd6:	ebce 0707 	rsb	r7, lr, r7
87804fda:	e6cb      	b.n	87804d74 <number+0x1d0>
87804fdc:	4660      	mov	r0, ip
87804fde:	e63a      	b.n	87804c56 <number+0xb2>
87804fe0:	4628      	mov	r0, r5
87804fe2:	e664      	b.n	87804cae <number+0x10a>
87804fe4:	f10d 0e34 	add.w	lr, sp, #52	; 0x34
87804fe8:	46f3      	mov	fp, lr
87804fea:	e790      	b.n	87804f0e <number+0x36a>

87804fec <simple_strtoul>:
87804fec:	b5f0      	push	{r4, r5, r6, r7, lr}
87804fee:	4606      	mov	r6, r0
87804ff0:	b96a      	cbnz	r2, 8780500e <simple_strtoul+0x22>
87804ff2:	7804      	ldrb	r4, [r0, #0]
87804ff4:	2c30      	cmp	r4, #48	; 0x30
87804ff6:	d043      	beq.n	87805080 <simple_strtoul+0x94>
87804ff8:	f64a 474c 	movw	r7, #44108	; 0xac4c
87804ffc:	4623      	mov	r3, r4
87804ffe:	f2c8 7780 	movt	r7, #34688	; 0x8780
87805002:	220a      	movs	r2, #10
87805004:	f817 e004 	ldrb.w	lr, [r7, r4]
87805008:	f00e 0544 	and.w	r5, lr, #68	; 0x44
8780500c:	e00b      	b.n	87805026 <simple_strtoul+0x3a>
8780500e:	2a10      	cmp	r2, #16
87805010:	d029      	beq.n	87805066 <simple_strtoul+0x7a>
87805012:	7803      	ldrb	r3, [r0, #0]
87805014:	f64a 474c 	movw	r7, #44108	; 0xac4c
87805018:	f2c8 7780 	movt	r7, #34688	; 0x8780
8780501c:	f817 e003 	ldrb.w	lr, [r7, r3]
87805020:	461c      	mov	r4, r3
87805022:	f00e 0544 	and.w	r5, lr, #68	; 0x44
87805026:	4628      	mov	r0, r5
87805028:	b1d5      	cbz	r5, 87805060 <simple_strtoul+0x74>
8780502a:	2000      	movs	r0, #0
8780502c:	e009      	b.n	87805042 <simple_strtoul+0x56>
8780502e:	f816 3f01 	ldrb.w	r3, [r6, #1]!
87805032:	fb02 4000 	mla	r0, r2, r0, r4
87805036:	f817 e003 	ldrb.w	lr, [r7, r3]
8780503a:	461c      	mov	r4, r3
8780503c:	f01e 0f44 	tst.w	lr, #68	; 0x44
87805040:	d00e      	beq.n	87805060 <simple_strtoul+0x74>
87805042:	f01e 0f04 	tst.w	lr, #4
87805046:	f1a4 0430 	sub.w	r4, r4, #48	; 0x30
8780504a:	d107      	bne.n	8780505c <simple_strtoul+0x70>
8780504c:	f1a3 0420 	sub.w	r4, r3, #32
87805050:	f01e 0f02 	tst.w	lr, #2
87805054:	bf18      	it	ne
87805056:	b2e3      	uxtbne	r3, r4
87805058:	f1a3 0437 	sub.w	r4, r3, #55	; 0x37
8780505c:	4294      	cmp	r4, r2
8780505e:	d3e6      	bcc.n	8780502e <simple_strtoul+0x42>
87805060:	b101      	cbz	r1, 87805064 <simple_strtoul+0x78>
87805062:	600e      	str	r6, [r1, #0]
87805064:	bdf0      	pop	{r4, r5, r6, r7, pc}
87805066:	7804      	ldrb	r4, [r0, #0]
87805068:	2c30      	cmp	r4, #48	; 0x30
8780506a:	d020      	beq.n	878050ae <simple_strtoul+0xc2>
8780506c:	f64a 474c 	movw	r7, #44108	; 0xac4c
87805070:	4623      	mov	r3, r4
87805072:	f2c8 7780 	movt	r7, #34688	; 0x8780
87805076:	f817 e004 	ldrb.w	lr, [r7, r4]
8780507a:	f00e 0544 	and.w	r5, lr, #68	; 0x44
8780507e:	e7d2      	b.n	87805026 <simple_strtoul+0x3a>
87805080:	7843      	ldrb	r3, [r0, #1]
87805082:	f64a 474c 	movw	r7, #44108	; 0xac4c
87805086:	f2c8 7780 	movt	r7, #34688	; 0x8780
8780508a:	3001      	adds	r0, #1
8780508c:	f817 e003 	ldrb.w	lr, [r7, r3]
87805090:	461c      	mov	r4, r3
87805092:	f01e 0f02 	tst.w	lr, #2
87805096:	bf16      	itet	ne
87805098:	f1a3 0220 	subne.w	r2, r3, #32
8780509c:	461a      	moveq	r2, r3
8780509e:	b2d2      	uxtbne	r2, r2
878050a0:	2a58      	cmp	r2, #88	; 0x58
878050a2:	d01d      	beq.n	878050e0 <simple_strtoul+0xf4>
878050a4:	4606      	mov	r6, r0
878050a6:	f00e 0544 	and.w	r5, lr, #68	; 0x44
878050aa:	2208      	movs	r2, #8
878050ac:	e7bb      	b.n	87805026 <simple_strtoul+0x3a>
878050ae:	7843      	ldrb	r3, [r0, #1]
878050b0:	f64a 474c 	movw	r7, #44108	; 0xac4c
878050b4:	f2c8 7780 	movt	r7, #34688	; 0x8780
878050b8:	5cf8      	ldrb	r0, [r7, r3]
878050ba:	0780      	lsls	r0, r0, #30
878050bc:	bf44      	itt	mi
878050be:	3b20      	submi	r3, #32
878050c0:	b2db      	uxtbmi	r3, r3
878050c2:	2b58      	cmp	r3, #88	; 0x58
878050c4:	bf0f      	iteee	eq
878050c6:	78b3      	ldrbeq	r3, [r6, #2]
878050c8:	2430      	movne	r4, #48	; 0x30
878050ca:	f897 e030 	ldrbne.w	lr, [r7, #48]	; 0x30
878050ce:	4623      	movne	r3, r4
878050d0:	bf02      	ittt	eq
878050d2:	3602      	addeq	r6, #2
878050d4:	f817 e003 	ldrbeq.w	lr, [r7, r3]
878050d8:	461c      	moveq	r4, r3
878050da:	f00e 0544 	and.w	r5, lr, #68	; 0x44
878050de:	e7a2      	b.n	87805026 <simple_strtoul+0x3a>
878050e0:	78b5      	ldrb	r5, [r6, #2]
878050e2:	5d7a      	ldrb	r2, [r7, r5]
878050e4:	f012 0f44 	tst.w	r2, #68	; 0x44
878050e8:	d0dc      	beq.n	878050a4 <simple_strtoul+0xb8>
878050ea:	4696      	mov	lr, r2
878050ec:	462c      	mov	r4, r5
878050ee:	3602      	adds	r6, #2
878050f0:	462b      	mov	r3, r5
878050f2:	2210      	movs	r2, #16
878050f4:	e799      	b.n	8780502a <simple_strtoul+0x3e>
878050f6:	bf00      	nop

878050f8 <simple_strtol>:
878050f8:	b510      	push	{r4, lr}
878050fa:	7804      	ldrb	r4, [r0, #0]
878050fc:	2c2d      	cmp	r4, #45	; 0x2d
878050fe:	d003      	beq.n	87805108 <simple_strtol+0x10>
87805100:	e8bd 4010 	ldmia.w	sp!, {r4, lr}
87805104:	f7ff bf72 	b.w	87804fec <simple_strtoul>
87805108:	3001      	adds	r0, #1
8780510a:	f7ff ff6f 	bl	87804fec <simple_strtoul>
8780510e:	4240      	negs	r0, r0
87805110:	bd10      	pop	{r4, pc}
87805112:	bf00      	nop

87805114 <simple_strtoull>:
87805114:	e92d 4ff0 	stmdb	sp!, {r4, r5, r6, r7, r8, r9, sl, fp, lr}
87805118:	4684      	mov	ip, r0
8780511a:	468a      	mov	sl, r1
8780511c:	4616      	mov	r6, r2
8780511e:	2a00      	cmp	r2, #0
87805120:	d13f      	bne.n	878051a2 <simple_strtoull+0x8e>
87805122:	7802      	ldrb	r2, [r0, #0]
87805124:	2a30      	cmp	r2, #48	; 0x30
87805126:	d056      	beq.n	878051d6 <simple_strtoull+0xc2>
87805128:	f64a 4b4c 	movw	fp, #44108	; 0xac4c
8780512c:	4613      	mov	r3, r2
8780512e:	f2c8 7b80 	movt	fp, #34688	; 0x8780
87805132:	260a      	movs	r6, #10
87805134:	f81b e002 	ldrb.w	lr, [fp, r2]
87805138:	f00e 0144 	and.w	r1, lr, #68	; 0x44
8780513c:	2900      	cmp	r1, #0
8780513e:	d061      	beq.n	87805204 <simple_strtoull+0xf0>
87805140:	2700      	movs	r7, #0
87805142:	2000      	movs	r0, #0
87805144:	2100      	movs	r1, #0
87805146:	e00e      	b.n	87805166 <simple_strtoull+0x52>
87805148:	fb06 3101 	mla	r1, r6, r1, r3
8780514c:	f81c 3f01 	ldrb.w	r3, [ip, #1]!
87805150:	eb14 0008 	adds.w	r0, r4, r8
87805154:	f81b e003 	ldrb.w	lr, [fp, r3]
87805158:	461a      	mov	r2, r3
8780515a:	4489      	add	r9, r1
8780515c:	eb45 0109 	adc.w	r1, r5, r9
87805160:	f01e 0f44 	tst.w	lr, #68	; 0x44
87805164:	d016      	beq.n	87805194 <simple_strtoull+0x80>
87805166:	f01e 0f04 	tst.w	lr, #4
8780516a:	f1a2 0430 	sub.w	r4, r2, #48	; 0x30
8780516e:	d108      	bne.n	87805182 <simple_strtoull+0x6e>
87805170:	3b20      	subs	r3, #32
87805172:	f01e 0f02 	tst.w	lr, #2
87805176:	b2db      	uxtb	r3, r3
87805178:	f1a2 0437 	sub.w	r4, r2, #55	; 0x37
8780517c:	bf18      	it	ne
8780517e:	f1a3 0437 	subne.w	r4, r3, #55	; 0x37
87805182:	17e5      	asrs	r5, r4, #31
87805184:	fb00 f307 	mul.w	r3, r0, r7
87805188:	42bd      	cmp	r5, r7
8780518a:	fba0 8906 	umull	r8, r9, r0, r6
8780518e:	bf08      	it	eq
87805190:	42b4      	cmpeq	r4, r6
87805192:	d3d9      	bcc.n	87805148 <simple_strtoull+0x34>
87805194:	f1ba 0f00 	cmp.w	sl, #0
87805198:	d001      	beq.n	8780519e <simple_strtoull+0x8a>
8780519a:	f8ca c000 	str.w	ip, [sl]
8780519e:	e8bd 8ff0 	ldmia.w	sp!, {r4, r5, r6, r7, r8, r9, sl, fp, pc}
878051a2:	2a10      	cmp	r2, #16
878051a4:	d00a      	beq.n	878051bc <simple_strtoull+0xa8>
878051a6:	7803      	ldrb	r3, [r0, #0]
878051a8:	f64a 4b4c 	movw	fp, #44108	; 0xac4c
878051ac:	f2c8 7b80 	movt	fp, #34688	; 0x8780
878051b0:	f81b e003 	ldrb.w	lr, [fp, r3]
878051b4:	461a      	mov	r2, r3
878051b6:	f00e 0144 	and.w	r1, lr, #68	; 0x44
878051ba:	e7bf      	b.n	8780513c <simple_strtoull+0x28>
878051bc:	7802      	ldrb	r2, [r0, #0]
878051be:	2a30      	cmp	r2, #48	; 0x30
878051c0:	d031      	beq.n	87805226 <simple_strtoull+0x112>
878051c2:	f64a 4b4c 	movw	fp, #44108	; 0xac4c
878051c6:	4613      	mov	r3, r2
878051c8:	f2c8 7b80 	movt	fp, #34688	; 0x8780
878051cc:	f81b e002 	ldrb.w	lr, [fp, r2]
878051d0:	f00e 0144 	and.w	r1, lr, #68	; 0x44
878051d4:	e7b2      	b.n	8780513c <simple_strtoull+0x28>
878051d6:	7843      	ldrb	r3, [r0, #1]
878051d8:	f64a 4b4c 	movw	fp, #44108	; 0xac4c
878051dc:	f2c8 7b80 	movt	fp, #34688	; 0x8780
878051e0:	3001      	adds	r0, #1
878051e2:	f81b e003 	ldrb.w	lr, [fp, r3]
878051e6:	461a      	mov	r2, r3
878051e8:	f01e 0f02 	tst.w	lr, #2
878051ec:	bf16      	itet	ne
878051ee:	f1a3 0120 	subne.w	r1, r3, #32
878051f2:	4619      	moveq	r1, r3
878051f4:	b2c9      	uxtbne	r1, r1
878051f6:	2958      	cmp	r1, #88	; 0x58
878051f8:	d007      	beq.n	8780520a <simple_strtoull+0xf6>
878051fa:	4684      	mov	ip, r0
878051fc:	f00e 0144 	and.w	r1, lr, #68	; 0x44
87805200:	2608      	movs	r6, #8
87805202:	e79b      	b.n	8780513c <simple_strtoull+0x28>
87805204:	2000      	movs	r0, #0
87805206:	2100      	movs	r1, #0
87805208:	e7c4      	b.n	87805194 <simple_strtoull+0x80>
8780520a:	f89c 4002 	ldrb.w	r4, [ip, #2]
8780520e:	f81b 1004 	ldrb.w	r1, [fp, r4]
87805212:	f011 0f44 	tst.w	r1, #68	; 0x44
87805216:	d0f0      	beq.n	878051fa <simple_strtoull+0xe6>
87805218:	4622      	mov	r2, r4
8780521a:	f10c 0c02 	add.w	ip, ip, #2
8780521e:	468e      	mov	lr, r1
87805220:	4623      	mov	r3, r4
87805222:	2610      	movs	r6, #16
87805224:	e78c      	b.n	87805140 <simple_strtoull+0x2c>
87805226:	7843      	ldrb	r3, [r0, #1]
87805228:	f64a 4b4c 	movw	fp, #44108	; 0xac4c
8780522c:	f2c8 7b80 	movt	fp, #34688	; 0x8780
87805230:	f81b 2003 	ldrb.w	r2, [fp, r3]
87805234:	0792      	lsls	r2, r2, #30
87805236:	bf44      	itt	mi
87805238:	3b20      	submi	r3, #32
8780523a:	b2db      	uxtbmi	r3, r3
8780523c:	2b58      	cmp	r3, #88	; 0x58
8780523e:	bf0f      	iteee	eq
87805240:	7883      	ldrbeq	r3, [r0, #2]
87805242:	2230      	movne	r2, #48	; 0x30
87805244:	f89b e030 	ldrbne.w	lr, [fp, #48]	; 0x30
87805248:	4613      	movne	r3, r2
8780524a:	bf02      	ittt	eq
8780524c:	f100 0c02 	addeq.w	ip, r0, #2
87805250:	f81b e003 	ldrbeq.w	lr, [fp, r3]
87805254:	461a      	moveq	r2, r3
87805256:	f00e 0144 	and.w	r1, lr, #68	; 0x44
8780525a:	e76f      	b.n	8780513c <simple_strtoull+0x28>

8780525c <simple_strtoll>:
8780525c:	b510      	push	{r4, lr}
8780525e:	7804      	ldrb	r4, [r0, #0]
87805260:	2c2d      	cmp	r4, #45	; 0x2d
87805262:	d003      	beq.n	8780526c <simple_strtoll+0x10>
87805264:	e8bd 4010 	ldmia.w	sp!, {r4, lr}
87805268:	f7ff bf54 	b.w	87805114 <simple_strtoull>
8780526c:	3001      	adds	r0, #1
8780526e:	f7ff ff51 	bl	87805114 <simple_strtoull>
87805272:	4240      	negs	r0, r0
87805274:	eb61 0141 	sbc.w	r1, r1, r1, lsl #1
87805278:	bd10      	pop	{r4, pc}
8780527a:	bf00      	nop

8780527c <vsnprintf>:
8780527c:	e92d 4ff0 	stmdb	sp!, {r4, r5, r6, r7, r8, r9, sl, fp, lr}
87805280:	f1b1 0a00 	subs.w	sl, r1, #0
87805284:	b089      	sub	sp, #36	; 0x24
87805286:	f2c0 82fc 	blt.w	87805882 <vsnprintf+0x606>
8780528a:	f10a 37ff 	add.w	r7, sl, #4294967295	; 0xffffffff
8780528e:	4699      	mov	r9, r3
87805290:	4407      	add	r7, r0
87805292:	1e43      	subs	r3, r0, #1
87805294:	429f      	cmp	r7, r3
87805296:	4604      	mov	r4, r0
87805298:	4616      	mov	r6, r2
8780529a:	7810      	ldrb	r0, [r2, #0]
8780529c:	f0c0 81c4 	bcc.w	87805628 <vsnprintf+0x3ac>
878052a0:	2800      	cmp	r0, #0
878052a2:	f000 82f9 	beq.w	87805898 <vsnprintf+0x61c>
878052a6:	9405      	str	r4, [sp, #20]
878052a8:	f64a 484c 	movw	r8, #44108	; 0xac4c
878052ac:	f64a 4b30 	movw	fp, #44080	; 0xac30
878052b0:	f2c8 7880 	movt	r8, #34688	; 0x8780
878052b4:	f2c8 7b80 	movt	fp, #34688	; 0x8780
878052b8:	e008      	b.n	878052cc <vsnprintf+0x50>
878052ba:	42a7      	cmp	r7, r4
878052bc:	bf28      	it	cs
878052be:	7020      	strbcs	r0, [r4, #0]
878052c0:	7870      	ldrb	r0, [r6, #1]
878052c2:	3401      	adds	r4, #1
878052c4:	3601      	adds	r6, #1
878052c6:	2800      	cmp	r0, #0
878052c8:	f000 813f 	beq.w	8780554a <vsnprintf+0x2ce>
878052cc:	2825      	cmp	r0, #37	; 0x25
878052ce:	bf08      	it	eq
878052d0:	2300      	moveq	r3, #0
878052d2:	d1f2      	bne.n	878052ba <vsnprintf+0x3e>
878052d4:	7875      	ldrb	r5, [r6, #1]
878052d6:	1c70      	adds	r0, r6, #1
878052d8:	f1a5 0220 	sub.w	r2, r5, #32
878052dc:	2a10      	cmp	r2, #16
878052de:	d81e      	bhi.n	8780531e <vsnprintf+0xa2>
878052e0:	e8df f002 	tbb	[pc, r2]
878052e4:	151d1d19 	ldrne	r1, [sp, #-3353]	; 0xd19
878052e8:	1d1d1d1d 	ldcne	13, cr1, [sp, #-116]	; 0xffffff8c
878052ec:	111d1d1d 	tstne	sp, sp, lsl sp
878052f0:	1d1d0d1d 	ldcne	13, cr0, [sp, #-116]	; 0xffffff8c
878052f4:	f0430009 			; <UNDEFINED> instruction: 0xf0430009
878052f8:	0301      	lsls	r1, r0, #12
878052fa:	4606      	mov	r6, r0
878052fc:	e7ea      	b.n	878052d4 <vsnprintf+0x58>
878052fe:	f043 0310 	orr.w	r3, r3, #16
87805302:	4606      	mov	r6, r0
87805304:	e7e6      	b.n	878052d4 <vsnprintf+0x58>
87805306:	f043 0304 	orr.w	r3, r3, #4
8780530a:	4606      	mov	r6, r0
8780530c:	e7e2      	b.n	878052d4 <vsnprintf+0x58>
8780530e:	f043 0320 	orr.w	r3, r3, #32
87805312:	4606      	mov	r6, r0
87805314:	e7de      	b.n	878052d4 <vsnprintf+0x58>
87805316:	f043 0308 	orr.w	r3, r3, #8
8780531a:	4606      	mov	r6, r0
8780531c:	e7da      	b.n	878052d4 <vsnprintf+0x58>
8780531e:	f818 2005 	ldrb.w	r2, [r8, r5]
87805322:	4629      	mov	r1, r5
87805324:	0752      	lsls	r2, r2, #29
87805326:	f140 80dc 	bpl.w	878054e2 <vsnprintf+0x266>
8780532a:	2500      	movs	r5, #0
8780532c:	00ea      	lsls	r2, r5, #3
8780532e:	eb02 0545 	add.w	r5, r2, r5, lsl #1
87805332:	440d      	add	r5, r1
87805334:	f810 1f01 	ldrb.w	r1, [r0, #1]!
87805338:	3d30      	subs	r5, #48	; 0x30
8780533a:	f818 2001 	ldrb.w	r2, [r8, r1]
8780533e:	0752      	lsls	r2, r2, #29
87805340:	d4f4      	bmi.n	8780532c <vsnprintf+0xb0>
87805342:	292e      	cmp	r1, #46	; 0x2e
87805344:	bf18      	it	ne
87805346:	f04f 3eff 	movne.w	lr, #4294967295	; 0xffffffff
8780534a:	f000 80e2 	beq.w	87805512 <vsnprintf+0x296>
8780534e:	f001 02df 	and.w	r2, r1, #223	; 0xdf
87805352:	2a5a      	cmp	r2, #90	; 0x5a
87805354:	bf18      	it	ne
87805356:	2a4c      	cmpne	r2, #76	; 0x4c
87805358:	bf0c      	ite	eq
8780535a:	2201      	moveq	r2, #1
8780535c:	2200      	movne	r2, #0
8780535e:	2968      	cmp	r1, #104	; 0x68
87805360:	bf08      	it	eq
87805362:	f042 0201 	orreq.w	r2, r2, #1
87805366:	2a00      	cmp	r2, #0
87805368:	d15b      	bne.n	87805422 <vsnprintf+0x1a6>
8780536a:	f04f 32ff 	mov.w	r2, #4294967295	; 0xffffffff
8780536e:	3925      	subs	r1, #37	; 0x25
87805370:	2953      	cmp	r1, #83	; 0x53
87805372:	f200 823c 	bhi.w	878057ee <vsnprintf+0x572>
87805376:	e8df f011 	tbh	[pc, r1, lsl #1]
8780537a:	023a01ec 	eorseq	r0, sl, #236, 2	; 0x3b
8780537e:	023a023a 	eorseq	r0, sl, #-1610612733	; 0xa0000003
87805382:	023a023a 	eorseq	r0, sl, #-1610612733	; 0xa0000003
87805386:	023a023a 	eorseq	r0, sl, #-1610612733	; 0xa0000003
8780538a:	023a023a 	eorseq	r0, sl, #-1610612733	; 0xa0000003
8780538e:	023a023a 	eorseq	r0, sl, #-1610612733	; 0xa0000003
87805392:	023a023a 	eorseq	r0, sl, #-1610612733	; 0xa0000003
87805396:	023a023a 	eorseq	r0, sl, #-1610612733	; 0xa0000003
8780539a:	023a023a 	eorseq	r0, sl, #-1610612733	; 0xa0000003
8780539e:	023a023a 	eorseq	r0, sl, #-1610612733	; 0xa0000003
878053a2:	023a023a 	eorseq	r0, sl, #-1610612733	; 0xa0000003
878053a6:	023a023a 	eorseq	r0, sl, #-1610612733	; 0xa0000003
878053aa:	023a023a 	eorseq	r0, sl, #-1610612733	; 0xa0000003
878053ae:	023a023a 	eorseq	r0, sl, #-1610612733	; 0xa0000003
878053b2:	023a023a 	eorseq	r0, sl, #-1610612733	; 0xa0000003
878053b6:	023a023a 	eorseq	r0, sl, #-1610612733	; 0xa0000003
878053ba:	023a023a 	eorseq	r0, sl, #-1610612733	; 0xa0000003
878053be:	023a023a 	eorseq	r0, sl, #-1610612733	; 0xa0000003
878053c2:	023a023a 	eorseq	r0, sl, #-1610612733	; 0xa0000003
878053c6:	023a023a 	eorseq	r0, sl, #-1610612733	; 0xa0000003
878053ca:	023a023a 	eorseq	r0, sl, #-1610612733	; 0xa0000003
878053ce:	023a023a 	eorseq	r0, sl, #-1610612733	; 0xa0000003
878053d2:	023a023a 	eorseq	r0, sl, #-1610612733	; 0xa0000003
878053d6:	023a023a 	eorseq	r0, sl, #-1610612733	; 0xa0000003
878053da:	023a023a 	eorseq	r0, sl, #-1610612733	; 0xa0000003
878053de:	016f023a 	cmneq	pc, sl, lsr r2	; <UNPREDICTABLE>
878053e2:	023a023a 	eorseq	r0, sl, #-1610612733	; 0xa0000003
878053e6:	023a023a 	eorseq	r0, sl, #-1610612733	; 0xa0000003
878053ea:	023a023a 	eorseq	r0, sl, #-1610612733	; 0xa0000003
878053ee:	023a023a 	eorseq	r0, sl, #-1610612733	; 0xa0000003
878053f2:	023a023a 	eorseq	r0, sl, #-1610612733	; 0xa0000003
878053f6:	01b801be 			; <UNDEFINED> instruction: 0x01b801be
878053fa:	023a023a 	eorseq	r0, sl, #-1610612733	; 0xa0000003
878053fe:	023a023a 	eorseq	r0, sl, #-1610612733	; 0xa0000003
87805402:	023a01b8 	eorseq	r0, sl, #184, 2	; 0x2e
87805406:	023a023a 	eorseq	r0, sl, #-1610612733	; 0xa0000003
8780540a:	0262023a 	rsbeq	r0, r2, #-1610612733	; 0xa0000003
8780540e:	019b01b4 			; <UNDEFINED> instruction: 0x019b01b4
87805412:	023a023a 	eorseq	r0, sl, #-1610612733	; 0xa0000003
87805416:	023a01f2 	eorseq	r0, sl, #-2147483588	; 0x8000003c
8780541a:	023a0274 	eorseq	r0, sl, #116, 4	; 0x40000007
8780541e:	0272023a 	rsbseq	r0, r2, #-1610612733	; 0xa0000003
87805422:	460a      	mov	r2, r1
87805424:	1c46      	adds	r6, r0, #1
87805426:	2a6c      	cmp	r2, #108	; 0x6c
87805428:	7841      	ldrb	r1, [r0, #1]
8780542a:	f000 809b 	beq.w	87805564 <vsnprintf+0x2e8>
8780542e:	3925      	subs	r1, #37	; 0x25
87805430:	2953      	cmp	r1, #83	; 0x53
87805432:	f200 81dd 	bhi.w	878057f0 <vsnprintf+0x574>
87805436:	e8df f011 	tbh	[pc, r1, lsl #1]
8780543a:	01db018d 	bicseq	r0, fp, sp, lsl #3
8780543e:	01db01db 	ldrsbeq	r0, [fp, #27]
87805442:	01db01db 	ldrsbeq	r0, [fp, #27]
87805446:	01db01db 	ldrsbeq	r0, [fp, #27]
8780544a:	01db01db 	ldrsbeq	r0, [fp, #27]
8780544e:	01db01db 	ldrsbeq	r0, [fp, #27]
87805452:	01db01db 	ldrsbeq	r0, [fp, #27]
87805456:	01db01db 	ldrsbeq	r0, [fp, #27]
8780545a:	01db01db 	ldrsbeq	r0, [fp, #27]
8780545e:	01db01db 	ldrsbeq	r0, [fp, #27]
87805462:	01db01db 	ldrsbeq	r0, [fp, #27]
87805466:	01db01db 	ldrsbeq	r0, [fp, #27]
8780546a:	01db01db 	ldrsbeq	r0, [fp, #27]
8780546e:	01db01db 	ldrsbeq	r0, [fp, #27]
87805472:	01db01db 	ldrsbeq	r0, [fp, #27]
87805476:	01db01db 	ldrsbeq	r0, [fp, #27]
8780547a:	01db01db 	ldrsbeq	r0, [fp, #27]
8780547e:	01db01db 	ldrsbeq	r0, [fp, #27]
87805482:	01db01db 	ldrsbeq	r0, [fp, #27]
87805486:	01db01db 	ldrsbeq	r0, [fp, #27]
8780548a:	01db01db 	ldrsbeq	r0, [fp, #27]
8780548e:	01db01db 	ldrsbeq	r0, [fp, #27]
87805492:	01db01db 	ldrsbeq	r0, [fp, #27]
87805496:	01db01db 	ldrsbeq	r0, [fp, #27]
8780549a:	01db01db 	ldrsbeq	r0, [fp, #27]
8780549e:	011001db 			; <UNDEFINED> instruction: 0x011001db
878054a2:	01db01db 	ldrsbeq	r0, [fp, #27]
878054a6:	01db01db 	ldrsbeq	r0, [fp, #27]
878054aa:	01db01db 	ldrsbeq	r0, [fp, #27]
878054ae:	01db01db 	ldrsbeq	r0, [fp, #27]
878054b2:	01db01db 	ldrsbeq	r0, [fp, #27]
878054b6:	0159015f 	cmpeq	r9, pc, asr r1
878054ba:	01db01db 	ldrsbeq	r0, [fp, #27]
878054be:	01db01db 	ldrsbeq	r0, [fp, #27]
878054c2:	01db0159 	bicseq	r0, fp, r9, asr r1
878054c6:	01db01db 	ldrsbeq	r0, [fp, #27]
878054ca:	020301db 	andeq	r0, r3, #-1073741770	; 0xc0000036
878054ce:	013c0155 	teqeq	ip, r5, asr r1
878054d2:	01db01db 	ldrsbeq	r0, [fp, #27]
878054d6:	01db0193 			; <UNDEFINED> instruction: 0x01db0193
878054da:	01db0132 	bicseq	r0, fp, r2, lsr r1
878054de:	011201db 			; <UNDEFINED> instruction: 0x011201db
878054e2:	2d2a      	cmp	r5, #42	; 0x2a
878054e4:	bf1c      	itt	ne
878054e6:	4629      	movne	r1, r5
878054e8:	f04f 35ff 	movne.w	r5, #4294967295	; 0xffffffff
878054ec:	f47f af29 	bne.w	87805342 <vsnprintf+0xc6>
878054f0:	f8d9 5000 	ldr.w	r5, [r9]
878054f4:	1cb0      	adds	r0, r6, #2
878054f6:	78b1      	ldrb	r1, [r6, #2]
878054f8:	f109 0904 	add.w	r9, r9, #4
878054fc:	2d00      	cmp	r5, #0
878054fe:	bfbc      	itt	lt
87805500:	426d      	neglt	r5, r5
87805502:	f043 0310 	orrlt.w	r3, r3, #16
87805506:	292e      	cmp	r1, #46	; 0x2e
87805508:	bf18      	it	ne
8780550a:	f04f 3eff 	movne.w	lr, #4294967295	; 0xffffffff
8780550e:	f47f af1e 	bne.w	8780534e <vsnprintf+0xd2>
87805512:	7841      	ldrb	r1, [r0, #1]
87805514:	f100 0c01 	add.w	ip, r0, #1
87805518:	f818 6001 	ldrb.w	r6, [r8, r1]
8780551c:	f006 0604 	and.w	r6, r6, #4
87805520:	f006 02ff 	and.w	r2, r6, #255	; 0xff
87805524:	2e00      	cmp	r6, #0
87805526:	f000 8088 	beq.w	8780563a <vsnprintf+0x3be>
8780552a:	4660      	mov	r0, ip
8780552c:	2200      	movs	r2, #0
8780552e:	00d6      	lsls	r6, r2, #3
87805530:	eb06 0242 	add.w	r2, r6, r2, lsl #1
87805534:	440a      	add	r2, r1
87805536:	f810 1f01 	ldrb.w	r1, [r0, #1]!
8780553a:	3a30      	subs	r2, #48	; 0x30
8780553c:	f818 6001 	ldrb.w	r6, [r8, r1]
87805540:	0776      	lsls	r6, r6, #29
87805542:	d4f4      	bmi.n	8780552e <vsnprintf+0x2b2>
87805544:	ea22 7ee2 	bic.w	lr, r2, r2, asr #31
87805548:	e701      	b.n	8780534e <vsnprintf+0xd2>
8780554a:	4623      	mov	r3, r4
8780554c:	9a05      	ldr	r2, [sp, #20]
8780554e:	1aa0      	subs	r0, r4, r2
87805550:	42bb      	cmp	r3, r7
87805552:	d964      	bls.n	8780561e <vsnprintf+0x3a2>
87805554:	f1ba 0f00 	cmp.w	sl, #0
87805558:	d001      	beq.n	8780555e <vsnprintf+0x2e2>
8780555a:	2300      	movs	r3, #0
8780555c:	703b      	strb	r3, [r7, #0]
8780555e:	b009      	add	sp, #36	; 0x24
87805560:	e8bd 8ff0 	ldmia.w	sp!, {r4, r5, r6, r7, r8, r9, sl, fp, pc}
87805564:	296c      	cmp	r1, #108	; 0x6c
87805566:	f000 8174 	beq.w	87805852 <vsnprintf+0x5d6>
8780556a:	3925      	subs	r1, #37	; 0x25
8780556c:	2953      	cmp	r1, #83	; 0x53
8780556e:	f200 813f 	bhi.w	878057f0 <vsnprintf+0x574>
87805572:	e8df f011 	tbh	[pc, r1, lsl #1]
87805576:	013d00ef 	teqeq	sp, pc, ror #1
8780557a:	013d013d 	teqeq	sp, sp, lsr r1
8780557e:	013d013d 	teqeq	sp, sp, lsr r1
87805582:	013d013d 	teqeq	sp, sp, lsr r1
87805586:	013d013d 	teqeq	sp, sp, lsr r1
8780558a:	013d013d 	teqeq	sp, sp, lsr r1
8780558e:	013d013d 	teqeq	sp, sp, lsr r1
87805592:	013d013d 	teqeq	sp, sp, lsr r1
87805596:	013d013d 	teqeq	sp, sp, lsr r1
8780559a:	013d013d 	teqeq	sp, sp, lsr r1
8780559e:	013d013d 	teqeq	sp, sp, lsr r1
878055a2:	013d013d 	teqeq	sp, sp, lsr r1
878055a6:	013d013d 	teqeq	sp, sp, lsr r1
878055aa:	013d013d 	teqeq	sp, sp, lsr r1
878055ae:	013d013d 	teqeq	sp, sp, lsr r1
878055b2:	013d013d 	teqeq	sp, sp, lsr r1
878055b6:	013d013d 	teqeq	sp, sp, lsr r1
878055ba:	013d013d 	teqeq	sp, sp, lsr r1
878055be:	013d013d 	teqeq	sp, sp, lsr r1
878055c2:	013d013d 	teqeq	sp, sp, lsr r1
878055c6:	013d013d 	teqeq	sp, sp, lsr r1
878055ca:	013d013d 	teqeq	sp, sp, lsr r1
878055ce:	013d013d 	teqeq	sp, sp, lsr r1
878055d2:	013d013d 	teqeq	sp, sp, lsr r1
878055d6:	013d013d 	teqeq	sp, sp, lsr r1
878055da:	0072013d 	rsbseq	r0, r2, sp, lsr r1
878055de:	013d013d 	teqeq	sp, sp, lsr r1
878055e2:	013d013d 	teqeq	sp, sp, lsr r1
878055e6:	013d013d 	teqeq	sp, sp, lsr r1
878055ea:	013d013d 	teqeq	sp, sp, lsr r1
878055ee:	013d013d 	teqeq	sp, sp, lsr r1
878055f2:	00bb00c1 	adcseq	r0, fp, r1, asr #1
878055f6:	013d013d 	teqeq	sp, sp, lsr r1
878055fa:	013d013d 	teqeq	sp, sp, lsr r1
878055fe:	013d00bb 	ldrheq	r0, [sp, -fp]!
87805602:	013d013d 	teqeq	sp, sp, lsr r1
87805606:	017d013d 	cmneq	sp, sp, lsr r1
8780560a:	009e00b7 	ldrheq	r0, [lr], r7
8780560e:	013d013d 	teqeq	sp, sp, lsr r1
87805612:	013d00f5 	ldrsheq	r0, [sp, -r5]!
87805616:	013d0158 	teqeq	sp, r8, asr r1
8780561a:	0074013d 	rsbseq	r0, r4, sp, lsr r1
8780561e:	2200      	movs	r2, #0
87805620:	701a      	strb	r2, [r3, #0]
87805622:	b009      	add	sp, #36	; 0x24
87805624:	e8bd 8ff0 	ldmia.w	sp!, {r4, r5, r6, r7, r8, r9, sl, fp, pc}
87805628:	9405      	str	r4, [sp, #20]
8780562a:	f1c4 0a00 	rsb	sl, r4, #0
8780562e:	4623      	mov	r3, r4
87805630:	2800      	cmp	r0, #0
87805632:	d0f4      	beq.n	8780561e <vsnprintf+0x3a2>
87805634:	f04f 37ff 	mov.w	r7, #4294967295	; 0xffffffff
87805638:	e636      	b.n	878052a8 <vsnprintf+0x2c>
8780563a:	292a      	cmp	r1, #42	; 0x2a
8780563c:	bf1c      	itt	ne
8780563e:	4660      	movne	r0, ip
87805640:	4696      	movne	lr, r2
87805642:	f47f ae84 	bne.w	8780534e <vsnprintf+0xd2>
87805646:	f8d9 2000 	ldr.w	r2, [r9]
8780564a:	3002      	adds	r0, #2
8780564c:	7801      	ldrb	r1, [r0, #0]
8780564e:	f109 0904 	add.w	r9, r9, #4
87805652:	ea22 7ee2 	bic.w	lr, r2, r2, asr #31
87805656:	e67a      	b.n	8780534e <vsnprintf+0xd2>
87805658:	4606      	mov	r6, r0
8780565a:	f043 0340 	orr.w	r3, r3, #64	; 0x40
8780565e:	f04f 0c10 	mov.w	ip, #16
87805662:	2a4c      	cmp	r2, #76	; 0x4c
87805664:	d01f      	beq.n	878056a6 <vsnprintf+0x42a>
87805666:	2a6c      	cmp	r2, #108	; 0x6c
87805668:	f000 80df 	beq.w	8780582a <vsnprintf+0x5ae>
8780566c:	f022 0120 	bic.w	r1, r2, #32
87805670:	295a      	cmp	r1, #90	; 0x5a
87805672:	f040 80cc 	bne.w	8780580e <vsnprintf+0x592>
87805676:	f8d9 0000 	ldr.w	r0, [r9]
8780567a:	f109 0904 	add.w	r9, r9, #4
8780567e:	2100      	movs	r1, #0
87805680:	9303      	str	r3, [sp, #12]
87805682:	4602      	mov	r2, r0
87805684:	460b      	mov	r3, r1
87805686:	4620      	mov	r0, r4
87805688:	f8cd e008 	str.w	lr, [sp, #8]
8780568c:	4639      	mov	r1, r7
8780568e:	9501      	str	r5, [sp, #4]
87805690:	f8cd c000 	str.w	ip, [sp]
87805694:	f7ff fa86 	bl	87804ba4 <number>
87805698:	4604      	mov	r4, r0
8780569a:	7870      	ldrb	r0, [r6, #1]
8780569c:	e612      	b.n	878052c4 <vsnprintf+0x48>
8780569e:	2a4c      	cmp	r2, #76	; 0x4c
878056a0:	f04f 0c0a 	mov.w	ip, #10
878056a4:	d1df      	bne.n	87805666 <vsnprintf+0x3ea>
878056a6:	e9d9 0100 	ldrd	r0, r1, [r9]
878056aa:	f109 0908 	add.w	r9, r9, #8
878056ae:	e7e7      	b.n	87805680 <vsnprintf+0x404>
878056b0:	4606      	mov	r6, r0
878056b2:	1c69      	adds	r1, r5, #1
878056b4:	f04f 0110 	mov.w	r1, #16
878056b8:	bf04      	itt	eq
878056ba:	f043 0301 	orreq.w	r3, r3, #1
878056be:	2508      	moveq	r5, #8
878056c0:	f8d9 2000 	ldr.w	r2, [r9]
878056c4:	4620      	mov	r0, r4
878056c6:	9303      	str	r3, [sp, #12]
878056c8:	2300      	movs	r3, #0
878056ca:	e88d 0022 	stmia.w	sp, {r1, r5}
878056ce:	4639      	mov	r1, r7
878056d0:	f8cd e008 	str.w	lr, [sp, #8]
878056d4:	f109 0904 	add.w	r9, r9, #4
878056d8:	f7ff fa64 	bl	87804ba4 <number>
878056dc:	4604      	mov	r4, r0
878056de:	7870      	ldrb	r0, [r6, #1]
878056e0:	e5f0      	b.n	878052c4 <vsnprintf+0x48>
878056e2:	4606      	mov	r6, r0
878056e4:	f04f 0c08 	mov.w	ip, #8
878056e8:	e7bb      	b.n	87805662 <vsnprintf+0x3e6>
878056ea:	4606      	mov	r6, r0
878056ec:	f043 0302 	orr.w	r3, r3, #2
878056f0:	f04f 0c0a 	mov.w	ip, #10
878056f4:	e7b5      	b.n	87805662 <vsnprintf+0x3e6>
878056f6:	4606      	mov	r6, r0
878056f8:	06d8      	lsls	r0, r3, #27
878056fa:	d40d      	bmi.n	87805718 <vsnprintf+0x49c>
878056fc:	3d01      	subs	r5, #1
878056fe:	2d00      	cmp	r5, #0
87805700:	dd0a      	ble.n	87805718 <vsnprintf+0x49c>
87805702:	1963      	adds	r3, r4, r5
87805704:	2220      	movs	r2, #32
87805706:	42a7      	cmp	r7, r4
87805708:	f104 0401 	add.w	r4, r4, #1
8780570c:	bf28      	it	cs
8780570e:	f804 2c01 	strbcs.w	r2, [r4, #-1]
87805712:	429c      	cmp	r4, r3
87805714:	d1f7      	bne.n	87805706 <vsnprintf+0x48a>
87805716:	2500      	movs	r5, #0
87805718:	f8d9 3000 	ldr.w	r3, [r9]
8780571c:	42bc      	cmp	r4, r7
8780571e:	f104 0101 	add.w	r1, r4, #1
87805722:	f109 0004 	add.w	r0, r9, #4
87805726:	bf98      	it	ls
87805728:	7023      	strbls	r3, [r4, #0]
8780572a:	2d01      	cmp	r5, #1
8780572c:	bfc2      	ittt	gt
8780572e:	1964      	addgt	r4, r4, r5
87805730:	460b      	movgt	r3, r1
87805732:	2220      	movgt	r2, #32
87805734:	f340 80b4 	ble.w	878058a0 <vsnprintf+0x624>
87805738:	429f      	cmp	r7, r3
8780573a:	f103 0301 	add.w	r3, r3, #1
8780573e:	bf28      	it	cs
87805740:	f803 2c01 	strbcs.w	r2, [r3, #-1]
87805744:	42a3      	cmp	r3, r4
87805746:	d1f7      	bne.n	87805738 <vsnprintf+0x4bc>
87805748:	1e6c      	subs	r4, r5, #1
8780574a:	4681      	mov	r9, r0
8780574c:	440c      	add	r4, r1
8780574e:	7870      	ldrb	r0, [r6, #1]
87805750:	e5b8      	b.n	878052c4 <vsnprintf+0x48>
87805752:	4606      	mov	r6, r0
87805754:	42a7      	cmp	r7, r4
87805756:	bf24      	itt	cs
87805758:	2325      	movcs	r3, #37	; 0x25
8780575a:	7023      	strbcs	r3, [r4, #0]
8780575c:	e5b0      	b.n	878052c0 <vsnprintf+0x44>
8780575e:	4606      	mov	r6, r0
87805760:	f8d9 2000 	ldr.w	r2, [r9]
87805764:	4671      	mov	r1, lr
87805766:	9307      	str	r3, [sp, #28]
87805768:	f109 0904 	add.w	r9, r9, #4
8780576c:	f5b2 6f80 	cmp.w	r2, #1024	; 0x400
87805770:	bf38      	it	cc
87805772:	465a      	movcc	r2, fp
87805774:	4610      	mov	r0, r2
87805776:	9206      	str	r2, [sp, #24]
87805778:	f7ff f8ae 	bl	878048d8 <strnlen>
8780577c:	9b07      	ldr	r3, [sp, #28]
8780577e:	9a06      	ldr	r2, [sp, #24]
87805780:	f013 0f10 	tst.w	r3, #16
87805784:	d112      	bne.n	878057ac <vsnprintf+0x530>
87805786:	4285      	cmp	r5, r0
87805788:	f105 3eff 	add.w	lr, r5, #4294967295	; 0xffffffff
8780578c:	f340 808c 	ble.w	878058a8 <vsnprintf+0x62c>
87805790:	1a2b      	subs	r3, r5, r0
87805792:	2120      	movs	r1, #32
87805794:	4423      	add	r3, r4
87805796:	42a7      	cmp	r7, r4
87805798:	f104 0401 	add.w	r4, r4, #1
8780579c:	bf28      	it	cs
8780579e:	f804 1c01 	strbcs.w	r1, [r4, #-1]
878057a2:	429c      	cmp	r4, r3
878057a4:	d1f7      	bne.n	87805796 <vsnprintf+0x51a>
878057a6:	ebc5 050e 	rsb	r5, r5, lr
878057aa:	4405      	add	r5, r0
878057ac:	2800      	cmp	r0, #0
878057ae:	dd75      	ble.n	8780589c <vsnprintf+0x620>
878057b0:	1823      	adds	r3, r4, r0
878057b2:	42a7      	cmp	r7, r4
878057b4:	f104 0401 	add.w	r4, r4, #1
878057b8:	bf28      	it	cs
878057ba:	7811      	ldrbcs	r1, [r2, #0]
878057bc:	f102 0201 	add.w	r2, r2, #1
878057c0:	bf28      	it	cs
878057c2:	f804 1c01 	strbcs.w	r1, [r4, #-1]
878057c6:	429c      	cmp	r4, r3
878057c8:	d1f3      	bne.n	878057b2 <vsnprintf+0x536>
878057ca:	4285      	cmp	r5, r0
878057cc:	bfdc      	itt	le
878057ce:	461c      	movle	r4, r3
878057d0:	7870      	ldrble	r0, [r6, #1]
878057d2:	f77f ad77 	ble.w	878052c4 <vsnprintf+0x48>
878057d6:	1a28      	subs	r0, r5, r0
878057d8:	2220      	movs	r2, #32
878057da:	181c      	adds	r4, r3, r0
878057dc:	429f      	cmp	r7, r3
878057de:	f103 0301 	add.w	r3, r3, #1
878057e2:	bf28      	it	cs
878057e4:	f803 2c01 	strbcs.w	r2, [r3, #-1]
878057e8:	42a3      	cmp	r3, r4
878057ea:	d1f7      	bne.n	878057dc <vsnprintf+0x560>
878057ec:	e755      	b.n	8780569a <vsnprintf+0x41e>
878057ee:	4606      	mov	r6, r0
878057f0:	42a7      	cmp	r7, r4
878057f2:	bf24      	itt	cs
878057f4:	2325      	movcs	r3, #37	; 0x25
878057f6:	7023      	strbcs	r3, [r4, #0]
878057f8:	1c63      	adds	r3, r4, #1
878057fa:	7832      	ldrb	r2, [r6, #0]
878057fc:	b36a      	cbz	r2, 8780585a <vsnprintf+0x5de>
878057fe:	42bb      	cmp	r3, r7
87805800:	f104 0402 	add.w	r4, r4, #2
87805804:	bf98      	it	ls
87805806:	f804 2c01 	strbls.w	r2, [r4, #-1]
8780580a:	7870      	ldrb	r0, [r6, #1]
8780580c:	e55a      	b.n	878052c4 <vsnprintf+0x48>
8780580e:	2a68      	cmp	r2, #104	; 0x68
87805810:	f109 0204 	add.w	r2, r9, #4
87805814:	f8d9 0000 	ldr.w	r0, [r9]
87805818:	4691      	mov	r9, r2
8780581a:	d036      	beq.n	8780588a <vsnprintf+0x60e>
8780581c:	079a      	lsls	r2, r3, #30
8780581e:	f57f af2e 	bpl.w	8780567e <vsnprintf+0x402>
87805822:	17c1      	asrs	r1, r0, #31
87805824:	e72c      	b.n	87805680 <vsnprintf+0x404>
87805826:	f04f 0c0a 	mov.w	ip, #10
8780582a:	f109 0204 	add.w	r2, r9, #4
8780582e:	f8d9 0000 	ldr.w	r0, [r9]
87805832:	4691      	mov	r9, r2
87805834:	079a      	lsls	r2, r3, #30
87805836:	f57f af22 	bpl.w	8780567e <vsnprintf+0x402>
8780583a:	17c1      	asrs	r1, r0, #31
8780583c:	e720      	b.n	87805680 <vsnprintf+0x404>
8780583e:	4606      	mov	r6, r0
87805840:	9a05      	ldr	r2, [sp, #20]
87805842:	f109 0904 	add.w	r9, r9, #4
87805846:	f859 3c04 	ldr.w	r3, [r9, #-4]
8780584a:	1aa2      	subs	r2, r4, r2
8780584c:	601a      	str	r2, [r3, #0]
8780584e:	7870      	ldrb	r0, [r6, #1]
87805850:	e538      	b.n	878052c4 <vsnprintf+0x48>
87805852:	7881      	ldrb	r1, [r0, #2]
87805854:	224c      	movs	r2, #76	; 0x4c
87805856:	3002      	adds	r0, #2
87805858:	e589      	b.n	8780536e <vsnprintf+0xf2>
8780585a:	461c      	mov	r4, r3
8780585c:	e676      	b.n	8780554c <vsnprintf+0x2d0>
8780585e:	4606      	mov	r6, r0
87805860:	e6fd      	b.n	8780565e <vsnprintf+0x3e2>
87805862:	2a4c      	cmp	r2, #76	; 0x4c
87805864:	4606      	mov	r6, r0
87805866:	f04f 0c0a 	mov.w	ip, #10
8780586a:	f47f aeff 	bne.w	8780566c <vsnprintf+0x3f0>
8780586e:	e71a      	b.n	878056a6 <vsnprintf+0x42a>
87805870:	9a05      	ldr	r2, [sp, #20]
87805872:	f109 0904 	add.w	r9, r9, #4
87805876:	f859 3c04 	ldr.w	r3, [r9, #-4]
8780587a:	1aa2      	subs	r2, r4, r2
8780587c:	601a      	str	r2, [r3, #0]
8780587e:	7880      	ldrb	r0, [r0, #2]
87805880:	e520      	b.n	878052c4 <vsnprintf+0x48>
87805882:	2000      	movs	r0, #0
87805884:	b009      	add	sp, #36	; 0x24
87805886:	e8bd 8ff0 	ldmia.w	sp!, {r4, r5, r6, r7, r8, r9, sl, fp, pc}
8780588a:	0799      	lsls	r1, r3, #30
8780588c:	bf4d      	iteet	mi
8780588e:	b200      	sxthmi	r0, r0
87805890:	b280      	uxthpl	r0, r0
87805892:	2100      	movpl	r1, #0
87805894:	17c1      	asrmi	r1, r0, #31
87805896:	e6f3      	b.n	87805680 <vsnprintf+0x404>
87805898:	4623      	mov	r3, r4
8780589a:	e659      	b.n	87805550 <vsnprintf+0x2d4>
8780589c:	4623      	mov	r3, r4
8780589e:	e794      	b.n	878057ca <vsnprintf+0x54e>
878058a0:	4681      	mov	r9, r0
878058a2:	460c      	mov	r4, r1
878058a4:	7870      	ldrb	r0, [r6, #1]
878058a6:	e50d      	b.n	878052c4 <vsnprintf+0x48>
878058a8:	4675      	mov	r5, lr
878058aa:	e77f      	b.n	878057ac <vsnprintf+0x530>

878058ac <vscnprintf>:
878058ac:	b510      	push	{r4, lr}
878058ae:	460c      	mov	r4, r1
878058b0:	f7ff fce4 	bl	8780527c <vsnprintf>
878058b4:	4284      	cmp	r4, r0
878058b6:	bf98      	it	ls
878058b8:	f104 30ff 	addls.w	r0, r4, #4294967295	; 0xffffffff
878058bc:	bd10      	pop	{r4, pc}
878058be:	bf00      	nop

878058c0 <snprintf>:
878058c0:	b40c      	push	{r2, r3}
878058c2:	b508      	push	{r3, lr}
878058c4:	ab03      	add	r3, sp, #12
878058c6:	9a02      	ldr	r2, [sp, #8]
878058c8:	f7ff fcd8 	bl	8780527c <vsnprintf>
878058cc:	e8bd 4008 	ldmia.w	sp!, {r3, lr}
878058d0:	b002      	add	sp, #8
878058d2:	4770      	bx	lr

878058d4 <scnprintf>:
878058d4:	b40c      	push	{r2, r3}
878058d6:	b510      	push	{r4, lr}
878058d8:	460c      	mov	r4, r1
878058da:	ab03      	add	r3, sp, #12
878058dc:	9a02      	ldr	r2, [sp, #8]
878058de:	f7ff fccd 	bl	8780527c <vsnprintf>
878058e2:	4284      	cmp	r4, r0
878058e4:	bf98      	it	ls
878058e6:	f104 30ff 	addls.w	r0, r4, #4294967295	; 0xffffffff
878058ea:	e8bd 4010 	ldmia.w	sp!, {r4, lr}
878058ee:	b002      	add	sp, #8
878058f0:	4770      	bx	lr
878058f2:	bf00      	nop

878058f4 <vsprintf>:
878058f4:	4613      	mov	r3, r2
878058f6:	460a      	mov	r2, r1
878058f8:	f06f 4100 	mvn.w	r1, #2147483648	; 0x80000000
878058fc:	f7ff bcbe 	b.w	8780527c <vsnprintf>

87805900 <sprintf>:
87805900:	b40e      	push	{r1, r2, r3}
87805902:	f06f 4100 	mvn.w	r1, #2147483648	; 0x80000000
87805906:	b500      	push	{lr}
87805908:	ab02      	add	r3, sp, #8
8780590a:	9a01      	ldr	r2, [sp, #4]
8780590c:	f7ff fcb6 	bl	8780527c <vsnprintf>
87805910:	f85d eb04 	ldr.w	lr, [sp], #4
87805914:	b003      	add	sp, #12
87805916:	4770      	bx	lr

87805918 <vsscanf>:
87805918:	e92d 4ff0 	stmdb	sp!, {r4, r5, r6, r7, r8, r9, sl, fp, lr}
8780591c:	f64a 444c 	movw	r4, #44108	; 0xac4c
87805920:	780b      	ldrb	r3, [r1, #0]
87805922:	f2c8 7480 	movt	r4, #34688	; 0x8780
87805926:	b083      	sub	sp, #12
87805928:	4607      	mov	r7, r0
8780592a:	460d      	mov	r5, r1
8780592c:	4696      	mov	lr, r2
8780592e:	46a0      	mov	r8, r4
87805930:	2600      	movs	r6, #0
87805932:	b143      	cbz	r3, 87805946 <vsscanf+0x2e>
87805934:	7801      	ldrb	r1, [r0, #0]
87805936:	b131      	cbz	r1, 87805946 <vsscanf+0x2e>
87805938:	5ce2      	ldrb	r2, [r4, r3]
8780593a:	0692      	lsls	r2, r2, #26
8780593c:	d407      	bmi.n	8780594e <vsscanf+0x36>
8780593e:	2b25      	cmp	r3, #37	; 0x25
87805940:	d020      	beq.n	87805984 <vsscanf+0x6c>
87805942:	428b      	cmp	r3, r1
87805944:	d018      	beq.n	87805978 <vsscanf+0x60>
87805946:	4630      	mov	r0, r6
87805948:	b003      	add	sp, #12
8780594a:	e8bd 8ff0 	ldmia.w	sp!, {r4, r5, r6, r7, r8, r9, sl, fp, pc}
8780594e:	f815 3f01 	ldrb.w	r3, [r5, #1]!
87805952:	5ce2      	ldrb	r2, [r4, r3]
87805954:	0692      	lsls	r2, r2, #26
87805956:	d4fa      	bmi.n	8780594e <vsscanf+0x36>
87805958:	f818 2001 	ldrb.w	r2, [r8, r1]
8780595c:	0691      	lsls	r1, r2, #26
8780595e:	d504      	bpl.n	8780596a <vsscanf+0x52>
87805960:	f810 2f01 	ldrb.w	r2, [r0, #1]!
87805964:	5ca2      	ldrb	r2, [r4, r2]
87805966:	0692      	lsls	r2, r2, #26
87805968:	d4fa      	bmi.n	87805960 <vsscanf+0x48>
8780596a:	2b00      	cmp	r3, #0
8780596c:	bf18      	it	ne
8780596e:	2b25      	cmpne	r3, #37	; 0x25
87805970:	d006      	beq.n	87805980 <vsscanf+0x68>
87805972:	7801      	ldrb	r1, [r0, #0]
87805974:	428b      	cmp	r3, r1
87805976:	d1e6      	bne.n	87805946 <vsscanf+0x2e>
87805978:	786b      	ldrb	r3, [r5, #1]
8780597a:	3001      	adds	r0, #1
8780597c:	3501      	adds	r5, #1
8780597e:	e7d8      	b.n	87805932 <vsscanf+0x1a>
87805980:	2b00      	cmp	r3, #0
87805982:	d0e0      	beq.n	87805946 <vsscanf+0x2e>
87805984:	786b      	ldrb	r3, [r5, #1]
87805986:	3501      	adds	r5, #1
87805988:	2b2a      	cmp	r3, #42	; 0x2a
8780598a:	f000 80f1 	beq.w	87805b70 <vsscanf+0x258>
8780598e:	5ce2      	ldrb	r2, [r4, r3]
87805990:	4619      	mov	r1, r3
87805992:	0752      	lsls	r2, r2, #29
87805994:	bf5c      	itt	pl
87805996:	4619      	movpl	r1, r3
87805998:	f04f 33ff 	movpl.w	r3, #4294967295	; 0xffffffff
8780599c:	d50a      	bpl.n	878059b4 <vsscanf+0x9c>
8780599e:	2300      	movs	r3, #0
878059a0:	00da      	lsls	r2, r3, #3
878059a2:	eb02 0343 	add.w	r3, r2, r3, lsl #1
878059a6:	440b      	add	r3, r1
878059a8:	f815 1f01 	ldrb.w	r1, [r5, #1]!
878059ac:	3b30      	subs	r3, #48	; 0x30
878059ae:	5c62      	ldrb	r2, [r4, r1]
878059b0:	0752      	lsls	r2, r2, #29
878059b2:	d4f5      	bmi.n	878059a0 <vsscanf+0x88>
878059b4:	f001 02df 	and.w	r2, r1, #223	; 0xdf
878059b8:	46a9      	mov	r9, r5
878059ba:	2a5a      	cmp	r2, #90	; 0x5a
878059bc:	bf18      	it	ne
878059be:	2a4c      	cmpne	r2, #76	; 0x4c
878059c0:	f04f 3cff 	mov.w	ip, #4294967295	; 0xffffffff
878059c4:	bf0c      	ite	eq
878059c6:	2201      	moveq	r2, #1
878059c8:	2200      	movne	r2, #0
878059ca:	2968      	cmp	r1, #104	; 0x68
878059cc:	bf08      	it	eq
878059ce:	f042 0201 	orreq.w	r2, r2, #1
878059d2:	2a00      	cmp	r2, #0
878059d4:	f040 80b8 	bne.w	87805b48 <vsscanf+0x230>
878059d8:	2900      	cmp	r1, #0
878059da:	d0b4      	beq.n	87805946 <vsscanf+0x2e>
878059dc:	f890 a000 	ldrb.w	sl, [r0]
878059e0:	f1ba 0f00 	cmp.w	sl, #0
878059e4:	d0af      	beq.n	87805946 <vsscanf+0x2e>
878059e6:	3925      	subs	r1, #37	; 0x25
878059e8:	f109 0501 	add.w	r5, r9, #1
878059ec:	2953      	cmp	r1, #83	; 0x53
878059ee:	d8aa      	bhi.n	87805946 <vsscanf+0x2e>
878059f0:	a201      	add	r2, pc, #4	; (adr r2, 878059f8 <vsscanf+0xe0>)
878059f2:	f852 f021 	ldr.w	pc, [r2, r1, lsl #2]
878059f6:	bf00      	nop
878059f8:	87805c75 			; <UNDEFINED> instruction: 0x87805c75
878059fc:	87805947 	strhi	r5, [r0, r7, asr #18]
87805a00:	87805947 	strhi	r5, [r0, r7, asr #18]
87805a04:	87805947 	strhi	r5, [r0, r7, asr #18]
87805a08:	87805947 	strhi	r5, [r0, r7, asr #18]
87805a0c:	87805947 	strhi	r5, [r0, r7, asr #18]
87805a10:	87805947 	strhi	r5, [r0, r7, asr #18]
87805a14:	87805947 	strhi	r5, [r0, r7, asr #18]
87805a18:	87805947 	strhi	r5, [r0, r7, asr #18]
87805a1c:	87805947 	strhi	r5, [r0, r7, asr #18]
87805a20:	87805947 	strhi	r5, [r0, r7, asr #18]
87805a24:	87805947 	strhi	r5, [r0, r7, asr #18]
87805a28:	87805947 	strhi	r5, [r0, r7, asr #18]
87805a2c:	87805947 	strhi	r5, [r0, r7, asr #18]
87805a30:	87805947 	strhi	r5, [r0, r7, asr #18]
87805a34:	87805947 	strhi	r5, [r0, r7, asr #18]
87805a38:	87805947 	strhi	r5, [r0, r7, asr #18]
87805a3c:	87805947 	strhi	r5, [r0, r7, asr #18]
87805a40:	87805947 	strhi	r5, [r0, r7, asr #18]
87805a44:	87805947 	strhi	r5, [r0, r7, asr #18]
87805a48:	87805947 	strhi	r5, [r0, r7, asr #18]
87805a4c:	87805947 	strhi	r5, [r0, r7, asr #18]
87805a50:	87805947 	strhi	r5, [r0, r7, asr #18]
87805a54:	87805947 	strhi	r5, [r0, r7, asr #18]
87805a58:	87805947 	strhi	r5, [r0, r7, asr #18]
87805a5c:	87805947 	strhi	r5, [r0, r7, asr #18]
87805a60:	87805947 	strhi	r5, [r0, r7, asr #18]
87805a64:	87805947 	strhi	r5, [r0, r7, asr #18]
87805a68:	87805947 	strhi	r5, [r0, r7, asr #18]
87805a6c:	87805947 	strhi	r5, [r0, r7, asr #18]
87805a70:	87805947 	strhi	r5, [r0, r7, asr #18]
87805a74:	87805947 	strhi	r5, [r0, r7, asr #18]
87805a78:	87805947 	strhi	r5, [r0, r7, asr #18]
87805a7c:	87805947 	strhi	r5, [r0, r7, asr #18]
87805a80:	87805947 	strhi	r5, [r0, r7, asr #18]
87805a84:	87805947 	strhi	r5, [r0, r7, asr #18]
87805a88:	87805947 	strhi	r5, [r0, r7, asr #18]
87805a8c:	87805947 	strhi	r5, [r0, r7, asr #18]
87805a90:	87805947 	strhi	r5, [r0, r7, asr #18]
87805a94:	87805947 	strhi	r5, [r0, r7, asr #18]
87805a98:	87805947 	strhi	r5, [r0, r7, asr #18]
87805a9c:	87805947 	strhi	r5, [r0, r7, asr #18]
87805aa0:	87805947 	strhi	r5, [r0, r7, asr #18]
87805aa4:	87805947 	strhi	r5, [r0, r7, asr #18]
87805aa8:	87805947 	strhi	r5, [r0, r7, asr #18]
87805aac:	87805947 	strhi	r5, [r0, r7, asr #18]
87805ab0:	87805947 	strhi	r5, [r0, r7, asr #18]
87805ab4:	87805947 	strhi	r5, [r0, r7, asr #18]
87805ab8:	87805947 	strhi	r5, [r0, r7, asr #18]
87805abc:	87805947 	strhi	r5, [r0, r7, asr #18]
87805ac0:	87805947 	strhi	r5, [r0, r7, asr #18]
87805ac4:	87805c85 	strhi	r5, [r0, r5, lsl #25]
87805ac8:	87805947 	strhi	r5, [r0, r7, asr #18]
87805acc:	87805947 	strhi	r5, [r0, r7, asr #18]
87805ad0:	87805947 	strhi	r5, [r0, r7, asr #18]
87805ad4:	87805947 	strhi	r5, [r0, r7, asr #18]
87805ad8:	87805947 	strhi	r5, [r0, r7, asr #18]
87805adc:	87805947 	strhi	r5, [r0, r7, asr #18]
87805ae0:	87805947 	strhi	r5, [r0, r7, asr #18]
87805ae4:	87805947 	strhi	r5, [r0, r7, asr #18]
87805ae8:	87805947 	strhi	r5, [r0, r7, asr #18]
87805aec:	87805947 	strhi	r5, [r0, r7, asr #18]
87805af0:	87805d55 			; <UNDEFINED> instruction: 0x87805d55
87805af4:	87805d87 	strhi	r5, [r0, r7, lsl #27]
87805af8:	87805947 	strhi	r5, [r0, r7, asr #18]
87805afc:	87805947 	strhi	r5, [r0, r7, asr #18]
87805b00:	87805947 	strhi	r5, [r0, r7, asr #18]
87805b04:	87805947 	strhi	r5, [r0, r7, asr #18]
87805b08:	87805bab 	strhi	r5, [r0, fp, lsr #23]
87805b0c:	87805947 	strhi	r5, [r0, r7, asr #18]
87805b10:	87805947 	strhi	r5, [r0, r7, asr #18]
87805b14:	87805947 	strhi	r5, [r0, r7, asr #18]
87805b18:	87805947 	strhi	r5, [r0, r7, asr #18]
87805b1c:	87805d43 	strhi	r5, [r0, r3, asr #26]
87805b20:	87805cb9 			; <UNDEFINED> instruction: 0x87805cb9
87805b24:	87805947 	strhi	r5, [r0, r7, asr #18]
87805b28:	87805947 	strhi	r5, [r0, r7, asr #18]
87805b2c:	87805947 	strhi	r5, [r0, r7, asr #18]
87805b30:	87805ce7 	strhi	r5, [r0, r7, ror #25]
87805b34:	87805947 	strhi	r5, [r0, r7, asr #18]
87805b38:	87805c9f 			; <UNDEFINED> instruction: 0x87805c9f
87805b3c:	87805947 	strhi	r5, [r0, r7, asr #18]
87805b40:	87805947 	strhi	r5, [r0, r7, asr #18]
87805b44:	87805c85 	strhi	r5, [r0, r5, lsl #25]
87805b48:	786a      	ldrb	r2, [r5, #1]
87805b4a:	468c      	mov	ip, r1
87805b4c:	f105 0901 	add.w	r9, r5, #1
87805b50:	4291      	cmp	r1, r2
87805b52:	bf18      	it	ne
87805b54:	4611      	movne	r1, r2
87805b56:	f47f af3f 	bne.w	878059d8 <vsscanf+0xc0>
87805b5a:	2968      	cmp	r1, #104	; 0x68
87805b5c:	f000 8199 	beq.w	87805e92 <vsscanf+0x57a>
87805b60:	296c      	cmp	r1, #108	; 0x6c
87805b62:	bf02      	ittt	eq
87805b64:	f105 0902 	addeq.w	r9, r5, #2
87805b68:	78a9      	ldrbeq	r1, [r5, #2]
87805b6a:	f04f 0c4c 	moveq.w	ip, #76	; 0x4c
87805b6e:	e733      	b.n	878059d8 <vsscanf+0xc0>
87805b70:	f894 202a 	ldrb.w	r2, [r4, #42]	; 0x2a
87805b74:	0691      	lsls	r1, r2, #26
87805b76:	d40a      	bmi.n	87805b8e <vsscanf+0x276>
87805b78:	f815 3f01 	ldrb.w	r3, [r5, #1]!
87805b7c:	5ce2      	ldrb	r2, [r4, r3]
87805b7e:	1c19      	adds	r1, r3, #0
87805b80:	bf18      	it	ne
87805b82:	2101      	movne	r1, #1
87805b84:	f082 0220 	eor.w	r2, r2, #32
87805b88:	ea11 1252 	ands.w	r2, r1, r2, lsr #5
87805b8c:	d1f4      	bne.n	87805b78 <vsscanf+0x260>
87805b8e:	7802      	ldrb	r2, [r0, #0]
87805b90:	e001      	b.n	87805b96 <vsscanf+0x27e>
87805b92:	f810 2f01 	ldrb.w	r2, [r0, #1]!
87805b96:	5ca1      	ldrb	r1, [r4, r2]
87805b98:	3200      	adds	r2, #0
87805b9a:	bf18      	it	ne
87805b9c:	2201      	movne	r2, #1
87805b9e:	f081 0120 	eor.w	r1, r1, #32
87805ba2:	ea12 1251 	ands.w	r2, r2, r1, lsr #5
87805ba6:	d1f4      	bne.n	87805b92 <vsscanf+0x27a>
87805ba8:	e6c3      	b.n	87805932 <vsscanf+0x1a>
87805baa:	2200      	movs	r2, #0
87805bac:	f814 300a 	ldrb.w	r3, [r4, sl]
87805bb0:	0699      	lsls	r1, r3, #26
87805bb2:	bf44      	itt	mi
87805bb4:	2101      	movmi	r1, #1
87805bb6:	468b      	movmi	fp, r1
87805bb8:	f140 8171 	bpl.w	87805e9e <vsscanf+0x586>
87805bbc:	f810 3f01 	ldrb.w	r3, [r0, #1]!
87805bc0:	f814 a003 	ldrb.w	sl, [r4, r3]
87805bc4:	f01a 0f20 	tst.w	sl, #32
87805bc8:	d1f8      	bne.n	87805bbc <vsscanf+0x2a4>
87805bca:	2b2d      	cmp	r3, #45	; 0x2d
87805bcc:	bf14      	ite	ne
87805bce:	2100      	movne	r1, #0
87805bd0:	f001 0101 	andeq.w	r1, r1, #1
87805bd4:	469a      	mov	sl, r3
87805bd6:	b109      	cbz	r1, 87805bdc <vsscanf+0x2c4>
87805bd8:	f890 a001 	ldrb.w	sl, [r0, #1]
87805bdc:	f1ba 0f00 	cmp.w	sl, #0
87805be0:	f43f aeb1 	beq.w	87805946 <vsscanf+0x2e>
87805be4:	2a10      	cmp	r2, #16
87805be6:	f000 8120 	beq.w	87805e2a <vsscanf+0x512>
87805bea:	2a0a      	cmp	r2, #10
87805bec:	d002      	beq.n	87805bf4 <vsscanf+0x2dc>
87805bee:	2a08      	cmp	r2, #8
87805bf0:	d06b      	beq.n	87805cca <vsscanf+0x3b2>
87805bf2:	b922      	cbnz	r2, 87805bfe <vsscanf+0x2e6>
87805bf4:	f814 300a 	ldrb.w	r3, [r4, sl]
87805bf8:	0759      	lsls	r1, r3, #29
87805bfa:	f57f aea4 	bpl.w	87805946 <vsscanf+0x2e>
87805bfe:	f1ac 0c48 	sub.w	ip, ip, #72	; 0x48
87805c02:	f1bc 0f32 	cmp.w	ip, #50	; 0x32
87805c06:	f200 810a 	bhi.w	87805e1e <vsscanf+0x506>
87805c0a:	e8df f01c 	tbh	[pc, ip, lsl #1]
87805c0e:	010800ec 	smlatteq	r8, ip, r0, r0
87805c12:	01080108 	tsteq	r8, r8, lsl #2
87805c16:	010800fa 	strdeq	r0, [r8, -sl]
87805c1a:	01080108 	tsteq	r8, r8, lsl #2
87805c1e:	01080108 	tsteq	r8, r8, lsl #2
87805c22:	01080108 	tsteq	r8, r8, lsl #2
87805c26:	01080108 	tsteq	r8, r8, lsl #2
87805c2a:	01080108 	tsteq	r8, r8, lsl #2
87805c2e:	01080108 	tsteq	r8, r8, lsl #2
87805c32:	010800da 	ldrdeq	r0, [r8, -sl]
87805c36:	01080108 	tsteq	r8, r8, lsl #2
87805c3a:	01080108 	tsteq	r8, r8, lsl #2
87805c3e:	01080108 	tsteq	r8, r8, lsl #2
87805c42:	01080108 	tsteq	r8, r8, lsl #2
87805c46:	01080108 	tsteq	r8, r8, lsl #2
87805c4a:	01080108 	tsteq	r8, r8, lsl #2
87805c4e:	010800cc 	smlabteq	r8, ip, r0, r0
87805c52:	01080108 	tsteq	r8, r8, lsl #2
87805c56:	010800be 	strheq	r0, [r8, -lr]
87805c5a:	01080108 	tsteq	r8, r8, lsl #2
87805c5e:	01080108 	tsteq	r8, r8, lsl #2
87805c62:	01080108 	tsteq	r8, r8, lsl #2
87805c66:	01080108 	tsteq	r8, r8, lsl #2
87805c6a:	01080108 	tsteq	r8, r8, lsl #2
87805c6e:	01080108 	tsteq	r8, r8, lsl #2
87805c72:	f1ba00da 			; <UNDEFINED> instruction: 0xf1ba00da
87805c76:	0f25      	lsrs	r5, r4, #28
87805c78:	f47f ae65 	bne.w	87805946 <vsscanf+0x2e>
87805c7c:	3001      	adds	r0, #1
87805c7e:	f899 3001 	ldrb.w	r3, [r9, #1]
87805c82:	e656      	b.n	87805932 <vsscanf+0x1a>
87805c84:	f814 300a 	ldrb.w	r3, [r4, sl]
87805c88:	2210      	movs	r2, #16
87805c8a:	f003 0320 	and.w	r3, r3, #32
87805c8e:	f003 0bff 	and.w	fp, r3, #255	; 0xff
87805c92:	2b00      	cmp	r3, #0
87805c94:	f000 80c9 	beq.w	87805e2a <vsscanf+0x512>
87805c98:	2100      	movs	r1, #0
87805c9a:	468b      	mov	fp, r1
87805c9c:	e78e      	b.n	87805bbc <vsscanf+0x2a4>
87805c9e:	f814 300a 	ldrb.w	r3, [r4, sl]
87805ca2:	220a      	movs	r2, #10
87805ca4:	f003 0320 	and.w	r3, r3, #32
87805ca8:	f003 0bff 	and.w	fp, r3, #255	; 0xff
87805cac:	2b00      	cmp	r3, #0
87805cae:	d0a1      	beq.n	87805bf4 <vsscanf+0x2dc>
87805cb0:	2100      	movs	r1, #0
87805cb2:	220a      	movs	r2, #10
87805cb4:	468b      	mov	fp, r1
87805cb6:	e781      	b.n	87805bbc <vsscanf+0x2a4>
87805cb8:	f814 300a 	ldrb.w	r3, [r4, sl]
87805cbc:	2208      	movs	r2, #8
87805cbe:	f003 0320 	and.w	r3, r3, #32
87805cc2:	f003 0bff 	and.w	fp, r3, #255	; 0xff
87805cc6:	2b00      	cmp	r3, #0
87805cc8:	d1e6      	bne.n	87805c98 <vsscanf+0x380>
87805cca:	f814 300a 	ldrb.w	r3, [r4, sl]
87805cce:	f083 0304 	eor.w	r3, r3, #4
87805cd2:	f3c3 0380 	ubfx	r3, r3, #2, #1
87805cd6:	f1ba 0f37 	cmp.w	sl, #55	; 0x37
87805cda:	bf88      	it	hi
87805cdc:	f043 0301 	orrhi.w	r3, r3, #1
87805ce0:	2b00      	cmp	r3, #0
87805ce2:	d08c      	beq.n	87805bfe <vsscanf+0x2e6>
87805ce4:	e62f      	b.n	87805946 <vsscanf+0x2e>
87805ce6:	1c5a      	adds	r2, r3, #1
87805ce8:	f10e 0c04 	add.w	ip, lr, #4
87805cec:	f8de 1000 	ldr.w	r1, [lr]
87805cf0:	f000 80a2 	beq.w	87805e38 <vsscanf+0x520>
87805cf4:	f814 200a 	ldrb.w	r2, [r4, sl]
87805cf8:	0692      	lsls	r2, r2, #26
87805cfa:	bf58      	it	pl
87805cfc:	4652      	movpl	r2, sl
87805cfe:	d507      	bpl.n	87805d10 <vsscanf+0x3f8>
87805d00:	f810 af01 	ldrb.w	sl, [r0, #1]!
87805d04:	f814 200a 	ldrb.w	r2, [r4, sl]
87805d08:	0692      	lsls	r2, r2, #26
87805d0a:	d4f9      	bmi.n	87805d00 <vsscanf+0x3e8>
87805d0c:	4652      	mov	r2, sl
87805d0e:	b18a      	cbz	r2, 87805d34 <vsscanf+0x41c>
87805d10:	b183      	cbz	r3, 87805d34 <vsscanf+0x41c>
87805d12:	f100 0e01 	add.w	lr, r0, #1
87805d16:	e006      	b.n	87805d26 <vsscanf+0x40e>
87805d18:	f814 a002 	ldrb.w	sl, [r4, r2]
87805d1c:	f01a 0f20 	tst.w	sl, #32
87805d20:	d108      	bne.n	87805d34 <vsscanf+0x41c>
87805d22:	3b01      	subs	r3, #1
87805d24:	d006      	beq.n	87805d34 <vsscanf+0x41c>
87805d26:	f801 2b01 	strb.w	r2, [r1], #1
87805d2a:	4670      	mov	r0, lr
87805d2c:	f81e 2b01 	ldrb.w	r2, [lr], #1
87805d30:	2a00      	cmp	r2, #0
87805d32:	d1f1      	bne.n	87805d18 <vsscanf+0x400>
87805d34:	2300      	movs	r3, #0
87805d36:	3601      	adds	r6, #1
87805d38:	700b      	strb	r3, [r1, #0]
87805d3a:	46e6      	mov	lr, ip
87805d3c:	f899 3001 	ldrb.w	r3, [r9, #1]
87805d40:	e5f7      	b.n	87805932 <vsscanf+0x1a>
87805d42:	f8de 3000 	ldr.w	r3, [lr]
87805d46:	1bc2      	subs	r2, r0, r7
87805d48:	f10e 0e04 	add.w	lr, lr, #4
87805d4c:	601a      	str	r2, [r3, #0]
87805d4e:	f899 3001 	ldrb.w	r3, [r9, #1]
87805d52:	e5ee      	b.n	87805932 <vsscanf+0x1a>
87805d54:	f8de 1000 	ldr.w	r1, [lr]
87805d58:	1c5a      	adds	r2, r3, #1
87805d5a:	bf08      	it	eq
87805d5c:	2301      	moveq	r3, #1
87805d5e:	1c42      	adds	r2, r0, #1
87805d60:	f10e 0e04 	add.w	lr, lr, #4
87805d64:	f101 3cff 	add.w	ip, r1, #4294967295	; 0xffffffff
87805d68:	e003      	b.n	87805d72 <vsscanf+0x45a>
87805d6a:	f812 1b01 	ldrb.w	r1, [r2], #1
87805d6e:	468a      	mov	sl, r1
87805d70:	b129      	cbz	r1, 87805d7e <vsscanf+0x466>
87805d72:	3b01      	subs	r3, #1
87805d74:	f80c af01 	strb.w	sl, [ip, #1]!
87805d78:	2b00      	cmp	r3, #0
87805d7a:	4610      	mov	r0, r2
87805d7c:	dcf5      	bgt.n	87805d6a <vsscanf+0x452>
87805d7e:	3601      	adds	r6, #1
87805d80:	f899 3001 	ldrb.w	r3, [r9, #1]
87805d84:	e5d5      	b.n	87805932 <vsscanf+0x1a>
87805d86:	220a      	movs	r2, #10
87805d88:	e710      	b.n	87805bac <vsscanf+0x294>
87805d8a:	f8de a000 	ldr.w	sl, [lr]
87805d8e:	f1bb 0f00 	cmp.w	fp, #0
87805d92:	d018      	beq.n	87805dc6 <vsscanf+0x4ae>
87805d94:	f10e 0b04 	add.w	fp, lr, #4
87805d98:	a901      	add	r1, sp, #4
87805d9a:	f7ff f9ad 	bl	878050f8 <simple_strtol>
87805d9e:	46de      	mov	lr, fp
87805da0:	f8ca 0000 	str.w	r0, [sl]
87805da4:	e017      	b.n	87805dd6 <vsscanf+0x4be>
87805da6:	f8de a000 	ldr.w	sl, [lr]
87805daa:	f1bb 0f00 	cmp.w	fp, #0
87805dae:	d05c      	beq.n	87805e6a <vsscanf+0x552>
87805db0:	f10e 0b04 	add.w	fp, lr, #4
87805db4:	a901      	add	r1, sp, #4
87805db6:	f7ff f99f 	bl	878050f8 <simple_strtol>
87805dba:	46de      	mov	lr, fp
87805dbc:	f8aa 0000 	strh.w	r0, [sl]
87805dc0:	e009      	b.n	87805dd6 <vsscanf+0x4be>
87805dc2:	f8de a000 	ldr.w	sl, [lr]
87805dc6:	f10e 0b04 	add.w	fp, lr, #4
87805dca:	a901      	add	r1, sp, #4
87805dcc:	f7ff f90e 	bl	87804fec <simple_strtoul>
87805dd0:	46de      	mov	lr, fp
87805dd2:	f8ca 0000 	str.w	r0, [sl]
87805dd6:	9801      	ldr	r0, [sp, #4]
87805dd8:	3601      	adds	r6, #1
87805dda:	2800      	cmp	r0, #0
87805ddc:	f43f adb3 	beq.w	87805946 <vsscanf+0x2e>
87805de0:	f899 3001 	ldrb.w	r3, [r9, #1]
87805de4:	e5a5      	b.n	87805932 <vsscanf+0x1a>
87805de6:	f8de a000 	ldr.w	sl, [lr]
87805dea:	f1bb 0f00 	cmp.w	fp, #0
87805dee:	d033      	beq.n	87805e58 <vsscanf+0x540>
87805df0:	f10e 0b04 	add.w	fp, lr, #4
87805df4:	a901      	add	r1, sp, #4
87805df6:	f7ff f97f 	bl	878050f8 <simple_strtol>
87805dfa:	46de      	mov	lr, fp
87805dfc:	f88a 0000 	strb.w	r0, [sl]
87805e00:	e7e9      	b.n	87805dd6 <vsscanf+0x4be>
87805e02:	f8de a000 	ldr.w	sl, [lr]
87805e06:	f1bb 0f00 	cmp.w	fp, #0
87805e0a:	d01c      	beq.n	87805e46 <vsscanf+0x52e>
87805e0c:	f10e 0b04 	add.w	fp, lr, #4
87805e10:	a901      	add	r1, sp, #4
87805e12:	f7ff fa23 	bl	8780525c <simple_strtoll>
87805e16:	46de      	mov	lr, fp
87805e18:	e9ca 0100 	strd	r0, r1, [sl]
87805e1c:	e7db      	b.n	87805dd6 <vsscanf+0x4be>
87805e1e:	f1bb 0f00 	cmp.w	fp, #0
87805e22:	d02b      	beq.n	87805e7c <vsscanf+0x564>
87805e24:	f8de a000 	ldr.w	sl, [lr]
87805e28:	e7b4      	b.n	87805d94 <vsscanf+0x47c>
87805e2a:	f814 300a 	ldrb.w	r3, [r4, sl]
87805e2e:	f013 0f44 	tst.w	r3, #68	; 0x44
87805e32:	f47f aee4 	bne.w	87805bfe <vsscanf+0x2e6>
87805e36:	e586      	b.n	87805946 <vsscanf+0x2e>
87805e38:	f814 300a 	ldrb.w	r3, [r4, sl]
87805e3c:	069b      	lsls	r3, r3, #26
87805e3e:	d535      	bpl.n	87805eac <vsscanf+0x594>
87805e40:	f06f 4300 	mvn.w	r3, #2147483648	; 0x80000000
87805e44:	e75c      	b.n	87805d00 <vsscanf+0x3e8>
87805e46:	f10e 0b04 	add.w	fp, lr, #4
87805e4a:	a901      	add	r1, sp, #4
87805e4c:	f7ff f962 	bl	87805114 <simple_strtoull>
87805e50:	46de      	mov	lr, fp
87805e52:	e9ca 0100 	strd	r0, r1, [sl]
87805e56:	e7be      	b.n	87805dd6 <vsscanf+0x4be>
87805e58:	f10e 0b04 	add.w	fp, lr, #4
87805e5c:	a901      	add	r1, sp, #4
87805e5e:	f7ff f8c5 	bl	87804fec <simple_strtoul>
87805e62:	46de      	mov	lr, fp
87805e64:	f88a 0000 	strb.w	r0, [sl]
87805e68:	e7b5      	b.n	87805dd6 <vsscanf+0x4be>
87805e6a:	f10e 0b04 	add.w	fp, lr, #4
87805e6e:	a901      	add	r1, sp, #4
87805e70:	f7ff f8bc 	bl	87804fec <simple_strtoul>
87805e74:	46de      	mov	lr, fp
87805e76:	f8aa 0000 	strh.w	r0, [sl]
87805e7a:	e7ac      	b.n	87805dd6 <vsscanf+0x4be>
87805e7c:	f8de a000 	ldr.w	sl, [lr]
87805e80:	f10e 0b04 	add.w	fp, lr, #4
87805e84:	a901      	add	r1, sp, #4
87805e86:	f7ff f8b1 	bl	87804fec <simple_strtoul>
87805e8a:	46de      	mov	lr, fp
87805e8c:	f8ca 0000 	str.w	r0, [sl]
87805e90:	e7a1      	b.n	87805dd6 <vsscanf+0x4be>
87805e92:	f105 0902 	add.w	r9, r5, #2
87805e96:	78a9      	ldrb	r1, [r5, #2]
87805e98:	f04f 0c48 	mov.w	ip, #72	; 0x48
87805e9c:	e59c      	b.n	878059d8 <vsscanf+0xc0>
87805e9e:	f1ba 0f2d 	cmp.w	sl, #45	; 0x2d
87805ea2:	f04f 0b01 	mov.w	fp, #1
87805ea6:	f43f ae97 	beq.w	87805bd8 <vsscanf+0x2c0>
87805eaa:	e69e      	b.n	87805bea <vsscanf+0x2d2>
87805eac:	4652      	mov	r2, sl
87805eae:	f06f 4300 	mvn.w	r3, #2147483648	; 0x80000000
87805eb2:	e72e      	b.n	87805d12 <vsscanf+0x3fa>

87805eb4 <sscanf>:
87805eb4:	b40e      	push	{r1, r2, r3}
87805eb6:	b500      	push	{lr}
87805eb8:	aa02      	add	r2, sp, #8
87805eba:	9901      	ldr	r1, [sp, #4]
87805ebc:	f7ff fd2c 	bl	87805918 <vsscanf>
87805ec0:	f85d eb04 	ldr.w	lr, [sp], #4
87805ec4:	b003      	add	sp, #12
87805ec6:	4770      	bx	lr

87805ec8 <__aeabi_uidiv>:
87805ec8:	1e4a      	subs	r2, r1, #1
87805eca:	bf08      	it	eq
87805ecc:	4770      	bxeq	lr
87805ece:	f0c0 8124 	bcc.w	8780611a <__aeabi_uidiv+0x252>
87805ed2:	4288      	cmp	r0, r1
87805ed4:	f240 8116 	bls.w	87806104 <__aeabi_uidiv+0x23c>
87805ed8:	4211      	tst	r1, r2
87805eda:	f000 8117 	beq.w	8780610c <__aeabi_uidiv+0x244>
87805ede:	fab0 f380 	clz	r3, r0
87805ee2:	fab1 f281 	clz	r2, r1
87805ee6:	eba2 0303 	sub.w	r3, r2, r3
87805eea:	f1c3 031f 	rsb	r3, r3, #31
87805eee:	a204      	add	r2, pc, #16	; (adr r2, 87805f00 <__aeabi_uidiv+0x38>)
87805ef0:	eb02 1303 	add.w	r3, r2, r3, lsl #4
87805ef4:	f04f 0200 	mov.w	r2, #0
87805ef8:	469f      	mov	pc, r3
87805efa:	bf00      	nop
87805efc:	f3af 8000 	nop.w
87805f00:	ebb0 7fc1 	cmp.w	r0, r1, lsl #31
87805f04:	bf00      	nop
87805f06:	eb42 0202 	adc.w	r2, r2, r2
87805f0a:	bf28      	it	cs
87805f0c:	eba0 70c1 	subcs.w	r0, r0, r1, lsl #31
87805f10:	ebb0 7f81 	cmp.w	r0, r1, lsl #30
87805f14:	bf00      	nop
87805f16:	eb42 0202 	adc.w	r2, r2, r2
87805f1a:	bf28      	it	cs
87805f1c:	eba0 7081 	subcs.w	r0, r0, r1, lsl #30
87805f20:	ebb0 7f41 	cmp.w	r0, r1, lsl #29
87805f24:	bf00      	nop
87805f26:	eb42 0202 	adc.w	r2, r2, r2
87805f2a:	bf28      	it	cs
87805f2c:	eba0 7041 	subcs.w	r0, r0, r1, lsl #29
87805f30:	ebb0 7f01 	cmp.w	r0, r1, lsl #28
87805f34:	bf00      	nop
87805f36:	eb42 0202 	adc.w	r2, r2, r2
87805f3a:	bf28      	it	cs
87805f3c:	eba0 7001 	subcs.w	r0, r0, r1, lsl #28
87805f40:	ebb0 6fc1 	cmp.w	r0, r1, lsl #27
87805f44:	bf00      	nop
87805f46:	eb42 0202 	adc.w	r2, r2, r2
87805f4a:	bf28      	it	cs
87805f4c:	eba0 60c1 	subcs.w	r0, r0, r1, lsl #27
87805f50:	ebb0 6f81 	cmp.w	r0, r1, lsl #26
87805f54:	bf00      	nop
87805f56:	eb42 0202 	adc.w	r2, r2, r2
87805f5a:	bf28      	it	cs
87805f5c:	eba0 6081 	subcs.w	r0, r0, r1, lsl #26
87805f60:	ebb0 6f41 	cmp.w	r0, r1, lsl #25
87805f64:	bf00      	nop
87805f66:	eb42 0202 	adc.w	r2, r2, r2
87805f6a:	bf28      	it	cs
87805f6c:	eba0 6041 	subcs.w	r0, r0, r1, lsl #25
87805f70:	ebb0 6f01 	cmp.w	r0, r1, lsl #24
87805f74:	bf00      	nop
87805f76:	eb42 0202 	adc.w	r2, r2, r2
87805f7a:	bf28      	it	cs
87805f7c:	eba0 6001 	subcs.w	r0, r0, r1, lsl #24
87805f80:	ebb0 5fc1 	cmp.w	r0, r1, lsl #23
87805f84:	bf00      	nop
87805f86:	eb42 0202 	adc.w	r2, r2, r2
87805f8a:	bf28      	it	cs
87805f8c:	eba0 50c1 	subcs.w	r0, r0, r1, lsl #23
87805f90:	ebb0 5f81 	cmp.w	r0, r1, lsl #22
87805f94:	bf00      	nop
87805f96:	eb42 0202 	adc.w	r2, r2, r2
87805f9a:	bf28      	it	cs
87805f9c:	eba0 5081 	subcs.w	r0, r0, r1, lsl #22
87805fa0:	ebb0 5f41 	cmp.w	r0, r1, lsl #21
87805fa4:	bf00      	nop
87805fa6:	eb42 0202 	adc.w	r2, r2, r2
87805faa:	bf28      	it	cs
87805fac:	eba0 5041 	subcs.w	r0, r0, r1, lsl #21
87805fb0:	ebb0 5f01 	cmp.w	r0, r1, lsl #20
87805fb4:	bf00      	nop
87805fb6:	eb42 0202 	adc.w	r2, r2, r2
87805fba:	bf28      	it	cs
87805fbc:	eba0 5001 	subcs.w	r0, r0, r1, lsl #20
87805fc0:	ebb0 4fc1 	cmp.w	r0, r1, lsl #19
87805fc4:	bf00      	nop
87805fc6:	eb42 0202 	adc.w	r2, r2, r2
87805fca:	bf28      	it	cs
87805fcc:	eba0 40c1 	subcs.w	r0, r0, r1, lsl #19
87805fd0:	ebb0 4f81 	cmp.w	r0, r1, lsl #18
87805fd4:	bf00      	nop
87805fd6:	eb42 0202 	adc.w	r2, r2, r2
87805fda:	bf28      	it	cs
87805fdc:	eba0 4081 	subcs.w	r0, r0, r1, lsl #18
87805fe0:	ebb0 4f41 	cmp.w	r0, r1, lsl #17
87805fe4:	bf00      	nop
87805fe6:	eb42 0202 	adc.w	r2, r2, r2
87805fea:	bf28      	it	cs
87805fec:	eba0 4041 	subcs.w	r0, r0, r1, lsl #17
87805ff0:	ebb0 4f01 	cmp.w	r0, r1, lsl #16
87805ff4:	bf00      	nop
87805ff6:	eb42 0202 	adc.w	r2, r2, r2
87805ffa:	bf28      	it	cs
87805ffc:	eba0 4001 	subcs.w	r0, r0, r1, lsl #16
87806000:	ebb0 3fc1 	cmp.w	r0, r1, lsl #15
87806004:	bf00      	nop
87806006:	eb42 0202 	adc.w	r2, r2, r2
8780600a:	bf28      	it	cs
8780600c:	eba0 30c1 	subcs.w	r0, r0, r1, lsl #15
87806010:	ebb0 3f81 	cmp.w	r0, r1, lsl #14
87806014:	bf00      	nop
87806016:	eb42 0202 	adc.w	r2, r2, r2
8780601a:	bf28      	it	cs
8780601c:	eba0 3081 	subcs.w	r0, r0, r1, lsl #14
87806020:	ebb0 3f41 	cmp.w	r0, r1, lsl #13
87806024:	bf00      	nop
87806026:	eb42 0202 	adc.w	r2, r2, r2
8780602a:	bf28      	it	cs
8780602c:	eba0 3041 	subcs.w	r0, r0, r1, lsl #13
87806030:	ebb0 3f01 	cmp.w	r0, r1, lsl #12
87806034:	bf00      	nop
87806036:	eb42 0202 	adc.w	r2, r2, r2
8780603a:	bf28      	it	cs
8780603c:	eba0 3001 	subcs.w	r0, r0, r1, lsl #12
87806040:	ebb0 2fc1 	cmp.w	r0, r1, lsl #11
87806044:	bf00      	nop
87806046:	eb42 0202 	adc.w	r2, r2, r2
8780604a:	bf28      	it	cs
8780604c:	eba0 20c1 	subcs.w	r0, r0, r1, lsl #11
87806050:	ebb0 2f81 	cmp.w	r0, r1, lsl #10
87806054:	bf00      	nop
87806056:	eb42 0202 	adc.w	r2, r2, r2
8780605a:	bf28      	it	cs
8780605c:	eba0 2081 	subcs.w	r0, r0, r1, lsl #10
87806060:	ebb0 2f41 	cmp.w	r0, r1, lsl #9
87806064:	bf00      	nop
87806066:	eb42 0202 	adc.w	r2, r2, r2
8780606a:	bf28      	it	cs
8780606c:	eba0 2041 	subcs.w	r0, r0, r1, lsl #9
87806070:	ebb0 2f01 	cmp.w	r0, r1, lsl #8
87806074:	bf00      	nop
87806076:	eb42 0202 	adc.w	r2, r2, r2
8780607a:	bf28      	it	cs
8780607c:	eba0 2001 	subcs.w	r0, r0, r1, lsl #8
87806080:	ebb0 1fc1 	cmp.w	r0, r1, lsl #7
87806084:	bf00      	nop
87806086:	eb42 0202 	adc.w	r2, r2, r2
8780608a:	bf28      	it	cs
8780608c:	eba0 10c1 	subcs.w	r0, r0, r1, lsl #7
87806090:	ebb0 1f81 	cmp.w	r0, r1, lsl #6
87806094:	bf00      	nop
87806096:	eb42 0202 	adc.w	r2, r2, r2
8780609a:	bf28      	it	cs
8780609c:	eba0 1081 	subcs.w	r0, r0, r1, lsl #6
878060a0:	ebb0 1f41 	cmp.w	r0, r1, lsl #5
878060a4:	bf00      	nop
878060a6:	eb42 0202 	adc.w	r2, r2, r2
878060aa:	bf28      	it	cs
878060ac:	eba0 1041 	subcs.w	r0, r0, r1, lsl #5
878060b0:	ebb0 1f01 	cmp.w	r0, r1, lsl #4
878060b4:	bf00      	nop
878060b6:	eb42 0202 	adc.w	r2, r2, r2
878060ba:	bf28      	it	cs
878060bc:	eba0 1001 	subcs.w	r0, r0, r1, lsl #4
878060c0:	ebb0 0fc1 	cmp.w	r0, r1, lsl #3
878060c4:	bf00      	nop
878060c6:	eb42 0202 	adc.w	r2, r2, r2
878060ca:	bf28      	it	cs
878060cc:	eba0 00c1 	subcs.w	r0, r0, r1, lsl #3
878060d0:	ebb0 0f81 	cmp.w	r0, r1, lsl #2
878060d4:	bf00      	nop
878060d6:	eb42 0202 	adc.w	r2, r2, r2
878060da:	bf28      	it	cs
878060dc:	eba0 0081 	subcs.w	r0, r0, r1, lsl #2
878060e0:	ebb0 0f41 	cmp.w	r0, r1, lsl #1
878060e4:	bf00      	nop
878060e6:	eb42 0202 	adc.w	r2, r2, r2
878060ea:	bf28      	it	cs
878060ec:	eba0 0041 	subcs.w	r0, r0, r1, lsl #1
878060f0:	ebb0 0f01 	cmp.w	r0, r1
878060f4:	bf00      	nop
878060f6:	eb42 0202 	adc.w	r2, r2, r2
878060fa:	bf28      	it	cs
878060fc:	eba0 0001 	subcs.w	r0, r0, r1
87806100:	4610      	mov	r0, r2
87806102:	4770      	bx	lr
87806104:	bf0c      	ite	eq
87806106:	2001      	moveq	r0, #1
87806108:	2000      	movne	r0, #0
8780610a:	4770      	bx	lr
8780610c:	fab1 f281 	clz	r2, r1
87806110:	f1c2 021f 	rsb	r2, r2, #31
87806114:	fa20 f002 	lsr.w	r0, r0, r2
87806118:	4770      	bx	lr
8780611a:	b108      	cbz	r0, 87806120 <__aeabi_uidiv+0x258>
8780611c:	f04f 30ff 	mov.w	r0, #4294967295	; 0xffffffff
87806120:	f000 b826 	b.w	87806170 <__aeabi_idiv0>

87806124 <__aeabi_uidivmod>:
87806124:	2900      	cmp	r1, #0
87806126:	d0f8      	beq.n	8780611a <__aeabi_uidiv+0x252>
87806128:	e92d 4003 	stmdb	sp!, {r0, r1, lr}
8780612c:	f7ff fecc 	bl	87805ec8 <__aeabi_uidiv>
87806130:	e8bd 4006 	ldmia.w	sp!, {r1, r2, lr}
87806134:	fb02 f300 	mul.w	r3, r2, r0
87806138:	eba1 0103 	sub.w	r1, r1, r3
8780613c:	4770      	bx	lr
8780613e:	bf00      	nop

87806140 <__aeabi_uldivmod>:
87806140:	b953      	cbnz	r3, 87806158 <__aeabi_uldivmod+0x18>
87806142:	b94a      	cbnz	r2, 87806158 <__aeabi_uldivmod+0x18>
87806144:	2900      	cmp	r1, #0
87806146:	bf08      	it	eq
87806148:	2800      	cmpeq	r0, #0
8780614a:	bf1c      	itt	ne
8780614c:	f04f 31ff 	movne.w	r1, #4294967295	; 0xffffffff
87806150:	f04f 30ff 	movne.w	r0, #4294967295	; 0xffffffff
87806154:	f000 b80c 	b.w	87806170 <__aeabi_idiv0>
87806158:	f1ad 0c08 	sub.w	ip, sp, #8
8780615c:	e96d ce04 	strd	ip, lr, [sp, #-16]!
87806160:	f000 f80c 	bl	8780617c <__udivmoddi4>
87806164:	f8dd e004 	ldr.w	lr, [sp, #4]
87806168:	e9dd 2302 	ldrd	r2, r3, [sp, #8]
8780616c:	b004      	add	sp, #16
8780616e:	4770      	bx	lr

87806170 <__aeabi_idiv0>:
87806170:	b502      	push	{r1, lr}
87806172:	f04f 0008 	mov.w	r0, #8
87806176:	f7fb ff8f 	bl	87802098 <raise>
8780617a:	bd02      	pop	{r1, pc}

8780617c <__udivmoddi4>:
8780617c:	e92d 43f0 	stmdb	sp!, {r4, r5, r6, r7, r8, r9, lr}
87806180:	460d      	mov	r5, r1
87806182:	429d      	cmp	r5, r3
87806184:	4604      	mov	r4, r0
87806186:	4610      	mov	r0, r2
87806188:	4619      	mov	r1, r3
8780618a:	bf08      	it	eq
8780618c:	4284      	cmpeq	r4, r0
8780618e:	9a07      	ldr	r2, [sp, #28]
87806190:	bf3c      	itt	cc
87806192:	2000      	movcc	r0, #0
87806194:	2100      	movcc	r1, #0
87806196:	d36a      	bcc.n	8780626e <__udivmoddi4+0xf2>
87806198:	fab1 f681 	clz	r6, r1
8780619c:	2900      	cmp	r1, #0
8780619e:	d06f      	beq.n	87806280 <__udivmoddi4+0x104>
878061a0:	fab5 f385 	clz	r3, r5
878061a4:	2d00      	cmp	r5, #0
878061a6:	d067      	beq.n	87806278 <__udivmoddi4+0xfc>
878061a8:	1af3      	subs	r3, r6, r3
878061aa:	f1a3 0c20 	sub.w	ip, r3, #32
878061ae:	fa01 f703 	lsl.w	r7, r1, r3
878061b2:	fa00 fe0c 	lsl.w	lr, r0, ip
878061b6:	f1c3 0820 	rsb	r8, r3, #32
878061ba:	fa20 f108 	lsr.w	r1, r0, r8
878061be:	fa00 f603 	lsl.w	r6, r0, r3
878061c2:	ea47 070e 	orr.w	r7, r7, lr
878061c6:	469e      	mov	lr, r3
878061c8:	430f      	orrs	r7, r1
878061ca:	42bd      	cmp	r5, r7
878061cc:	bf08      	it	eq
878061ce:	42b4      	cmpeq	r4, r6
878061d0:	bf3c      	itt	cc
878061d2:	2000      	movcc	r0, #0
878061d4:	2100      	movcc	r1, #0
878061d6:	d30c      	bcc.n	878061f2 <__udivmoddi4+0x76>
878061d8:	f04f 0901 	mov.w	r9, #1
878061dc:	1ba4      	subs	r4, r4, r6
878061de:	fa29 f808 	lsr.w	r8, r9, r8
878061e2:	fa09 f10c 	lsl.w	r1, r9, ip
878061e6:	fa09 f003 	lsl.w	r0, r9, r3
878061ea:	ea41 0108 	orr.w	r1, r1, r8
878061ee:	eb65 0507 	sbc.w	r5, r5, r7
878061f2:	2b00      	cmp	r3, #0
878061f4:	d03b      	beq.n	8780626e <__udivmoddi4+0xf2>
878061f6:	087f      	lsrs	r7, r7, #1
878061f8:	ea4f 0636 	mov.w	r6, r6, rrx
878061fc:	e009      	b.n	87806212 <__udivmoddi4+0x96>
878061fe:	1ba4      	subs	r4, r4, r6
87806200:	eb65 0507 	sbc.w	r5, r5, r7
87806204:	1924      	adds	r4, r4, r4
87806206:	416d      	adcs	r5, r5
87806208:	3401      	adds	r4, #1
8780620a:	f145 0500 	adc.w	r5, r5, #0
8780620e:	3b01      	subs	r3, #1
87806210:	d007      	beq.n	87806222 <__udivmoddi4+0xa6>
87806212:	42bd      	cmp	r5, r7
87806214:	bf08      	it	eq
87806216:	42b4      	cmpeq	r4, r6
87806218:	d2f1      	bcs.n	878061fe <__udivmoddi4+0x82>
8780621a:	1924      	adds	r4, r4, r4
8780621c:	416d      	adcs	r5, r5
8780621e:	3b01      	subs	r3, #1
87806220:	d1f7      	bne.n	87806212 <__udivmoddi4+0x96>
87806222:	f1ce 0720 	rsb	r7, lr, #32
87806226:	fa24 f60e 	lsr.w	r6, r4, lr
8780622a:	fa05 f707 	lsl.w	r7, r5, r7
8780622e:	f1ae 0320 	sub.w	r3, lr, #32
87806232:	fa25 f303 	lsr.w	r3, r5, r3
87806236:	fa25 fc0e 	lsr.w	ip, r5, lr
8780623a:	1900      	adds	r0, r0, r4
8780623c:	ea46 0607 	orr.w	r6, r6, r7
87806240:	ea46 0403 	orr.w	r4, r6, r3
87806244:	4169      	adcs	r1, r5
87806246:	4665      	mov	r5, ip
87806248:	f1ae 0c20 	sub.w	ip, lr, #32
8780624c:	fa05 f70e 	lsl.w	r7, r5, lr
87806250:	fa04 fc0c 	lsl.w	ip, r4, ip
87806254:	fa04 f60e 	lsl.w	r6, r4, lr
87806258:	f1ce 0320 	rsb	r3, lr, #32
8780625c:	fa24 f303 	lsr.w	r3, r4, r3
87806260:	ea47 070c 	orr.w	r7, r7, ip
87806264:	1b80      	subs	r0, r0, r6
87806266:	ea47 0703 	orr.w	r7, r7, r3
8780626a:	eb61 0107 	sbc.w	r1, r1, r7
8780626e:	b10a      	cbz	r2, 87806274 <__udivmoddi4+0xf8>
87806270:	e9c2 4500 	strd	r4, r5, [r2]
87806274:	e8bd 83f0 	ldmia.w	sp!, {r4, r5, r6, r7, r8, r9, pc}
87806278:	fab4 f384 	clz	r3, r4
8780627c:	3320      	adds	r3, #32
8780627e:	e793      	b.n	878061a8 <__udivmoddi4+0x2c>
87806280:	fab0 f380 	clz	r3, r0
87806284:	f103 0620 	add.w	r6, r3, #32
87806288:	fab5 f385 	clz	r3, r5
8780628c:	2d00      	cmp	r5, #0
8780628e:	d18b      	bne.n	878061a8 <__udivmoddi4+0x2c>
87806290:	e7f2      	b.n	87806278 <__udivmoddi4+0xfc>
87806292:	bf00      	nop
87806294:	0000      	movs	r0, r0
	...

87806298 <__main_from_arm>:
87806298:	e51ff004 	ldr	pc, [pc, #-4]	; 8780629c <__main_from_arm+0x4>
8780629c:	878062a1 	strhi	r6, [r0, r1, lsr #5]

Disassembly of section .text.startup:

878062a0 <main>:
878062a0:	b500      	push	{lr}
878062a2:	b083      	sub	sp, #12
878062a4:	f7fa fb30 	bl	87800908 <SystemInitIrqTable>
878062a8:	2400      	movs	r4, #0
878062aa:	f7fa fcbd 	bl	87800c28 <imx6u_clkinit>
878062ae:	f7fa fd4b 	bl	87800d48 <delay_init>
878062b2:	f7fa fca9 	bl	87800c08 <clk_enable>
878062b6:	f7fa fd15 	bl	87800ce4 <led_init>
878062ba:	f7fb fe2f 	bl	87801f1c <uart_init>
878062be:	f24c 314f 	movw	r1, #49999	; 0xc34f
878062c2:	f240 2093 	movw	r0, #659	; 0x293
878062c6:	f7fa fe97 	bl	87800ff8 <epit1_init>
878062ca:	f7fb fb53 	bl	87801974 <lcd_init>
878062ce:	f06f 407f 	mvn.w	r0, #4278190080	; 0xff000000
878062d2:	f7fb fcc3 	bl	87801c5c <lcd_clear>
878062d6:	f246 33e8 	movw	r3, #25576	; 0x63e8
878062da:	210a      	movs	r1, #10
878062dc:	2218      	movs	r2, #24
878062de:	f2c8 7380 	movt	r3, #34688	; 0x8780
878062e2:	4608      	mov	r0, r1
878062e4:	9301      	str	r3, [sp, #4]
878062e6:	9200      	str	r2, [sp, #0]
878062e8:	4613      	mov	r3, r2
878062ea:	22f0      	movs	r2, #240	; 0xf0
878062ec:	f7fb f8f8 	bl	878014e0 <lcd_show_string>
878062f0:	f246 30f8 	movw	r0, #25592	; 0x63f8
878062f4:	f2c8 7080 	movt	r0, #34688	; 0x8780
878062f8:	f7fb fe9e 	bl	87802038 <puts>
878062fc:	f246 4008 	movw	r0, #25608	; 0x6408
87806300:	f2c8 7080 	movt	r0, #34688	; 0x8780
87806304:	f7fb fe98 	bl	87802038 <puts>
87806308:	2203      	movs	r2, #3
8780630a:	f246 411c 	movw	r1, #25628	; 0x641c
8780630e:	f240 60cd 	movw	r0, #1741	; 0x6cd
87806312:	9200      	str	r2, [sp, #0]
87806314:	9401      	str	r4, [sp, #4]
87806316:	4623      	mov	r3, r4
87806318:	f2c8 7180 	movt	r1, #34688	; 0x8780
8780631c:	f2c8 7080 	movt	r0, #34688	; 0x8780
87806320:	2280      	movs	r2, #128	; 0x80
87806322:	f7fc fd3b 	bl	87802d9c <xTaskCreate>
87806326:	2801      	cmp	r0, #1
87806328:	d006      	beq.n	87806338 <main+0x98>
8780632a:	f246 4028 	movw	r0, #25640	; 0x6428
8780632e:	f2c8 7080 	movt	r0, #34688	; 0x8780
87806332:	f7fb fe81 	bl	87802038 <puts>
87806336:	e7fe      	b.n	87806336 <main+0x96>
87806338:	2202      	movs	r2, #2
8780633a:	f246 4144 	movw	r1, #25668	; 0x6444
8780633e:	f240 60b5 	movw	r0, #1717	; 0x6b5
87806342:	9200      	str	r2, [sp, #0]
87806344:	9401      	str	r4, [sp, #4]
87806346:	4623      	mov	r3, r4
87806348:	f2c8 7180 	movt	r1, #34688	; 0x8780
8780634c:	f2c8 7080 	movt	r0, #34688	; 0x8780
87806350:	2280      	movs	r2, #128	; 0x80
87806352:	f7fc fd23 	bl	87802d9c <xTaskCreate>
87806356:	2801      	cmp	r0, #1
87806358:	d006      	beq.n	87806368 <main+0xc8>
8780635a:	f246 4050 	movw	r0, #25680	; 0x6450
8780635e:	f2c8 7080 	movt	r0, #34688	; 0x8780
87806362:	f7fb fe69 	bl	87802038 <puts>
87806366:	e7fe      	b.n	87806366 <main+0xc6>
87806368:	f7fc ff8c 	bl	87803284 <vTaskStartScheduler>
8780636c:	f246 406c 	movw	r0, #25708	; 0x646c
87806370:	f2c8 7080 	movt	r0, #34688	; 0x8780
87806374:	f7fb fe60 	bl	87802038 <puts>
87806378:	f44f 60fa 	mov.w	r0, #2000	; 0x7d0
8780637c:	f7fa fd1a 	bl	87800db4 <delayms>
87806380:	e7f4      	b.n	8780636c <main+0xcc>
87806382:	bf00      	nop

Disassembly of section .text.unlikely:

87806384 <prvCopyDataFromQueue>:
87806384:	6c02      	ldr	r2, [r0, #64]	; 0x40
87806386:	b17a      	cbz	r2, 878063a8 <prvCopyDataFromQueue+0x24>
87806388:	b410      	push	{r4}
8780638a:	460c      	mov	r4, r1
8780638c:	68c3      	ldr	r3, [r0, #12]
8780638e:	6841      	ldr	r1, [r0, #4]
87806390:	4413      	add	r3, r2
87806392:	60c3      	str	r3, [r0, #12]
87806394:	428b      	cmp	r3, r1
87806396:	bf24      	itt	cs
87806398:	6803      	ldrcs	r3, [r0, #0]
8780639a:	60c3      	strcs	r3, [r0, #12]
8780639c:	68c1      	ldr	r1, [r0, #12]
8780639e:	4620      	mov	r0, r4
878063a0:	f85d 4b04 	ldr.w	r4, [sp], #4
878063a4:	f7fe bb62 	b.w	87804a6c <memcpy>
878063a8:	4770      	bx	lr
878063aa:	bf00      	nop

Disassembly of section .rodata:

878063ac <asc2_1206-0xe4>:
878063ac:	6d612069 	stclvs	0, cr2, [r1, #-420]!	; 0xfffffe5c
878063b0:	75722020 	ldrbvc	r2, [r2, #-32]!
878063b4:	6e696e6e 	cdpvs	14, 6, cr6, cr9, cr14, {3}
878063b8:	0a0d2067 	beq	87b4e55c <__bss_end+0x336178>
878063bc:	00000000 	andeq	r0, r0, r0
878063c0:	74726175 	ldrbtvc	r6, [r2], #-373	; 0x175
878063c4:	7361745f 	cmnvc	r1, #1593835520	; 0x5f000000
878063c8:	7572206b 	ldrbvc	r2, [r2, #-107]!	; 0x6b
878063cc:	6e696e6e 	cdpvs	14, 6, cr6, cr9, cr14, {3}
878063d0:	000a0d67 	andeq	r0, sl, r7, ror #26
878063d4:	5f64656c 	svcpl	0x0064656c
878063d8:	6b736174 	blvs	894de9b0 <__bss_end+0x1cc65cc>
878063dc:	6e757220 	cdpvs	2, 7, cr7, cr5, cr0, {1}
878063e0:	676e696e 	strbvs	r6, [lr, -lr, ror #18]!
878063e4:	00000a0d 	andeq	r0, r0, sp, lsl #20
878063e8:	e5b2b8e4 	ldr	fp, [r2, #2276]!	; 0x8e4
878063ec:	bfe4a38f 	svclt	0x00e4a38f
878063f0:	af81e6a1 	svcge	0x0081e6a1
878063f4:	009abcef 	addseq	fp, sl, pc, ror #25
878063f8:	74696e69 	strbtvc	r6, [r9], #-3689	; 0xe69
878063fc:	65766f20 	ldrbvs	r6, [r6, #-3872]!	; 0xf20
87806400:	0a0d2072 	beq	87b4e5d0 <__bss_end+0x3361ec>
87806404:	00000000 	andeq	r0, r0, r0
87806408:	72617473 	rsbvc	r7, r1, #1929379840	; 0x73000000
8780640c:	6f742074 	svcvs	0x00742074
87806410:	6e757220 	cdpvs	2, 7, cr7, cr5, cr0, {1}
87806414:	6f747220 	svcvs	0x00747220
87806418:	000a0d73 	andeq	r0, sl, r3, ror sp
8780641c:	5f64656c 	svcpl	0x0064656c
87806420:	6b736174 	blvs	894de9f8 <__bss_end+0x1cc6614>
87806424:	00000000 	andeq	r0, r0, r0
87806428:	5f64656c 	svcpl	0x0064656c
8780642c:	6b736174 	blvs	894dea04 <__bss_end+0x1cc6620>
87806430:	65726320 	ldrbvs	r6, [r2, #-800]!	; 0x320
87806434:	20657461 	rsbcs	r7, r5, r1, ror #8
87806438:	6f727265 	svcvs	0x00727265
8780643c:	0a0d2072 	beq	87b4e60c <__bss_end+0x336228>
87806440:	00000000 	andeq	r0, r0, r0
87806444:	74726175 	ldrbtvc	r6, [r2], #-373	; 0x175
87806448:	7361745f 	cmnvc	r1, #1593835520	; 0x5f000000
8780644c:	0000006b 	andeq	r0, r0, fp, rrx
87806450:	74726175 	ldrbtvc	r6, [r2], #-373	; 0x175
87806454:	7361745f 	cmnvc	r1, #1593835520	; 0x5f000000
87806458:	7263206b 	rsbvc	r2, r3, #107	; 0x6b
8780645c:	65746165 	ldrbvs	r6, [r4, #-357]!	; 0x165
87806460:	72726520 	rsbsvc	r6, r2, #32, 10	; 0x8000000
87806464:	0d20726f 	sfmeq	f7, 4, [r0, #-444]!	; 0xfffffe44
87806468:	0000000a 	andeq	r0, r0, sl
8780646c:	736f7472 	cmnvc	pc, #1912602624	; 0x72000000
87806470:	72726520 	rsbsvc	r6, r2, #32, 10	; 0x8000000
87806474:	0d20726f 	sfmeq	f7, 4, [r0, #-444]!	; 0xfffffe44
87806478:	0000000a 	andeq	r0, r0, sl
8780647c:	74697065 	strbtvc	r7, [r9], #-101	; 0x65
87806480:	72695f31 	rsbvc	r5, r9, #49, 30	; 0xc4
87806484:	6e616871 	mcrvs	8, 3, r6, cr1, cr1, {3}
87806488:	72656c64 	rsbvc	r6, r5, #100, 24	; 0x6400
8780648c:	00000a0d 	andeq	r0, r0, sp, lsl #20

87806490 <asc2_1206>:
	...
878064a0:	0000403f 	andeq	r4, r0, pc, lsr r0
878064a4:	00000000 	andeq	r0, r0, r0
878064a8:	00300000 	eorseq	r0, r0, r0
878064ac:	00300040 	eorseq	r0, r0, r0, asr #32
878064b0:	00000040 	andeq	r0, r0, r0, asr #32
878064b4:	c00b0009 	andgt	r0, fp, r9
878064b8:	c00b003d 	andgt	r0, fp, sp, lsr r0
878064bc:	0009003d 	andeq	r0, r9, sp, lsr r0
878064c0:	4024c018 	eormi	ip, r4, r8, lsl r0
878064c4:	4022e07f 	eormi	lr, r2, pc, ror r0
878064c8:	00008031 	andeq	r8, r0, r1, lsr r0
878064cc:	c0240018 	eorgt	r0, r4, r8, lsl r0
878064d0:	800d001b 	andhi	r0, sp, fp, lsl r0
878064d4:	80014032 	andhi	r4, r1, r2, lsr r0
878064d8:	401c8003 	andsmi	r8, ip, r3
878064dc:	801c4027 	andshi	r4, ip, r7, lsr #32
878064e0:	40004007 	andmi	r4, r0, r7
878064e4:	00600010 	rsbeq	r0, r0, r0, lsl r0
	...
878064f4:	801f0000 	andshi	r0, pc, r0
878064f8:	20404020 	subcs	r4, r0, r0, lsr #32
878064fc:	20400000 	subcs	r0, r0, r0
87806500:	801f4020 	andshi	r4, pc, r0, lsr #32
87806504:	00000000 	andeq	r0, r0, r0
87806508:	00060009 	andeq	r0, r6, r9
8780650c:	0006801f 	andeq	r8, r6, pc, lsl r0
87806510:	00000009 	andeq	r0, r0, r9
87806514:	00040004 	andeq	r0, r4, r4
87806518:	0004803f 	andeq	r8, r4, pc, lsr r0
8780651c:	00000004 	andeq	r0, r0, r4
87806520:	60001000 	andvs	r1, r0, r0
	...
8780652c:	00040004 	andeq	r0, r4, r4
87806530:	00040004 	andeq	r0, r4, r4
87806534:	00000004 	andeq	r0, r0, r4
87806538:	40000000 	andmi	r0, r0, r0
	...
87806544:	c0012000 	andgt	r2, r1, r0
87806548:	00380006 	eorseq	r0, r8, r6
8780654c:	00000040 	andeq	r0, r0, r0, asr #32
87806550:	4020801f 	eormi	r8, r0, pc, lsl r0
87806554:	40204020 	eormi	r4, r0, r0, lsr #32
87806558:	0000801f 	andeq	r8, r0, pc, lsl r0
8780655c:	40100000 	andsmi	r0, r0, r0
87806560:	4000c03f 	andmi	ip, r0, pc, lsr r0
87806564:	00000000 	andeq	r0, r0, r0
87806568:	4021c018 	eormi	ip, r1, r8, lsl r0
8780656c:	40244022 	eormi	r4, r4, r2, lsr #32
87806570:	00004018 	andeq	r4, r0, r8, lsl r0
87806574:	40208010 	eormi	r8, r0, r0, lsl r0
87806578:	40244024 	eormi	r4, r4, r4, lsr #32
8780657c:	0000801b 	andeq	r8, r0, fp, lsl r0
87806580:	000d0002 	andeq	r0, sp, r2
87806584:	c03f0011 	eorsgt	r0, pc, r1, lsl r0	; <UNPREDICTABLE>
87806588:	00004001 	andeq	r4, r0, r1
8780658c:	4024803c 	eormi	r8, r4, ip, lsr r0
87806590:	40244024 	eormi	r4, r4, r4, lsr #32
87806594:	00008023 	andeq	r8, r0, r3, lsr #32
87806598:	4024801f 	eormi	r8, r4, pc, lsl r0
8780659c:	40344024 	eorsmi	r4, r4, r4, lsr #32
878065a0:	00008003 	andeq	r8, r0, r3
878065a4:	00200030 	eoreq	r0, r0, r0, lsr r0
878065a8:	0038c027 	eorseq	ip, r8, r7, lsr #32
878065ac:	00000020 	andeq	r0, r0, r0, lsr #32
878065b0:	4024801b 	eormi	r8, r4, fp, lsl r0
878065b4:	40244024 	eormi	r4, r4, r4, lsr #32
878065b8:	0000801b 	andeq	r8, r0, fp, lsl r0
878065bc:	c022001c 	eorgt	r0, r2, ip, lsl r0
878065c0:	40224022 	eormi	r4, r2, r2, lsr #32
878065c4:	0000801f 	andeq	r8, r0, pc, lsl r0
878065c8:	00000000 	andeq	r0, r0, r0
878065cc:	00004008 	andeq	r4, r0, r8
	...
878065d8:	00006004 	andeq	r6, r0, r4
878065dc:	00000000 	andeq	r0, r0, r0
878065e0:	00040000 	andeq	r0, r4, r0
878065e4:	0011000a 	andseq	r0, r1, sl
878065e8:	40408020 	submi	r8, r0, r0, lsr #32
878065ec:	00090009 	andeq	r0, r9, r9
878065f0:	00090009 	andeq	r0, r9, r9
878065f4:	00000009 	andeq	r0, r0, r9
878065f8:	40400000 	submi	r0, r0, r0
878065fc:	00118020 	andseq	r8, r1, r0, lsr #32
87806600:	0004000a 	andeq	r0, r4, sl
87806604:	00200018 	eoreq	r0, r0, r8, lsl r0
87806608:	00244023 	eoreq	r4, r4, r3, lsr #32
8780660c:	00000018 	andeq	r0, r0, r8, lsl r0
87806610:	4020801f 	eormi	r8, r0, pc, lsl r0
87806614:	40294027 	eormi	r4, r9, r7, lsr #32
87806618:	0000401f 	andeq	r4, r0, pc, lsl r0
8780661c:	c0074000 	andgt	r4, r7, r0
87806620:	000f0039 	andeq	r0, pc, r9, lsr r0	; <UNPREDICTABLE>
87806624:	4000c001 	andmi	ip, r0, r1
87806628:	c03f4020 	eorsgt	r4, pc, r0, lsr #32
8780662c:	40244024 	eormi	r4, r4, r4, lsr #32
87806630:	0000801b 	andeq	r8, r0, fp, lsl r0
87806634:	4020801f 	eormi	r8, r0, pc, lsl r0
87806638:	40204020 	eormi	r4, r0, r0, lsr #32
8780663c:	00008030 	andeq	r8, r0, r0, lsr r0
87806640:	c03f4020 	eorsgt	r4, pc, r0, lsr #32
87806644:	40204020 	eormi	r4, r0, r0, lsr #32
87806648:	0000801f 	andeq	r8, r0, pc, lsl r0
8780664c:	c03f4020 	eorsgt	r4, pc, r0, lsr #32
87806650:	402e4024 	eormi	r4, lr, r4, lsr #32
87806654:	0000c030 	andeq	ip, r0, r0, lsr r0
87806658:	c03f4020 	eorsgt	r4, pc, r0, lsr #32
8780665c:	002e4024 	eoreq	r4, lr, r4, lsr #32
87806660:	00000030 	andeq	r0, r0, r0, lsr r0
87806664:	8010000f 	andshi	r0, r0, pc
87806668:	40224020 	eormi	r4, r2, r0, lsr #32
8780666c:	00028033 	andeq	r8, r2, r3, lsr r0
87806670:	c03f4020 	eorsgt	r4, pc, r0, lsr #32
87806674:	00040004 	andeq	r0, r4, r4
87806678:	4020c03f 	eormi	ip, r0, pc, lsr r0
8780667c:	40204020 	eormi	r4, r0, r0, lsr #32
87806680:	4020c03f 	eormi	ip, r0, pc, lsr r0
87806684:	00004020 	andeq	r4, r0, r0, lsr #32
87806688:	20206000 	eorcs	r6, r0, r0
8780668c:	c03f2020 	eorsgt	r2, pc, r0, lsr #32
87806690:	00200020 	eoreq	r0, r0, r0, lsr #32
87806694:	c03f4020 	eorsgt	r4, pc, r0, lsr #32
87806698:	000b4024 	andeq	r4, fp, r4, lsr #32
8780669c:	4020c030 	eormi	ip, r0, r0, lsr r0
878066a0:	c03f4020 	eorsgt	r4, pc, r0, lsr #32
878066a4:	40004020 	andmi	r4, r0, r0, lsr #32
878066a8:	c0004000 	andgt	r4, r0, r0
878066ac:	003cc03f 	eorseq	ip, ip, pc, lsr r0
878066b0:	003cc003 	eorseq	ip, ip, r3
878066b4:	0000c03f 	andeq	ip, r0, pc, lsr r0
878066b8:	c03f4020 	eorsgt	r4, pc, r0, lsr #32
878066bc:	0023400c 	eoreq	r4, r3, ip
878066c0:	0020c03f 	eoreq	ip, r0, pc, lsr r0
878066c4:	4020801f 	eormi	r8, r0, pc, lsl r0
878066c8:	40204020 	eormi	r4, r0, r0, lsr #32
878066cc:	0000801f 	andeq	r8, r0, pc, lsl r0
878066d0:	c03f4020 	eorsgt	r4, pc, r0, lsr #32
878066d4:	00244024 	eoreq	r4, r4, r4, lsr #32
878066d8:	00000018 	andeq	r0, r0, r8, lsl r0
878066dc:	4021801f 	eormi	r8, r1, pc, lsl r0
878066e0:	e0204021 	eor	r4, r0, r1, lsr #32
878066e4:	0000a01f 	andeq	sl, r0, pc, lsl r0
878066e8:	c03f4020 	eorsgt	r4, pc, r0, lsr #32
878066ec:	00264024 	eoreq	r4, r6, r4, lsr #32
878066f0:	4000c019 	andmi	ip, r0, r9, lsl r0
878066f4:	4024c018 	eormi	ip, r4, r8, lsl r0
878066f8:	40224024 	eormi	r4, r2, r4, lsr #32
878066fc:	00008031 	andeq	r8, r0, r1, lsr r0
87806700:	40200030 	eormi	r0, r0, r0, lsr r0
87806704:	4020c03f 	eormi	ip, r0, pc, lsr r0
87806708:	00000030 	andeq	r0, r0, r0, lsr r0
8780670c:	803f0020 	eorshi	r0, pc, r0, lsr #32
87806710:	40004000 	andmi	r4, r0, r0
87806714:	0020803f 	eoreq	r8, r0, pc, lsr r0
87806718:	003e0020 	eorseq	r0, lr, r0, lsr #32
8780671c:	0007c001 	andeq	ip, r7, r1
87806720:	00200038 	eoreq	r0, r0, r8, lsr r0
87806724:	c0070038 	andgt	r0, r7, r8, lsr r0
87806728:	c007003c 	andgt	r0, r7, ip, lsr r0
8780672c:	00000038 	andeq	r0, r0, r8, lsr r0
87806730:	c0394020 	eorsgt	r4, r9, r0, lsr #32
87806734:	c0390006 	eorsgt	r0, r9, r6
87806738:	00004020 	andeq	r4, r0, r0, lsr #32
8780673c:	40380020 	eorsmi	r0, r8, r0, lsr #32
87806740:	4038c007 	eorsmi	ip, r8, r7
87806744:	00000020 	andeq	r0, r0, r0, lsr #32
87806748:	c0214030 	eorgt	r4, r1, r0, lsr r0
8780674c:	40384026 	eorsmi	r4, r8, r6, lsr #32
87806750:	0000c020 	andeq	ip, r0, r0, lsr #32
87806754:	00000000 	andeq	r0, r0, r0
87806758:	2040e07f 	subcs	lr, r0, pc, ror r0
8780675c:	00002040 	andeq	r2, r0, r0, asr #32
87806760:	00700000 	rsbseq	r0, r0, r0
87806764:	8003000c 	andhi	r0, r3, ip
87806768:	00004000 	andeq	r4, r0, r0
8780676c:	20400000 	subcs	r0, r0, r0
87806770:	e07f2040 	rsbs	r2, pc, r0, asr #32
87806774:	00000000 	andeq	r0, r0, r0
87806778:	00200000 	eoreq	r0, r0, r0
8780677c:	00200040 	eoreq	r0, r0, r0, asr #32
87806780:	00000000 	andeq	r0, r0, r0
87806784:	10001000 	andne	r1, r0, r0
87806788:	10001000 	andne	r1, r0, r0
8780678c:	10001000 	andne	r1, r0, r0
87806790:	00000000 	andeq	r0, r0, r0
87806794:	00000040 	andeq	r0, r0, r0, asr #32
87806798:	00000000 	andeq	r0, r0, r0
8780679c:	80020000 	andhi	r0, r2, r0
878067a0:	40054005 	andmi	r4, r5, r5
878067a4:	4000c003 	andmi	ip, r0, r3
878067a8:	c03f0020 	eorsgt	r0, pc, r0, lsr #32
878067ac:	40044004 	andmi	r4, r4, r4
878067b0:	00008003 	andeq	r8, r0, r3
878067b4:	80030000 	andhi	r0, r3, r0
878067b8:	40044004 	andmi	r4, r4, r4
878067bc:	00004006 	andeq	r4, r0, r6
878067c0:	80030000 	andhi	r0, r3, r0
878067c4:	40244004 	eormi	r4, r4, r4
878067c8:	4000c03f 	andmi	ip, r0, pc, lsr r0
878067cc:	80030000 	andhi	r0, r3, r0
878067d0:	40054005 	andmi	r4, r5, r5
878067d4:	00004003 	andeq	r4, r0, r3
878067d8:	40040000 	andmi	r0, r4, r0
878067dc:	4024c01f 	eormi	ip, r4, pc, lsl r0
878067e0:	00204024 	eoreq	r4, r0, r4, lsr #32
878067e4:	e0020000 	and	r0, r2, r0
878067e8:	50055005 	andpl	r5, r5, r5
878067ec:	20045006 	andcs	r5, r4, r6
878067f0:	c03f4020 	eorsgt	r4, pc, r0, lsr #32
878067f4:	00044004 	andeq	r4, r4, r4
878067f8:	4000c003 	andmi	ip, r0, r3
878067fc:	40040000 	andmi	r0, r4, r0
87806800:	4000c027 	andmi	ip, r0, r7, lsr #32
87806804:	00000000 	andeq	r0, r0, r0
87806808:	10001000 	andne	r1, r0, r0
8780680c:	e0271004 	eor	r1, r7, r4
87806810:	00000000 	andeq	r0, r0, r0
87806814:	c03f4020 	eorsgt	r4, pc, r0, lsr #32
87806818:	00074001 	andeq	r4, r7, r1
8780681c:	4004c004 	andmi	ip, r4, r4
87806820:	40204020 	eormi	r4, r0, r0, lsr #32
87806824:	4000c03f 	andmi	ip, r0, pc, lsr r0
87806828:	00004000 	andeq	r4, r0, r0
8780682c:	0004c007 	andeq	ip, r4, r7
87806830:	0004c007 	andeq	ip, r4, r7
87806834:	0000c003 	andeq	ip, r0, r3
87806838:	c0074004 	andgt	r4, r7, r4
8780683c:	00044004 	andeq	r4, r4, r4
87806840:	4000c003 	andmi	ip, r0, r3
87806844:	80030000 	andhi	r0, r3, r0
87806848:	40044004 	andmi	r4, r4, r4
8780684c:	00008003 	andeq	r8, r0, r3
87806850:	f0071004 			; <UNDEFINED> instruction: 0xf0071004
87806854:	40045004 	andmi	r5, r4, r4
87806858:	00008003 	andeq	r8, r0, r3
8780685c:	80030000 	andhi	r0, r3, r0
87806860:	50044004 	andpl	r4, r4, r4
87806864:	1000f007 	andne	pc, r0, r7
87806868:	c0074004 	andgt	r4, r7, r4
8780686c:	00044002 	andeq	r4, r4, r2
87806870:	00000004 	andeq	r0, r0, r4
87806874:	40060000 	andmi	r0, r6, r0
87806878:	40054005 	andmi	r4, r5, r5
8780687c:	0000c004 	andeq	ip, r0, r4
87806880:	00040000 	andeq	r0, r4, r0
87806884:	4004801f 	andmi	r8, r4, pc, lsl r0
87806888:	00004000 	andeq	r4, r0, r0
8780688c:	80070004 	andhi	r0, r7, r4
87806890:	40044000 	andmi	r4, r4, r0
87806894:	4000c007 	andmi	ip, r0, r7
87806898:	00070004 	andeq	r0, r7, r4
8780689c:	8001c004 	andhi	ip, r1, r4
878068a0:	00040006 	andeq	r0, r4, r6
878068a4:	c0010006 	andgt	r0, r1, r6
878068a8:	c0010007 	andgt	r0, r1, r7
878068ac:	00000006 	andeq	r0, r0, r6
878068b0:	c0064004 	andgt	r4, r6, r4
878068b4:	c0060001 	andgt	r0, r6, r1
878068b8:	00004004 	andeq	r4, r0, r4
878068bc:	10071004 	andne	r1, r7, r4
878068c0:	8001e004 	andhi	lr, r1, r4
878068c4:	00040006 	andeq	r0, r4, r6
878068c8:	40040000 	andmi	r0, r4, r0
878068cc:	4006c005 	andmi	ip, r6, r5
878068d0:	00004004 	andeq	r4, r0, r4
878068d4:	00000000 	andeq	r0, r0, r0
878068d8:	e07b0004 	rsbs	r0, fp, r4
878068dc:	00002040 	andeq	r2, r0, r0, asr #32
878068e0:	00000000 	andeq	r0, r0, r0
878068e4:	f0ff0000 			; <UNDEFINED> instruction: 0xf0ff0000
878068e8:	00000000 	andeq	r0, r0, r0
878068ec:	20400000 	subcs	r0, r0, r0
878068f0:	0004e07b 	andeq	lr, r4, fp, ror r0
878068f4:	00000000 	andeq	r0, r0, r0
878068f8:	00800040 	addeq	r0, r0, r0, asr #32
878068fc:	00200040 	eoreq	r0, r0, r0, asr #32
87806900:	00400020 	subeq	r0, r0, r0, lsr #32

87806904 <asc2_2412>:
	...
87806934:	0f000000 	svceq	0x00000000
87806938:	fe0f3880 	cdp2	8, 0, cr3, cr15, cr0, {4}
8780693c:	38800f38 	stmcc	r0, {r3, r4, r5, r8, r9, sl, fp}
	...
87806950:	00010000 	andeq	r0, r1, r0
87806954:	00000600 	andeq	r0, r0, r0, lsl #12
87806958:	3800000c 	stmdacc	r0, {r2, r3}
8780695c:	00310000 	eorseq	r0, r1, r0
87806960:	00000600 	andeq	r0, r0, r0, lsl #12
87806964:	3800000c 	stmdacc	r0, {r2, r3}
87806968:	00300000 	eorseq	r0, r0, r0
	...
87806974:	67008061 	strvs	r8, [r0, -r1, rrx]
87806978:	80f907f8 	ldrshthi	r0, [r9], #120	; 0x78
8780697c:	00806100 	addeq	r6, r0, r0, lsl #2
87806980:	61008061 	tstvs	r0, r1, rrx
87806984:	80610080 	rsbhi	r0, r1, r0, lsl #1
87806988:	07f86700 	ldrbeq	r6, [r8, r0, lsl #14]!
8780698c:	610080f9 	strdvs	r8, [r0, -r9]
87806990:	00000080 	andeq	r0, r0, r0, lsl #1
87806994:	00000000 	andeq	r0, r0, r0
87806998:	c0010000 	andgt	r0, r1, r0
8780699c:	f0e003e0 			; <UNDEFINED> instruction: 0xf0e003e0
878069a0:	04083006 	streq	r3, [r8], #-6
878069a4:	ff1f0818 			; <UNDEFINED> instruction: 0xff1f0818
878069a8:	080e04fe 	stmdaeq	lr, {r1, r2, r3, r4, r5, r6, r7, sl}
878069ac:	03f08707 	mvnseq	r8, #1835008	; 0x1c0000
878069b0:	0000e081 	andeq	lr, r0, r1, lsl #1
878069b4:	00000000 	andeq	r0, r0, r0
878069b8:	0600f001 	streq	pc, [r0], -r1
878069bc:	0404000c 	streq	r0, [r4], #-12
878069c0:	700c0608 	andvc	r0, ip, r8, lsl #12
878069c4:	00c0f901 	sbceq	pc, r0, r1, lsl #18
878069c8:	3b00000e 	blcc	87806a08 <asc2_2412+0x104>
878069cc:	18ec00e0 	stmiane	ip!, {r5, r6, r7}^
878069d0:	04080807 	streq	r0, [r8], #-2055	; 0x807
878069d4:	0300180c 	movweq	r1, #2060	; 0x80c
878069d8:	000000e0 	andeq	r0, r0, r0, ror #1
878069dc:	00e00100 	rsceq	r0, r0, r0, lsl #2
878069e0:	f803f007 			; <UNDEFINED> instruction: 0xf803f007
878069e4:	081c0418 	ldmdaeq	ip, {r3, r4, sl}
878069e8:	07081704 	streq	r1, [r8, -r4, lsl #14]
878069ec:	c003d0e1 	andgt	sp, r3, r1, ror #1
878069f0:	b02300e0 	eorlt	r0, r3, r0, ror #1
878069f4:	00083c00 	andeq	r3, r8, r0, lsl #24
878069f8:	00000820 	andeq	r0, r0, r0, lsr #16
878069fc:	00000010 	andeq	r0, r0, r0, lsl r0
87806a00:	01000000 	mrseq	r0, (UNDEF: 0)
87806a04:	00310000 	eorseq	r0, r1, r0
87806a08:	00003200 	andeq	r3, r0, r0, lsl #4
87806a0c:	0000001c 	andeq	r0, r0, ip, lsl r0
	...
87806a34:	ff01007f 			; <UNDEFINED> instruction: 0xff01007f
87806a38:	f08007c0 			; <UNDEFINED> instruction: 0xf08007c0
87806a3c:	1018000c 	andsne	r0, r8, ip
87806a40:	00200400 	eoreq	r0, r0, r0, lsl #8
87806a44:	00000002 	andeq	r0, r0, r2
87806a48:	20000000 	andcs	r0, r0, r0
87806a4c:	00100200 	andseq	r0, r0, r0, lsl #4
87806a50:	18000c04 	stmdane	r0, {r2, sl, fp}
87806a54:	01f08007 	mvnseq	r8, r7
87806a58:	7f00c0ff 	svcvc	0x0000c0ff
	...
87806a70:	66000042 	strvs	r0, [r0], -r2, asr #32
87806a74:	00660000 	rsbeq	r0, r6, r0
87806a78:	00003c00 	andeq	r3, r0, r0, lsl #24
87806a7c:	ff030018 			; <UNDEFINED> instruction: 0xff030018
87806a80:	001800c0 	andseq	r0, r8, r0, asr #1
87806a84:	00003c00 	andeq	r3, r0, r0, lsl #24
87806a88:	66000066 	strvs	r0, [r0], -r6, rrx
87806a8c:	00420000 	subeq	r0, r2, r0
87806a90:	00000000 	andeq	r0, r0, r0
87806a94:	08000008 	stmdaeq	r0, {r3}
87806a98:	00080000 	andeq	r0, r8, r0
87806a9c:	00000800 	andeq	r0, r0, r0, lsl #16
87806aa0:	ff010008 			; <UNDEFINED> instruction: 0xff010008
87806aa4:	000800c0 	andeq	r0, r8, r0, asr #1
87806aa8:	00000800 	andeq	r0, r0, r0, lsl #16
87806aac:	08000008 	stmdaeq	r0, {r3}
87806ab0:	00080000 	andeq	r0, r8, r0
87806ab4:	00000000 	andeq	r0, r0, r0
87806ab8:	00000100 	andeq	r0, r0, r0, lsl #2
87806abc:	32000031 	andcc	r0, r0, #49	; 0x31
87806ac0:	001c0000 	andseq	r0, ip, r0
	...
87806adc:	08000008 	stmdaeq	r0, {r3}
87806ae0:	00080000 	andeq	r0, r8, r0
87806ae4:	00000800 	andeq	r0, r0, r0, lsl #16
87806ae8:	08000008 	stmdaeq	r0, {r3}
87806aec:	00080000 	andeq	r0, r8, r0
87806af0:	00000800 	andeq	r0, r0, r0, lsl #16
87806af4:	08000008 	stmdaeq	r0, {r3}
	...
87806b04:	38000038 	stmdacc	r0, {r3, r4, r5}
87806b08:	00380000 	eorseq	r0, r8, r0
	...
87806b24:	00000600 	andeq	r0, r0, r0, lsl #12
87806b28:	7000001c 	andvc	r0, r0, ip, lsl r0
87806b2c:	00800100 	addeq	r0, r0, r0, lsl #2
87806b30:	3800000e 	stmdacc	r0, {r1, r2, r3}
87806b34:	00c00000 	sbceq	r0, r0, r0
87806b38:	1c000007 	stcne	0, cr0, [r0], {7}
87806b3c:	00300000 	eorseq	r0, r0, r0
	...
87806b48:	ff01807f 			; <UNDEFINED> instruction: 0xff01807f
87806b4c:	708003e0 	addvc	r0, r0, r0, ror #7
87806b50:	04180006 	ldreq	r0, [r8], #-6
87806b54:	00040800 	andeq	r0, r4, r0, lsl #16
87806b58:	18000608 	stmdane	r0, {r3, r9, sl}
87806b5c:	01708003 	cmneq	r0, r3
87806b60:	7f00e0ff 	svcvc	0x0000e0ff
87806b64:	00000080 	andeq	r0, r0, r0, lsl #1
87806b68:	00000000 	andeq	r0, r0, r0
87806b6c:	00010000 	andeq	r0, r1, r0
87806b70:	08000108 	stmdaeq	r0, {r3, r8}
87806b74:	03080001 	movweq	r0, #32769	; 0x8001
87806b78:	ff07f8ff 			; <UNDEFINED> instruction: 0xff07f8ff
87806b7c:	080000f8 	stmdaeq	r0, {r3, r4, r5, r6, r7}
87806b80:	00080000 	andeq	r0, r8, r0
87806b84:	00000800 	andeq	r0, r0, r0, lsl #16
87806b88:	00000000 	andeq	r0, r0, r0
87806b8c:	01000000 	mrseq	r0, (UNDEF: 0)
87806b90:	c00238c0 	andgt	r3, r2, r0, asr #17
87806b94:	98000458 	stmdals	r0, {r3, r4, r6, sl}
87806b98:	04180104 	ldreq	r0, [r8], #-260	; 0x104
87806b9c:	04041802 	streq	r1, [r4], #-2050	; 0x802
87806ba0:	181c0618 	ldmdane	ip, {r3, r4, r9, sl}
87806ba4:	0118f803 	tsteq	r8, r3, lsl #16
87806ba8:	0000f8e0 	andeq	pc, r0, r0, ror #17
87806bac:	00000000 	andeq	r0, r0, r0
87806bb0:	01000000 	mrseq	r0, (UNDEF: 0)
87806bb4:	c003e0c0 	andgt	lr, r3, r0, asr #1
87806bb8:	080004f0 	stmdaeq	r0, {r4, r5, r6, r7, sl}
87806bbc:	04080804 	streq	r0, [r8], #-2052	; 0x804
87806bc0:	18060808 	stmdane	r6, {r3, fp}
87806bc4:	18f40308 	ldmne	r4!, {r3, r8, r9}^
87806bc8:	00f0e701 	rscseq	lr, r0, r1, lsl #14
87806bcc:	0000e001 	andeq	lr, r0, r1
	...
87806bd8:	0d000003 	stceq	0, cr0, [r0, #-12]
87806bdc:	00110000 	andseq	r0, r1, r0
87806be0:	00006100 	andeq	r6, r0, r0, lsl #2
87806be4:	01030881 	smlabbeq	r3, r1, r8, r0
87806be8:	f8ff0708 			; <UNDEFINED> instruction: 0xf8ff0708
87806bec:	00f8ff0f 	rscseq	pc, r8, pc, lsl #30
87806bf0:	01000801 	tsteq	r0, r1, lsl #16
87806bf4:	00000008 	andeq	r0, r0, r8
87806bf8:	00000000 	andeq	r0, r0, r0
87806bfc:	fc07e000 	stc2	0, cr14, [r7], {-0}
87806c00:	080806d0 	stmdaeq	r8, {r4, r6, r7, r9, sl}
87806c04:	06081006 	streq	r1, [r8], -r6
87806c08:	10060810 	andne	r0, r6, r0, lsl r8
87806c0c:	38180608 	ldmdacc	r8, {r3, r9, sl}
87806c10:	06f00f06 	ldrbteq	r0, [r0], r6, lsl #30
87806c14:	0000c007 	andeq	ip, r0, r7
	...
87806c20:	ff01803f 			; <UNDEFINED> instruction: 0xff01803f
87806c24:	308403e0 	addcc	r0, r4, r0, ror #7
87806c28:	04180802 	ldreq	r0, [r8], #-2050	; 0x802
87806c2c:	10040810 	andne	r0, r4, r0, lsl r8
87806c30:	08100408 	ldmdaeq	r0, {r3, sl}
87806c34:	03101807 	tsteq	r0, #458752	; 0x70000
87806c38:	0700f00f 	streq	pc, [r0, -pc]
87806c3c:	000000c0 	andeq	r0, r0, r0, asr #1
87806c40:	00000000 	andeq	r0, r0, r0
87806c44:	c0030000 	andgt	r0, r3, r0
87806c48:	00000700 	andeq	r0, r0, r0, lsl #14
87806c4c:	06000006 	streq	r0, [r0], -r6
87806c50:	0706f800 	streq	pc, [r6, -r0, lsl #16]
87806c54:	001806f8 			; <UNDEFINED> instruction: 0x001806f8
87806c58:	0700e006 	streq	lr, [r0, -r6]
87806c5c:	00060000 	andeq	r0, r6, r0
87806c60:	00000000 	andeq	r0, r0, r0
87806c64:	01000000 	mrseq	r0, (UNDEF: 0)
87806c68:	f703e0e1 			; <UNDEFINED> instruction: 0xf703e0e1
87806c6c:	103406f0 	ldrshtne	r0, [r4], -r0
87806c70:	04081804 	streq	r1, [r8], #-2052	; 0x804
87806c74:	0c040818 	stceq	8, cr0, [r4], {24}
87806c78:	080c0408 	stmdaeq	ip, {r3, sl}
87806c7c:	03181606 	tsteq	r8, #6291456	; 0x600000
87806c80:	c101f0f3 	strdgt	pc, [r1, -r3]
87806c84:	000000e0 	andeq	r0, r0, r0, ror #1
87806c88:	00000000 	andeq	r0, r0, r0
87806c8c:	fc0300f8 	stc2	0, cr0, [r3], {248}	; 0xf8
87806c90:	38060330 	stmdacc	r6, {r4, r5, r8, r9}
87806c94:	04080204 	streq	r0, [r8], #-516	; 0x204
87806c98:	02040802 	andeq	r0, r4, #131072	; 0x20000
87806c9c:	10040408 	andne	r0, r4, r8, lsl #8
87806ca0:	01f00803 	mvnseq	r0, r3, lsl #16
87806ca4:	7f00c0ff 	svcvc	0x0000c0ff
	...
87806cbc:	70003870 	andvc	r3, r0, r0, ror r8
87806cc0:	38700038 	ldmdacc	r0!, {r3, r4, r5}^
	...
87806ce0:	30001a30 	andcc	r1, r0, r0, lsr sl
87806ce4:	0000001c 	andeq	r0, r0, ip, lsl r0
	...
87806cf8:	08000000 	stmdaeq	r0, {}	; <UNPREDICTABLE>
87806cfc:	00140000 	andseq	r0, r4, r0
87806d00:	00002200 	andeq	r2, r0, r0, lsl #4
87806d04:	80000041 	andhi	r0, r0, r1, asr #32
87806d08:	40000180 	andmi	r0, r0, r0, lsl #3
87806d0c:	04200002 	strteq	r0, [r0], #-2
87806d10:	00081000 	andeq	r1, r8, r0
87806d14:	00000008 	andeq	r0, r0, r8
87806d18:	00000000 	andeq	r0, r0, r0
87806d1c:	21000021 	tstcs	r0, r1, lsr #32
87806d20:	00210000 	eoreq	r0, r1, r0
87806d24:	00002100 	andeq	r2, r0, r0, lsl #2
87806d28:	21000021 	tstcs	r0, r1, lsr #32
87806d2c:	00210000 	eoreq	r0, r1, r0
87806d30:	00002100 	andeq	r2, r0, r0, lsl #2
87806d34:	21000021 	tstcs	r0, r1, lsr #32
	...
87806d40:	00080000 	andeq	r0, r8, r0
87806d44:	10000408 	andne	r0, r0, r8, lsl #8
87806d48:	01200002 	teqeq	r0, r2
87806d4c:	80004000 	andhi	r4, r0, r0
87806d50:	00410080 	subeq	r0, r1, r0, lsl #1
87806d54:	00002200 	andeq	r2, r0, r0, lsl #4
87806d58:	08000014 	stmdaeq	r0, {r2, r4}
87806d5c:	00000000 	andeq	r0, r0, r0
87806d60:	03000000 	movweq	r0, #0
87806d64:	c00400c0 	andgt	r0, r4, r0, asr #1
87806d68:	00000400 	andeq	r0, r0, r0, lsl #8
87806d6c:	08380008 	ldmdaeq	r8!, {r3}
87806d70:	0808380f 	stmdaeq	r8, {r0, r1, r2, r3, fp, ip, sp}
87806d74:	00100838 	andseq	r0, r0, r8, lsr r8
87806d78:	0700300c 	streq	r3, [r0, -ip]
87806d7c:	c00300e0 	andgt	r0, r3, r0, ror #1
	...
87806d88:	ff00803f 			; <UNDEFINED> instruction: 0xff00803f
87806d8c:	708003e0 	addvc	r0, r0, r0, ror #7
87806d90:	06100f02 	ldreq	r0, [r0], -r2, lsl #30
87806d94:	c0048870 	andgt	r8, r4, r0, ror r8
87806d98:	08830488 	stmeq	r3, {r3, r7, sl}
87806d9c:	02887f04 	addeq	r7, r8, #4, 30
87806da0:	010390c0 	smlabteq	r3, r0, r0, r9
87806da4:	40fe0020 	rscsmi	r0, lr, r0, lsr #32
87806da8:	00080000 	andeq	r0, r8, r0
87806dac:	01001800 	tsteq	r0, r0, lsl #16
87806db0:	083e00f8 	ldmdaeq	lr!, {r3, r4, r5, r6, r7}
87806db4:	0700c201 	streq	ip, [r0, -r1, lsl #4]
87806db8:	e2070002 	and	r0, r7, #2
87806dbc:	00fe0000 	rscseq	r0, lr, r0
87806dc0:	00c81f00 	sbceq	r1, r8, r0, lsl #30
87806dc4:	0000f801 	andeq	pc, r0, r1, lsl #16
87806dc8:	08000038 	stmdaeq	r0, {r3, r4, r5}
87806dcc:	07080004 	streq	r0, [r8, -r4]
87806dd0:	ff07f8ff 			; <UNDEFINED> instruction: 0xff07f8ff
87806dd4:	080804f8 	stmdaeq	r8, {r3, r4, r5, r6, r7, sl}
87806dd8:	04080804 	streq	r0, [r8], #-2052	; 0x804
87806ddc:	08040808 	stmdaeq	r4, {r3, fp}
87806de0:	08180608 	ldmdaeq	r8, {r3, r9, sl}
87806de4:	0118f403 	tsteq	r8, r3, lsl #8
87806de8:	0100f0e7 	smlatteq	r0, r7, r0, pc	; <UNPREDICTABLE>
87806dec:	000000e0 	andeq	r0, r0, r0, ror #1
87806df0:	00000000 	andeq	r0, r0, r0
87806df4:	ff01803f 			; <UNDEFINED> instruction: 0xff01803f
87806df8:	708003e0 	addvc	r0, r0, r0, ror #7
87806dfc:	04180002 	ldreq	r0, [r8], #-2
87806e00:	00040800 	andeq	r0, r4, r0, lsl #16
87806e04:	08000408 	stmdaeq	r0, {r3, sl}
87806e08:	06100004 	ldreq	r0, [r0], -r4
87806e0c:	80072000 	andhi	r2, r7, r0
87806e10:	000000c0 	andeq	r0, r0, r0, asr #1
87806e14:	07080004 	streq	r0, [r8, -r4]
87806e18:	ff07f8ff 			; <UNDEFINED> instruction: 0xff07f8ff
87806e1c:	080004f8 	stmdaeq	r0, {r3, r4, r5, r6, r7, sl}
87806e20:	04080004 	streq	r0, [r8], #-4
87806e24:	00040800 	andeq	r0, r4, r0, lsl #16
87806e28:	10000218 	andne	r0, r0, r8, lsl r2
87806e2c:	01708003 	cmneq	r0, r3
87806e30:	7f00e0ff 	svcvc	0x0000e0ff
87806e34:	00000080 	andeq	r0, r0, r0, lsl #1
87806e38:	07080004 	streq	r0, [r8, -r4]
87806e3c:	ff07f8ff 			; <UNDEFINED> instruction: 0xff07f8ff
87806e40:	080804f8 	stmdaeq	r8, {r3, r4, r5, r6, r7, sl}
87806e44:	04080804 	streq	r0, [r8], #-2052	; 0x804
87806e48:	08040808 	stmdaeq	r4, {r3, fp}
87806e4c:	083e0408 	ldmdaeq	lr!, {r3, sl}
87806e50:	06080004 	streq	r0, [r8], -r4
87806e54:	00011800 	andeq	r1, r1, r0, lsl #16
87806e58:	00000060 	andeq	r0, r0, r0, rrx
87806e5c:	07080004 	streq	r0, [r8, -r4]
87806e60:	ff07f8ff 			; <UNDEFINED> instruction: 0xff07f8ff
87806e64:	080804f8 	stmdaeq	r8, {r3, r4, r5, r6, r7, sl}
87806e68:	04000804 	streq	r0, [r0], #-2052	; 0x804
87806e6c:	08040008 	stmdaeq	r4, {r3}
87806e70:	003e0400 	eorseq	r0, lr, r0, lsl #8
87806e74:	06000006 	streq	r0, [r0], -r6
87806e78:	80010000 	andhi	r0, r1, r0
	...
87806e84:	ff01803f 			; <UNDEFINED> instruction: 0xff01803f
87806e88:	708003e0 	addvc	r0, r0, r0, ror #7
87806e8c:	04180006 	ldreq	r0, [r8], #-6
87806e90:	02040800 	andeq	r0, r4, #0, 16
87806e94:	08020408 	stmdaeq	r2, {r3, sl}
87806e98:	07f00302 	ldrbeq	r0, [r0, r2, lsl #6]!
87806e9c:	0200f083 	andeq	pc, r0, #131	; 0x83
87806ea0:	00020000 	andeq	r0, r2, r0
87806ea4:	07080004 	streq	r0, [r8, -r4]
87806ea8:	ff07f8ff 			; <UNDEFINED> instruction: 0xff07f8ff
87806eac:	080804f8 	stmdaeq	r8, {r3, r4, r5, r6, r7, sl}
87806eb0:	00000800 	andeq	r0, r0, r0, lsl #16
87806eb4:	08000008 	stmdaeq	r0, {r3}
87806eb8:	00080000 	andeq	r0, r8, r0
87806ebc:	07080804 	streq	r0, [r8, -r4, lsl #16]
87806ec0:	ff07f8ff 			; <UNDEFINED> instruction: 0xff07f8ff
87806ec4:	080004f8 	stmdaeq	r0, {r3, r4, r5, r6, r7, sl}
87806ec8:	00000000 	andeq	r0, r0, r0
87806ecc:	00040000 	andeq	r0, r4, r0
87806ed0:	08000408 	stmdaeq	r0, {r3, sl}
87806ed4:	07080004 	streq	r0, [r8, -r4]
87806ed8:	ff07f8ff 			; <UNDEFINED> instruction: 0xff07f8ff
87806edc:	080004f8 	stmdaeq	r0, {r3, r4, r5, r6, r7, sl}
87806ee0:	04080004 	streq	r0, [r8], #-4
87806ee4:	00000800 	andeq	r0, r0, r0, lsl #16
	...
87806ef0:	00000600 	andeq	r0, r0, r0, lsl #12
87806ef4:	01000007 	tsteq	r0, r7
87806ef8:	04010004 	streq	r0, [r1], #-4
87806efc:	00040100 	andeq	r0, r4, r0, lsl #2
87806f00:	feff0703 	cdp2	7, 15, cr0, cr15, cr3, {0}
87806f04:	04fcff07 	ldrbteq	pc, [ip], #3847	; 0xf07	; <UNPREDICTABLE>
87806f08:	00040000 	andeq	r0, r4, r0
87806f0c:	00000400 	andeq	r0, r0, r0, lsl #8
87806f10:	07080004 	streq	r0, [r8, -r4]
87806f14:	ff07f8ff 			; <UNDEFINED> instruction: 0xff07f8ff
87806f18:	080c04f8 	stmdaeq	ip, {r3, r4, r5, r6, r7, sl}
87806f1c:	00001800 	andeq	r1, r0, r0, lsl #16
87806f20:	c704003e 	smladxgt	r4, lr, r0, r0
87806f24:	c8030580 	stmdagt	r3, {r7, r8, sl}
87806f28:	04f80006 	ldrbteq	r0, [r8], #6
87806f2c:	00043800 	andeq	r3, r4, r0, lsl #16
87806f30:	08000018 	stmdaeq	r0, {r3, r4}
87806f34:	07080004 	streq	r0, [r8, -r4]
87806f38:	ff07f8ff 			; <UNDEFINED> instruction: 0xff07f8ff
87806f3c:	080004f8 	stmdaeq	r0, {r3, r4, r5, r6, r7, sl}
87806f40:	00080000 	andeq	r0, r8, r0
87806f44:	00000800 	andeq	r0, r0, r0, lsl #16
87806f48:	08000008 	stmdaeq	r0, {r3}
87806f4c:	00080000 	andeq	r0, r8, r0
87806f50:	00001800 	andeq	r1, r0, r0, lsl #16
87806f54:	00000060 	andeq	r0, r0, r0, rrx
87806f58:	07080004 	streq	r0, [r8, -r4]
87806f5c:	8007f8ff 	strdhi	pc, [r7], -pc	; <UNPREDICTABLE>
87806f60:	00fc0708 	rscseq	r0, ip, r8, lsl #14
87806f64:	00c07f00 	sbceq	r7, r0, r0, lsl #30
87806f68:	0700f803 	streq	pc, [r0, -r3, lsl #16]
87806f6c:	007800c0 	rsbseq	r0, r8, r0, asr #1
87806f70:	07088007 	streq	r8, [r8, -r7]
87806f74:	ff07f8ff 			; <UNDEFINED> instruction: 0xff07f8ff
87806f78:	080004f8 	stmdaeq	r0, {r3, r4, r5, r6, r7, sl}
87806f7c:	07080004 	streq	r0, [r8, -r4]
87806f80:	0007f8ff 	strdeq	pc, [r7], -pc	; <UNPREDICTABLE>
87806f84:	00c00308 	sbceq	r0, r0, r8, lsl #6
87806f88:	0000e000 	andeq	lr, r0, r0
87806f8c:	1e000038 	mcrne	0, 0, r0, cr0, cr8, {1}
87806f90:	00070000 	andeq	r0, r7, r0
87806f94:	04c00100 	strbeq	r0, [r0], #256	; 0x100
87806f98:	ff07f000 			; <UNDEFINED> instruction: 0xff07f000
87806f9c:	000004f8 	strdeq	r0, [r0], -r8
87806fa0:	00000000 	andeq	r0, r0, r0
87806fa4:	ff01807f 			; <UNDEFINED> instruction: 0xff01807f
87806fa8:	708003e0 	addvc	r0, r0, r0, ror #7
87806fac:	04180006 	ldreq	r0, [r8], #-6
87806fb0:	00040800 	andeq	r0, r4, r0, lsl #16
87806fb4:	18000608 	stmdane	r0, {r3, r9, sl}
87806fb8:	01300003 	teqeq	r0, r3
87806fbc:	7f00e0ff 	svcvc	0x0000e0ff
87806fc0:	00000080 	andeq	r0, r0, r0, lsl #1
87806fc4:	07080004 	streq	r0, [r8, -r4]
87806fc8:	ff07f8ff 			; <UNDEFINED> instruction: 0xff07f8ff
87806fcc:	080404f8 	stmdaeq	r4, {r3, r4, r5, r6, r7, sl}
87806fd0:	04000404 	streq	r0, [r0], #-1028	; 0x404
87806fd4:	04040004 	streq	r0, [r4], #-4
87806fd8:	00040400 	andeq	r0, r4, r0, lsl #8
87806fdc:	03000c06 	movweq	r0, #3078	; 0xc06
87806fe0:	f00100f8 			; <UNDEFINED> instruction: 0xf00100f8
	...
87806fec:	ff01807f 			; <UNDEFINED> instruction: 0xff01807f
87806ff0:	708003e0 	addvc	r0, r0, r0, ror #7
87806ff4:	04880006 	streq	r0, [r8], #6
87806ff8:	00048800 	andeq	r8, r4, r0, lsl #16
87806ffc:	3c0006c8 	stccc	6, cr0, [r0], {200}	; 0xc8
87807000:	013e0003 	teqeq	lr, r3
87807004:	7f00e6ff 	svcvc	0x0000e6ff
87807008:	00000084 	andeq	r0, r0, r4, lsl #1
8780700c:	07080004 	streq	r0, [r8, -r4]
87807010:	ff07f8ff 			; <UNDEFINED> instruction: 0xff07f8ff
87807014:	080804f8 	stmdaeq	r8, {r3, r4, r5, r6, r7, sl}
87807018:	04000804 	streq	r0, [r0], #-2052	; 0x804
8780701c:	0f04000c 	svceq	0x0004000c
87807020:	c00b0400 	andgt	r0, fp, r0, lsl #8
87807024:	03f01006 	mvnseq	r1, #6
87807028:	e00138f0 	strd	r3, [r1], -r0
8780702c:	08000008 	stmdaeq	r0, {r3}
87807030:	01000000 	mrseq	r0, (UNDEF: 0)
87807034:	f003f8e0 			; <UNDEFINED> instruction: 0xf003f8e0
87807038:	10300630 	eorsne	r0, r0, r0, lsr r6
8780703c:	04081804 	streq	r1, [r8], #-2052	; 0x804
87807040:	0c040818 	stceq	8, cr0, [r4], {24}
87807044:	080c0408 	stmdaeq	ip, {r3, sl}
87807048:	02180602 	andseq	r0, r8, #2097152	; 0x200000
8780704c:	8107f007 	tsthi	r7, r7
87807050:	000000e0 	andeq	r0, r0, r0, ror #1
87807054:	06008001 	streq	r8, [r0], -r1
87807058:	00040000 	andeq	r0, r4, r0
8780705c:	00000400 	andeq	r0, r0, r0, lsl #8
87807060:	07080004 	streq	r0, [r8, -r4]
87807064:	ff07f8ff 			; <UNDEFINED> instruction: 0xff07f8ff
87807068:	080004f8 	stmdaeq	r0, {r3, r4, r5, r6, r7, sl}
8780706c:	04000004 	streq	r0, [r0], #-4
87807070:	00060000 	andeq	r0, r6, r0
87807074:	00800100 	addeq	r0, r0, r0, lsl #2
87807078:	07000004 	streq	r0, [r0, -r4]
8780707c:	ff07e0ff 			; <UNDEFINED> instruction: 0xff07e0ff
87807080:	180004f0 	stmdane	r0, {r4, r5, r6, r7, sl}
87807084:	00080000 	andeq	r0, r8, r0
87807088:	00000800 	andeq	r0, r0, r0, lsl #16
8780708c:	08000008 	stmdaeq	r0, {r3}
87807090:	04080000 	streq	r0, [r8], #-0
87807094:	ff071000 			; <UNDEFINED> instruction: 0xff071000
87807098:	000004e0 	andeq	r0, r0, r0, ror #9
8780709c:	06000004 	streq	r0, [r0], -r4
878070a0:	e0070000 	and	r0, r7, r0
878070a4:	00fe0700 	rscseq	r0, lr, r0, lsl #14
878070a8:	00e01f04 	rsceq	r1, r0, r4, lsl #30
878070ac:	0000f801 	andeq	pc, r0, r1, lsl #16
878070b0:	e0010038 	and	r0, r1, r8, lsr r0
878070b4:	07003e04 	streq	r3, [r0, -r4, lsl #28]
878070b8:	000600c0 	andeq	r0, r6, r0, asr #1
878070bc:	00000400 	andeq	r0, r0, r0, lsl #8
878070c0:	07000004 	streq	r0, [r0, -r4]
878070c4:	ff0700e0 			; <UNDEFINED> instruction: 0xff0700e0
878070c8:	f81f04c0 			; <UNDEFINED> instruction: 0xf81f04c0
878070cc:	07c00700 	strbeq	r0, [r0, r0, lsl #14]
878070d0:	ff0700f8 			; <UNDEFINED> instruction: 0xff0700f8
878070d4:	f83f0480 			; <UNDEFINED> instruction: 0xf83f0480
878070d8:	04c00700 	strbeq	r0, [r0], #1792	; 0x700
878070dc:	000700f8 	strdeq	r0, [r7], -r8
878070e0:	00000400 	andeq	r0, r0, r0, lsl #8
878070e4:	04000000 	streq	r0, [r0], #-0
878070e8:	00060800 	andeq	r0, r6, r0, lsl #16
878070ec:	78c00718 	stmiavc	r0, {r3, r4, r8, r9, sl}^
878070f0:	00c8f105 	sbceq	pc, r8, r5, lsl #2
878070f4:	1f00003e 	svcne	0x0000003e
878070f8:	e8630480 	stmda	r3!, {r7, sl}^
878070fc:	06f88007 	ldrbteq	r8, [r8], r7
87807100:	00041800 	andeq	r1, r4, r0, lsl #16
87807104:	00000008 	andeq	r0, r0, r8
87807108:	06000004 	streq	r0, [r0], -r4
8780710c:	80070000 	andhi	r0, r7, r0
87807110:	08e00700 	stmiaeq	r0!, {r8, r9, sl}^
87807114:	00087c04 	andeq	r7, r8, r4, lsl #24
87807118:	0700f81f 	smuadeq	r0, pc, r8	; <UNPREDICTABLE>
8780711c:	081800f8 	ldmdaeq	r8, {r3, r4, r5, r6, r7}
87807120:	0708e004 	streq	lr, [r8, -r4]
87807124:	00060000 	andeq	r0, r6, r0
87807128:	00000400 	andeq	r0, r0, r0, lsl #8
8780712c:	01000000 	mrseq	r0, (UNDEF: 0)
87807130:	00060800 	andeq	r0, r6, r0, lsl #16
87807134:	f8000438 			; <UNDEFINED> instruction: 0xf8000438
87807138:	04e80304 	strbteq	r0, [r8], #772	; 0x304
8780713c:	7c04080f 	stcvc	8, cr0, [r4], {15}
87807140:	08f00508 	ldmeq	r0!, {r3, r8, sl}^
87807144:	0708c007 	streq	ip, [r8, -r7]
87807148:	00041800 	andeq	r1, r4, r0, lsl #16
8780714c:	00000060 	andeq	r0, r0, r0, rrx
	...
8780715c:	3f000000 	svccc	0x00000000
87807160:	0020feff 	strdeq	pc, [r0], -pc	; <UNPREDICTABLE>
87807164:	02002002 	andeq	r2, r0, #2
87807168:	20020020 	andcs	r0, r2, r0, lsr #32
8780716c:	00200200 	eoreq	r0, r0, r0, lsl #4
87807170:	00000002 	andeq	r0, r0, r2
87807174:	00000000 	andeq	r0, r0, r0
87807178:	00080000 	andeq	r0, r8, r0
8780717c:	00000700 	andeq	r0, r0, r0, lsl #14
87807180:	0000c000 	andeq	ip, r0, r0
87807184:	06000038 			; <UNDEFINED> instruction: 0x06000038
87807188:	c0010000 	andgt	r0, r1, r0
8780718c:	00300000 	eorseq	r0, r0, r0
87807190:	00000e00 	andeq	r0, r0, r0, lsl #28
87807194:	00000001 	andeq	r0, r0, r1
87807198:	00000000 	andeq	r0, r0, r0
8780719c:	00200000 	eoreq	r0, r0, r0
878071a0:	02002002 	andeq	r2, r0, #2
878071a4:	20020020 	andcs	r0, r2, r0, lsr #32
878071a8:	00200200 	eoreq	r0, r0, r0, lsl #4
878071ac:	feff3f02 	cdp2	15, 15, cr3, cr15, cr2, {0}
	...
878071c4:	00000800 	andeq	r0, r0, r0, lsl #16
878071c8:	30000010 	andcc	r0, r0, r0, lsl r0
878071cc:	00200000 	eoreq	r0, r0, r0
878071d0:	00003000 	andeq	r3, r0, r0
878071d4:	08000010 	stmdaeq	r0, {r4}
	...
878071e0:	00010000 	andeq	r0, r1, r0
878071e4:	00000100 	andeq	r0, r0, r0, lsl #2
878071e8:	01000001 	tsteq	r0, r1
878071ec:	00010000 	andeq	r0, r1, r0
878071f0:	00000100 	andeq	r0, r0, r0, lsl #2
878071f4:	01000001 	tsteq	r0, r1
878071f8:	00010000 	andeq	r0, r1, r0
878071fc:	00000100 	andeq	r0, r0, r0, lsl #2
87807200:	01000001 	tsteq	r0, r1
	...
8780720c:	00002000 	andeq	r2, r0, r0
87807210:	10000020 	andne	r0, r0, r0, lsr #32
87807214:	00100000 	andseq	r0, r0, r0
	...
8780722c:	1900f000 	stmdbne	r0, {ip, sp, lr, pc}
87807230:	181b00f8 	ldmdane	fp, {r3, r4, r5, r6, r7}
87807234:	00082200 	andeq	r2, r8, r0, lsl #4
87807238:	24000826 	strcs	r0, [r0], #-2086	; 0x826
8780723c:	10240008 	eorne	r0, r4, r8
87807240:	00f83f00 	rscseq	r3, r8, r0, lsl #30
87807244:	0000f81f 	andeq	pc, r0, pc, lsl r8	; <UNPREDICTABLE>
87807248:	18000008 	stmdane	r0, {r3}
8780724c:	04000000 	streq	r0, [r0], #-0
87807250:	ff070000 			; <UNDEFINED> instruction: 0xff070000
87807254:	f0ff0ff8 			; <UNDEFINED> instruction: 0xf0ff0ff8
87807258:	00181800 	andseq	r1, r8, r0, lsl #16
8780725c:	20000810 	andcs	r0, r0, r0, lsl r8
87807260:	08200008 	stmdaeq	r0!, {r3}
87807264:	00183000 	andseq	r3, r8, r0
87807268:	0f00f01f 	svceq	0x0000f01f
8780726c:	000000c0 	andeq	r0, r0, r0, asr #1
87807270:	00000000 	andeq	r0, r0, r0
87807274:	1f00c007 	svcne	0x0000c007
87807278:	301800f0 	ldrshcc	r0, [r8], -r0	; <UNPREDICTABLE>
8780727c:	00082000 	andeq	r2, r8, r0
87807280:	20000820 	andcs	r0, r0, r0, lsr #16
87807284:	083c0008 	ldmdaeq	ip!, {r3}
87807288:	00101c00 	andseq	r1, r0, r0, lsl #24
8780728c:	00006000 	andeq	r6, r0, r0
	...
87807298:	1f00c007 	svcne	0x0000c007
8780729c:	183800f0 	ldmdane	r8!, {r4, r5, r6, r7}
878072a0:	00082000 	andeq	r2, r8, r0
878072a4:	20000820 	andcs	r0, r0, r0, lsr #16
878072a8:	10100408 	andsne	r0, r0, r8, lsl #8
878072ac:	0ff8ff07 	svceq	0x00f8ff07
878072b0:	0000f0ff 	strdeq	pc, [r0], -pc	; <UNPREDICTABLE>
878072b4:	00000010 	andeq	r0, r0, r0, lsl r0
878072b8:	00000000 	andeq	r0, r0, r0
878072bc:	07000000 	streq	r0, [r0, -r0]
878072c0:	f01f00c0 			; <UNDEFINED> instruction: 0xf01f00c0
878072c4:	00301200 	eorseq	r1, r0, r0, lsl #4
878072c8:	22001822 	andcs	r1, r0, #2228224	; 0x220000
878072cc:	08220008 	stmdaeq	r2!, {r3}
878072d0:	00083200 	andeq	r3, r8, r0, lsl #4
878072d4:	0e00101e 	mcreq	0, 0, r1, cr0, cr14, {0}
878072d8:	00000020 	andeq	r0, r0, r0, lsr #32
878072dc:	00000000 	andeq	r0, r0, r0
878072e0:	20000020 	andcs	r0, r0, r0, lsr #32
878072e4:	08200008 	stmdaeq	r0!, {r3}
878072e8:	03f8ff01 	mvnseq	pc, #1, 30
878072ec:	2006f8ff 	strdcs	pc, [r6], -pc	; <UNPREDICTABLE>
878072f0:	08200408 	stmdaeq	r0!, {r3, sl}
878072f4:	07082004 	streq	r2, [r8, -r4]
878072f8:	00030020 	andeq	r0, r3, r0, lsr #32
	...
87807304:	0e000e00 	cdpeq	14, 0, cr0, cr0, cr0, {0}
87807308:	f31f006e 	vhadd.u16	q0, <illegal reg q7.5>, q15
8780730c:	00b13100 	adcseq	r3, r1, r0, lsl #2
87807310:	2000b120 	andcs	fp, r0, r0, lsr #2
87807314:	913100b1 	ldrhls	r0, [r1, -r1]!
87807318:	00131f00 	andseq	r1, r3, r0, lsl #30
8780731c:	20001e2e 	andcs	r1, r0, lr, lsr #28
87807320:	0030000e 	eorseq	r0, r0, lr
87807324:	04000000 	streq	r0, [r0], #-0
87807328:	ff070800 			; <UNDEFINED> instruction: 0xff070800
8780732c:	f8ff0ff8 			; <UNDEFINED> instruction: 0xf8ff0ff8
87807330:	00081000 	andeq	r1, r8, r0
87807334:	20000020 	andcs	r0, r0, r0, lsr #32
87807338:	08200000 	stmdaeq	r0!, {}	; <UNPREDICTABLE>
8780733c:	00f83f00 	rscseq	r3, r8, r0, lsl #30
87807340:	0000f81f 	andeq	pc, r0, pc, lsl r8	; <UNPREDICTABLE>
87807344:	00000008 	andeq	r0, r0, r8
87807348:	00000000 	andeq	r0, r0, r0
8780734c:	20000000 	andcs	r0, r0, r0
87807350:	08200008 	stmdaeq	r0!, {r3}
87807354:	06082000 	streq	r2, [r8], -r0
87807358:	3f06f83f 	svccc	0x0006f83f
8780735c:	080000f8 	stmdaeq	r0, {r3, r4, r5, r6, r7}
87807360:	00080000 	andeq	r0, r8, r0
87807364:	00000800 	andeq	r0, r0, r0, lsl #16
	...
87807374:	03000003 	movweq	r0, #3
87807378:	00012000 	andeq	r2, r1, r0
8780737c:	20000120 	andcs	r0, r0, r0, lsr #2
87807380:	fe3f0603 	cdp2	6, 3, cr0, cr15, cr3, {0}
87807384:	00fc3f06 	rscseq	r3, ip, r6, lsl #30
	...
87807390:	04000000 	streq	r0, [r0], #-0
87807394:	ff070800 			; <UNDEFINED> instruction: 0xff070800
87807398:	f8ff0ff8 			; <UNDEFINED> instruction: 0xf8ff0ff8
8780739c:	00880100 	addeq	r0, r8, r0, lsl #2
878073a0:	2f000003 	svccs	0x00000003
878073a4:	f83800c0 			; <UNDEFINED> instruction: 0xf83800c0
878073a8:	00382000 	eorseq	r2, r8, r0
878073ac:	00000820 	andeq	r0, r0, r0, lsr #16
878073b0:	00000008 	andeq	r0, r0, r8
878073b4:	00000000 	andeq	r0, r0, r0
878073b8:	00040000 	andeq	r0, r4, r0
878073bc:	08000408 	stmdaeq	r0, {r3, sl}
878073c0:	07080004 	streq	r0, [r8, -r4]
878073c4:	ff0ff8ff 			; <UNDEFINED> instruction: 0xff0ff8ff
878073c8:	080000f8 	stmdaeq	r0, {r3, r4, r5, r6, r7}
878073cc:	00080000 	andeq	r0, r8, r0
878073d0:	00000800 	andeq	r0, r0, r0, lsl #16
878073d4:	00000000 	andeq	r0, r0, r0
878073d8:	00082000 	andeq	r2, r8, r0
878073dc:	3f00f83f 	svccc	0x0000f83f
878073e0:	081000f8 	ldmdaeq	r0, {r3, r4, r5, r6, r7}
878073e4:	00002000 	andeq	r2, r0, r0
878073e8:	3f00f83f 	svccc	0x0000f83f
878073ec:	081000f8 	ldmdaeq	r0, {r3, r4, r5, r6, r7}
878073f0:	00002000 	andeq	r2, r0, r0
878073f4:	3f00f83f 	svccc	0x0000f83f
878073f8:	080000f8 	stmdaeq	r0, {r3, r4, r5, r6, r7}
878073fc:	00000000 	andeq	r0, r0, r0
87807400:	3f000820 	svccc	0x00000820
87807404:	f83f00f8 			; <UNDEFINED> instruction: 0xf83f00f8
87807408:	00081000 	andeq	r1, r8, r0
8780740c:	20000010 	andcs	r0, r0, r0, lsl r0
87807410:	08200000 	stmdaeq	r0!, {}	; <UNPREDICTABLE>
87807414:	00f83f00 	rscseq	r3, r8, r0, lsl #30
87807418:	0000f81f 	andeq	pc, r0, pc, lsl r8	; <UNPREDICTABLE>
8780741c:	00000008 	andeq	r0, r0, r8
87807420:	00000000 	andeq	r0, r0, r0
87807424:	0f00c007 	svceq	0x0000c007
87807428:	301800f0 	ldrshcc	r0, [r8], -r0	; <UNPREDICTABLE>
8780742c:	00083000 	andeq	r3, r8, r0
87807430:	20000820 	andcs	r0, r0, r0, lsr #16
87807434:	08300008 	ldmdaeq	r0!, {r3}
87807438:	00301800 	eorseq	r1, r0, r0, lsl #16
8780743c:	0700f00f 	streq	pc, [r0, -pc]
87807440:	000000c0 	andeq	r0, r0, r0, asr #1
87807444:	00000000 	andeq	r0, r0, r0
87807448:	3f000120 	svccc	0x00000120
8780744c:	ff3f00ff 			; <UNDEFINED> instruction: 0xff3f00ff
87807450:	00111000 	andseq	r1, r1, r0
87807454:	20000920 	andcs	r0, r0, r0, lsr #18
87807458:	08200008 	stmdaeq	r0!, {r3}
8780745c:	00383000 	eorseq	r3, r8, r0
87807460:	0f00f01f 	svceq	0x0000f01f
87807464:	000000c0 	andeq	r0, r0, r0, asr #1
87807468:	00000000 	andeq	r0, r0, r0
8780746c:	1f00c007 	svcne	0x0000c007
87807470:	183800f0 	ldmdane	r8!, {r4, r5, r6, r7}
87807474:	00082000 	andeq	r2, r8, r0
87807478:	20000820 	andcs	r0, r0, r0, lsr #16
8780747c:	11100009 	tstne	r0, r9
87807480:	00ff1f00 	rscseq	r1, pc, r0, lsl #30
87807484:	0000ff3f 	andeq	pc, r0, pc, lsr pc	; <UNPREDICTABLE>
87807488:	00000001 	andeq	r0, r0, r1
8780748c:	00082000 	andeq	r2, r8, r0
87807490:	20000820 	andcs	r0, r0, r0, lsr #16
87807494:	f83f0008 			; <UNDEFINED> instruction: 0xf83f0008
87807498:	00f83f00 	rscseq	r3, r8, r0, lsl #30
8780749c:	10000808 	andne	r0, r0, r8, lsl #16
878074a0:	08200008 	stmdaeq	r0!, {r3}
878074a4:	00002000 	andeq	r2, r0, r0
878074a8:	30000030 	andcc	r0, r0, r0, lsr r0
	...
878074b4:	0c000000 	stceq	0, cr0, [r0], {-0}
878074b8:	181e0078 	ldmdane	lr, {r3, r4, r5, r6}
878074bc:	00083300 	andeq	r3, r8, r0, lsl #6
878074c0:	21000823 	tstcs	r0, r3, lsr #16
878074c4:	88210008 	stmdahi	r1!, {r3}
878074c8:	00982100 	addseq	r2, r8, r0, lsl #2
878074cc:	3800f030 	stmdacc	r0, {r4, r5, ip, sp, lr, pc}
878074d0:	00000060 	andeq	r0, r0, r0, rrx
878074d4:	00000000 	andeq	r0, r0, r0
878074d8:	20000020 	andcs	r0, r0, r0, lsr #32
878074dc:	00200000 	eoreq	r0, r0, r0
878074e0:	03f0ff00 	mvnseq	pc, #0, 30
878074e4:	2000f8ff 	strdcs	pc, [r0], -pc	; <UNPREDICTABLE>
878074e8:	08200008 	stmdaeq	r0!, {r3}
878074ec:	00082000 	andeq	r2, r8, r0
878074f0:	00003000 	andeq	r3, r0, r0
	...
878074fc:	3f000020 	svccc	0x00000020
87807500:	f87f00f0 			; <UNDEFINED> instruction: 0xf87f00f0
87807504:	00180000 	andseq	r0, r8, r0
87807508:	00000800 	andeq	r0, r0, r0, lsl #16
8780750c:	10200008 	eorne	r0, r0, r8
87807510:	00f83f00 	rscseq	r3, r8, r0, lsl #30
87807514:	0000f07f 	andeq	pc, r0, pc, ror r0	; <UNPREDICTABLE>
87807518:	00000010 	andeq	r0, r0, r0, lsl r0
8780751c:	00000000 	andeq	r0, r0, r0
87807520:	30000020 	andcc	r0, r0, r0, lsr #32
87807524:	003c0000 	eorseq	r0, ip, r0
87807528:	00803f00 	addeq	r3, r0, r0, lsl #30
8780752c:	0000f023 	andeq	pc, r0, r3, lsr #32
87807530:	70000078 	andvc	r0, r0, r8, ror r0
87807534:	00802300 	addeq	r2, r0, r0, lsl #6
87807538:	3000003c 	andcc	r0, r0, ip, lsr r0
8780753c:	00200000 	eoreq	r0, r0, r0
87807540:	00002000 	andeq	r2, r0, r0
87807544:	3f00003c 	svccc	0x0000003c
87807548:	f82300e0 			; <UNDEFINED> instruction: 0xf82300e0
8780754c:	00e00000 	rsceq	r0, r0, r0
87807550:	3e000027 	cdpcc	0, 0, cr0, cr0, cr7, {1}
87807554:	e03f0000 	eors	r0, pc, r0
87807558:	00f82100 	rscseq	r2, r8, r0, lsl #2
8780755c:	3e00e001 	cdpcc	0, 0, cr14, cr0, cr1, {0}
87807560:	00200000 	eoreq	r0, r0, r0
87807564:	00000000 	andeq	r0, r0, r0
87807568:	20000820 	andcs	r0, r0, r0, lsr #16
8780756c:	38380008 	ldmdacc	r8!, {r3}
87807570:	00683e00 	rsbeq	r3, r8, r0, lsl #28
87807574:	03008027 	movweq	r8, #39	; 0x27
87807578:	f82c00c8 			; <UNDEFINED> instruction: 0xf82c00c8
8780757c:	00383800 	eorseq	r3, r8, r0, lsl #16
87807580:	20001820 	andcs	r1, r0, r0, lsr #16
87807584:	00000008 	andeq	r0, r0, r8
87807588:	00000000 	andeq	r0, r0, r0
8780758c:	30000020 	andcc	r0, r0, r0, lsr #32
87807590:	013c0003 	teqeq	ip, r3
87807594:	00833f00 	addeq	r3, r3, r0, lsl #30
87807598:	0000ec23 	andeq	lr, r0, r3, lsr #24
8780759c:	80230070 	eorhi	r0, r3, r0, ror r0
878075a0:	00003c00 	andeq	r3, r0, r0, lsl #24
878075a4:	20000020 	andcs	r0, r0, r0, lsr #32
	...
878075b0:	38000000 	stmdacc	r0, {}	; <UNPREDICTABLE>
878075b4:	38200008 	stmdacc	r0!, {r3}
878075b8:	00f82000 	rscseq	r2, r8, r0
878075bc:	2f00e823 	svccs	0x0000e823
878075c0:	083e0088 	ldmdaeq	lr!, {r3, r7}
878075c4:	00083800 	andeq	r3, r8, r0, lsl #16
878075c8:	00001820 	andeq	r1, r0, r0, lsr #16
878075cc:	00000070 	andeq	r0, r0, r0, ror r0
	...
878075e0:	14000008 	strne	r0, [r0], #-8
878075e4:	fcf71f00 	ldc2l	15, cr1, [r7]
878075e8:	20060030 	andcs	r0, r6, r0, lsr r0
878075ec:	00000200 	andeq	r0, r0, r0, lsl #4
	...
87807604:	ffff0000 			; <UNDEFINED> instruction: 0xffff0000
87807608:	000000ff 	strdeq	r0, [r0], -pc	; <UNPREDICTABLE>
	...
8780761c:	00200000 	eoreq	r0, r0, r0
87807620:	06003002 	streq	r3, [r0], -r2
87807624:	00fcf71f 	rscseq	pc, ip, pc, lsl r7	; <UNPREDICTABLE>
87807628:	08000014 	stmdaeq	r0, {r2, r4}
	...
8780763c:	18000000 	stmdane	r0, {}	; <UNPREDICTABLE>
87807640:	00600000 	rsbeq	r0, r0, r0
87807644:	00004000 	andeq	r4, r0, r0
87807648:	20000040 	andcs	r0, r0, r0, asr #32
8780764c:	00100000 	andseq	r0, r0, r0
87807650:	00000800 	andeq	r0, r0, r0, lsl #16
87807654:	04000004 	streq	r0, [r0], #-4
87807658:	000c0000 	andeq	r0, ip, r0
8780765c:	00001000 	andeq	r1, r0, r0

87807660 <asc2_1608>:
	...
87807674:	cc1f0000 	ldcgt	0, cr0, [pc], {-0}
87807678:	00000c00 	andeq	r0, r0, r0, lsl #24
8780767c:	00000000 	andeq	r0, r0, r0
87807680:	00080000 	andeq	r0, r8, r0
87807684:	00600030 	rsbeq	r0, r0, r0, lsr r0
87807688:	00300008 	eorseq	r0, r0, r8
8780768c:	00000060 	andeq	r0, r0, r0, rrx
87807690:	fc032002 	stc2	0, cr2, [r3], {2}
87807694:	2002201e 	andcs	r2, r2, lr, lsl r0
87807698:	201efc03 	andscs	pc, lr, r3, lsl #24
8780769c:	00002002 	andeq	r2, r0, r2
878076a0:	180e0000 	stmdane	lr, {}	; <UNPREDICTABLE>
878076a4:	ff3f0411 			; <UNDEFINED> instruction: 0xff3f0411
878076a8:	780c8410 	stmdavc	ip, {r4, sl, pc}
878076ac:	00000000 	andeq	r0, r0, r0
878076b0:	8410000f 	ldrhi	r0, [r0], #-15
878076b4:	c000380f 	andgt	r3, r0, pc, lsl #16
878076b8:	84187807 	ldrhi	r7, [r8], #-2055	; 0x807
878076bc:	00007800 	andeq	r7, r0, r0, lsl #16
878076c0:	840f7800 	strhi	r7, [pc], #-2048	; 878076c8 <asc2_1608+0x68>
878076c4:	2411c410 	ldrcs	ip, [r1], #-1040	; 0x410
878076c8:	e400980e 	str	r9, [r0], #-2062	; 0x80e
878076cc:	08008400 	stmdaeq	r0, {sl, pc}
878076d0:	00680008 	rsbeq	r0, r8, r8
878076d4:	00000070 	andeq	r0, r0, r0, ror r0
	...
878076e4:	e0070000 	and	r0, r7, r0
878076e8:	04201818 	strteq	r1, [r0], #-2072	; 0x818
878076ec:	00000240 	andeq	r0, r0, r0, asr #4
878076f0:	02400000 	subeq	r0, r0, #0
878076f4:	18180420 	ldmdane	r8, {r5, sl}
878076f8:	0000e007 	andeq	lr, r0, r7
878076fc:	00000000 	andeq	r0, r0, r0
87807700:	40024002 	andmi	r4, r2, r2
87807704:	f00f8001 			; <UNDEFINED> instruction: 0xf00f8001
87807708:	40028001 	andmi	r8, r2, r1
8780770c:	00004002 	andeq	r4, r0, r2
87807710:	80008000 	andhi	r8, r0, r0
87807714:	f80f8000 			; <UNDEFINED> instruction: 0xf80f8000
87807718:	80008000 	andhi	r8, r0, r0
8780771c:	00008000 	andeq	r8, r0, r0
87807720:	0d000100 	stfeqs	f0, [r0, #-0]
87807724:	00000e00 	andeq	r0, r0, r0, lsl #28
	...
87807730:	80000000 	andhi	r0, r0, r0
87807734:	80008000 	andhi	r8, r0, r0
87807738:	80008000 	andhi	r8, r0, r0
8780773c:	80008000 	andhi	r8, r0, r0
87807740:	0c000000 	stceq	0, cr0, [r0], {-0}
87807744:	00000c00 	andeq	r0, r0, r0, lsl #24
	...
87807750:	06000000 	streq	r0, [r0], -r0
87807754:	60001800 	andvs	r1, r0, r0, lsl #16
87807758:	00068001 	andeq	r8, r6, r1
8780775c:	00200018 	eoreq	r0, r0, r8, lsl r0
87807760:	f0070000 			; <UNDEFINED> instruction: 0xf0070000
87807764:	04100808 	ldreq	r0, [r0], #-2056	; 0x808
87807768:	08080410 	stmdaeq	r8, {r4, sl}
8780776c:	0000f007 	andeq	pc, r0, r7
87807770:	04080000 	streq	r0, [r8], #-0
87807774:	fc1f0408 	ldc2	4, cr0, [pc], {8}
87807778:	04000400 	streq	r0, [r0], #-1024	; 0x400
8780777c:	00000000 	andeq	r0, r0, r0
87807780:	0c0e0000 	stceq	0, cr0, [lr], {-0}
87807784:	24101410 	ldrcs	r1, [r0], #-1040	; 0x410
87807788:	84114410 	ldrhi	r4, [r1], #-1040	; 0x410
8780778c:	00000c0e 	andeq	r0, r0, lr, lsl #24
87807790:	180c0000 	stmdane	ip, {}	; <UNPREDICTABLE>
87807794:	04110410 	ldreq	r0, [r1], #-1040	; 0x410
87807798:	88120411 	ldmdahi	r2, {r0, r4, sl}
8780779c:	0000700c 	andeq	r7, r0, ip
878077a0:	e0000000 	and	r0, r0, r0
878077a4:	24042003 	strcs	r2, [r4], #-3
878077a8:	fc1f2408 	ldc2	4, cr2, [pc], {8}
878077ac:	00002400 	andeq	r2, r0, r0, lsl #8
878077b0:	981f0000 	ldmdals	pc, {}	; <UNPREDICTABLE>
878077b4:	04118410 	ldreq	r8, [r1], #-1040	; 0x410
878077b8:	88100411 	ldmdahi	r0, {r0, r4, sl}
878077bc:	00007010 	andeq	r7, r0, r0, lsl r0
878077c0:	f0070000 			; <UNDEFINED> instruction: 0xf0070000
878077c4:	04118808 	ldreq	r8, [r1], #-2056	; 0x808
878077c8:	88180411 	ldmdahi	r8, {r0, r4, sl}
878077cc:	00007000 	andeq	r7, r0, r0
878077d0:	001c0000 	andseq	r0, ip, r0
878077d4:	fc100010 	ldc2	0, cr0, [r0], {16}
878077d8:	001c0013 	andseq	r0, ip, r3, lsl r0
878077dc:	00000010 	andeq	r0, r0, r0, lsl r0
878077e0:	380e0000 	stmdacc	lr, {}	; <UNPREDICTABLE>
878077e4:	84104411 	ldrhi	r4, [r0], #-1041	; 0x411
878077e8:	44118410 	ldrmi	r8, [r1], #-1040	; 0x410
878077ec:	0000380e 	andeq	r3, r0, lr, lsl #16
878077f0:	00070000 	andeq	r0, r7, r0
878077f4:	44108c08 	ldrmi	r8, [r0], #-3080	; 0xc08
878077f8:	88084410 	stmdahi	r8, {r4, sl, lr}
878077fc:	0000f007 	andeq	pc, r0, r7
87807800:	00000000 	andeq	r0, r0, r0
87807804:	0c030000 	stceq	0, cr0, [r3], {-0}
87807808:	00000c03 	andeq	r0, r0, r3, lsl #24
	...
87807814:	06010100 	streq	r0, [r1], -r0, lsl #2
	...
87807820:	80000000 	andhi	r0, r0, r0
87807824:	20024001 	andcs	r4, r2, r1
87807828:	08081004 	stmdaeq	r8, {r2, ip}
8780782c:	00000410 	andeq	r0, r0, r0, lsl r4
87807830:	20022002 	andcs	r2, r2, r2
87807834:	20022002 	andcs	r2, r2, r2
87807838:	20022002 	andcs	r2, r2, r2
8780783c:	00002002 	andeq	r2, r0, r2
87807840:	04100000 	ldreq	r0, [r0], #-0
87807844:	10040808 	andne	r0, r4, r8, lsl #16
87807848:	40012002 	andmi	r2, r1, r2
8780784c:	00008000 	andeq	r8, r0, r0
87807850:	000e0000 	andeq	r0, lr, r0
87807854:	0c100012 	ldceq	0, cr0, [r0], {18}
87807858:	80106c10 	andshi	r6, r0, r0, lsl ip
8780785c:	0000000f 	andeq	r0, r0, pc
87807860:	180ce003 	stmdane	ip, {r0, r1, sp, lr, pc}
87807864:	2414e413 	ldrcs	lr, [r4], #-1043	; 0x413
87807868:	2808c417 	stmdacs	r8, {r0, r1, r2, r4, sl, lr, pc}
8780786c:	0000d007 	andeq	sp, r0, r7
87807870:	3c000400 	cfstrscc	mvf0, [r0], {-0}
87807874:	401cc403 	andsmi	ip, ip, r3, lsl #8
87807878:	e4004007 	str	r4, [r0], #-7
8780787c:	04001c00 	streq	r1, [r0], #-3072	; 0xc00
87807880:	fc1f0410 	ldc2	4, cr0, [pc], {16}
87807884:	04110411 	ldreq	r0, [r1], #-1041	; 0x411
87807888:	880e0411 	stmdahi	lr, {r0, r4, sl}
8780788c:	00007000 	andeq	r7, r0, r0
87807890:	180ce003 	stmdane	ip, {r0, r1, sp, lr, pc}
87807894:	04100410 	ldreq	r0, [r0], #-1040	; 0x410
87807898:	08100410 	ldmdaeq	r0, {r4, sl}
8780789c:	0000101c 	andeq	r1, r0, ip, lsl r0
878078a0:	fc1f0410 	ldc2	4, cr0, [pc], {16}
878078a4:	04100410 	ldreq	r0, [r0], #-1040	; 0x410
878078a8:	08080410 	stmdaeq	r8, {r4, sl}
878078ac:	0000f007 	andeq	pc, r0, r7
878078b0:	fc1f0410 	ldc2	4, cr0, [pc], {16}
878078b4:	04110411 	ldreq	r0, [r1], #-1041	; 0x411
878078b8:	0410c417 	ldreq	ip, [r0], #-1047	; 0x417
878078bc:	00001808 	andeq	r1, r0, r8, lsl #16
878078c0:	fc1f0410 	ldc2	4, cr0, [pc], {16}
878078c4:	00110411 	andseq	r0, r1, r1, lsl r4
878078c8:	0010c017 	andseq	ip, r0, r7, lsl r0
878078cc:	00000008 	andeq	r0, r0, r8
878078d0:	180ce003 	stmdane	ip, {r0, r1, sp, lr, pc}
878078d4:	04100410 	ldreq	r0, [r0], #-1040	; 0x410
878078d8:	781c4410 	ldmdavc	ip, {r4, sl, lr}
878078dc:	00004000 	andeq	r4, r0, r0
878078e0:	fc1f0410 	ldc2	4, cr0, [pc], {16}
878078e4:	80008410 	andhi	r8, r0, r0, lsl r4
878078e8:	84108000 	ldrhi	r8, [r0], #-0
878078ec:	0410fc1f 	ldreq	pc, [r0], #-3103	; 0xc1f
878078f0:	04100000 	ldreq	r0, [r0], #-0
878078f4:	fc1f0410 	ldc2	4, cr0, [pc], {16}
878078f8:	04100410 	ldreq	r0, [r0], #-1040	; 0x410
878078fc:	00000000 	andeq	r0, r0, r0
87807900:	01000300 	mrseq	r0, LR_irq
87807904:	01100110 	tsteq	r0, r0, lsl r1
87807908:	0010fe1f 	andseq	pc, r0, pc, lsl lr	; <UNPREDICTABLE>
8780790c:	00000010 	andeq	r0, r0, r0, lsl r0
87807910:	fc1f0410 	ldc2	4, cr0, [pc], {16}
87807914:	80030411 	andhi	r0, r3, r1, lsl r4
87807918:	1c186414 	cfldrsne	mvf6, [r8], {20}
8780791c:	00000410 	andeq	r0, r0, r0, lsl r4
87807920:	fc1f0410 	ldc2	4, cr0, [pc], {16}
87807924:	04000410 	streq	r0, [r0], #-1040	; 0x410
87807928:	04000400 	streq	r0, [r0], #-1024	; 0x400
8780792c:	00000c00 	andeq	r0, r0, r0, lsl #24
87807930:	fc1f0410 	ldc2	4, cr0, [pc], {16}
87807934:	fc00001f 	stc2	0, cr0, [r0], {31}
87807938:	fc1f001f 	ldc2	0, cr0, [pc], {31}
8780793c:	00000410 	andeq	r0, r0, r0, lsl r4
87807940:	fc1f0410 	ldc2	4, cr0, [pc], {16}
87807944:	0003040c 	andeq	r0, r3, ip, lsl #8
87807948:	1810e000 	ldmdane	r0, {sp, lr, pc}
8780794c:	0010fc1f 	andseq	pc, r0, pc, lsl ip	; <UNPREDICTABLE>
87807950:	0808f007 	stmdaeq	r8, {r0, r1, r2, ip, sp, lr, pc}
87807954:	04100410 	ldreq	r0, [r0], #-1040	; 0x410
87807958:	08080410 	stmdaeq	r8, {r4, sl}
8780795c:	0000f007 	andeq	pc, r0, r7
87807960:	fc1f0410 	ldc2	4, cr0, [pc], {16}
87807964:	80108410 	andshi	r8, r0, r0, lsl r4
87807968:	80108010 	andshi	r8, r0, r0, lsl r0
8780796c:	0000000f 	andeq	r0, r0, pc
87807970:	1808f007 	stmdane	r8, {r0, r1, r2, ip, sp, lr, pc}
87807974:	24102410 	ldrcs	r2, [r0], #-1040	; 0x410
87807978:	0a081c10 	beq	87a0e9c0 <__bss_end+0x1f65dc>
8780797c:	0000f207 	andeq	pc, r0, r7, lsl #4
87807980:	fc1f0410 	ldc2	4, cr0, [pc], {16}
87807984:	00110411 	andseq	r0, r1, r1, lsl r4
87807988:	3011c011 	andscc	ip, r1, r1, lsl r0
8780798c:	04000c0e 	streq	r0, [r0], #-3086	; 0xc0e
87807990:	1c0e0000 	stcne	0, cr0, [lr], {-0}
87807994:	84100411 	ldrhi	r0, [r0], #-1041	; 0x411
87807998:	44108410 	ldrmi	r8, [r0], #-1040	; 0x410
8780799c:	0000381c 	andeq	r3, r0, ip, lsl r8
878079a0:	00100018 	andseq	r0, r0, r8, lsl r0
878079a4:	fc1f0410 	ldc2	4, cr0, [pc], {16}
878079a8:	00100410 	andseq	r0, r0, r0, lsl r4
878079ac:	00000018 	andeq	r0, r0, r8, lsl r0
878079b0:	f81f0010 			; <UNDEFINED> instruction: 0xf81f0010
878079b4:	04000410 	streq	r0, [r0], #-1040	; 0x410
878079b8:	04100400 	ldreq	r0, [r0], #-1024	; 0x400
878079bc:	0010f81f 	andseq	pc, r0, pc, lsl r8	; <UNPREDICTABLE>
878079c0:	001e0010 	andseq	r0, lr, r0, lsl r0
878079c4:	1c00e011 	stcne	0, cr14, [r0], {17}
878079c8:	80137000 	andshi	r7, r3, r0
878079cc:	0010001c 	andseq	r0, r0, ip, lsl r0
878079d0:	3c10c01f 	ldccc	0, cr12, [r0], {31}
878079d4:	001fe000 	andseq	lr, pc, r0
878079d8:	3c10e000 	ldccc	0, cr14, [r0], {-0}
878079dc:	0000c01f 	andeq	ip, r0, pc, lsl r0
878079e0:	0c180410 	cfldrseq	mvf0, [r8], {16}
878079e4:	c0013416 	andgt	r3, r1, r6, lsl r4
878079e8:	3416c001 	ldrcc	ip, [r6], #-1
878079ec:	04100c18 	ldreq	r0, [r0], #-3096	; 0xc18
878079f0:	001c0010 	andseq	r0, ip, r0, lsl r0
878079f4:	fc000413 	stc2	4, cr0, [r0], {19}
878079f8:	001c0413 	andseq	r0, ip, r3, lsl r4
878079fc:	00000010 	andeq	r0, r0, r0, lsl r0
87807a00:	1c100408 	cfldrsne	mvf0, [r0], {8}
87807a04:	84106410 	ldrhi	r6, [r0], #-1040	; 0x410
87807a08:	041c0413 	ldreq	r0, [ip], #-1043	; 0x413
87807a0c:	00001810 	andeq	r1, r0, r0, lsl r8
87807a10:	00000000 	andeq	r0, r0, r0
87807a14:	fe7f0000 	cdp2	0, 7, cr0, cr15, cr0, {0}
87807a18:	02400240 	subeq	r0, r0, #64, 4
87807a1c:	00000240 	andeq	r0, r0, r0, asr #4
87807a20:	00300000 	eorseq	r0, r0, r0
87807a24:	8003000c 	andhi	r0, r3, ip
87807a28:	1c006000 	stcne	0, cr6, [r0], {-0}
87807a2c:	00000300 	andeq	r0, r0, r0, lsl #6
87807a30:	02400000 	subeq	r0, r0, #0
87807a34:	02400240 	subeq	r0, r0, #64, 4
87807a38:	0000fe7f 	andeq	pc, r0, pc, ror lr	; <UNPREDICTABLE>
	...
87807a44:	00400020 	subeq	r0, r0, r0, lsr #32
87807a48:	00400040 	subeq	r0, r0, r0, asr #32
87807a4c:	00000020 	andeq	r0, r0, r0, lsr #32
87807a50:	01000100 	mrseq	r0, (UNDEF: 16)
87807a54:	01000100 	mrseq	r0, (UNDEF: 16)
87807a58:	01000100 	mrseq	r0, (UNDEF: 16)
87807a5c:	01000100 	mrseq	r0, (UNDEF: 16)
87807a60:	00400000 	subeq	r0, r0, r0
87807a64:	00200040 	eoreq	r0, r0, r0, asr #32
	...
87807a70:	98000000 	stmdals	r0, {}	; <UNPREDICTABLE>
87807a74:	44012401 	strmi	r2, [r1], #-1025	; 0x401
87807a78:	44014401 	strmi	r4, [r1], #-1025	; 0x401
87807a7c:	0400fc00 	streq	pc, [r0], #-3072	; 0xc00
87807a80:	fc1f0010 	ldc2	0, cr0, [pc], {16}
87807a84:	04018800 	streq	r8, [r1], #-2048	; 0x800
87807a88:	88000401 	stmdahi	r0, {r0, sl}
87807a8c:	00007000 	andeq	r7, r0, r0
87807a90:	70000000 	andvc	r0, r0, r0
87807a94:	04018800 	streq	r8, [r1], #-2048	; 0x800
87807a98:	04010401 	streq	r0, [r1], #-1025	; 0x401
87807a9c:	00008800 	andeq	r8, r0, r0, lsl #16
87807aa0:	70000000 	andvc	r0, r0, r0
87807aa4:	04018800 	streq	r8, [r1], #-2048	; 0x800
87807aa8:	08110401 	ldmdaeq	r1, {r0, sl}
87807aac:	0400fc1f 	streq	pc, [r0], #-3103	; 0xc1f
87807ab0:	f8000000 			; <UNDEFINED> instruction: 0xf8000000
87807ab4:	44014401 	strmi	r4, [r1], #-1025	; 0x401
87807ab8:	44014401 	strmi	r4, [r1], #-1025	; 0x401
87807abc:	0000c800 	andeq	ip, r0, r0, lsl #16
87807ac0:	04010000 	streq	r0, [r1], #-0
87807ac4:	fc0f0401 	stc2	4, cr0, [pc], {1}
87807ac8:	04110411 	ldreq	r0, [r1], #-1041	; 0x411
87807acc:	00180011 	andseq	r0, r8, r1, lsl r0
87807ad0:	d6000000 	strle	r0, [r0], -r0
87807ad4:	29012901 	stmdbcs	r1, {r0, r8, fp, sp}
87807ad8:	c9012901 	stmdbgt	r1, {r0, r8, fp, sp}
87807adc:	00000601 	andeq	r0, r0, r1, lsl #12
87807ae0:	fc1f0410 	ldc2	4, cr0, [pc], {16}
87807ae4:	00018400 	andeq	r8, r1, r0, lsl #8
87807ae8:	04010001 	streq	r0, [r1], #-1
87807aec:	0400fc00 	streq	pc, [r0], #-3072	; 0xc00
87807af0:	04010000 	streq	r0, [r1], #-0
87807af4:	fc190419 	ldc2	4, cr0, [r9], {25}
87807af8:	04000400 	streq	r0, [r0], #-1024	; 0x400
87807afc:	00000000 	andeq	r0, r0, r0
87807b00:	03000000 	movweq	r0, #0
87807b04:	01010100 	mrseq	r0, (UNDEF: 17)
87807b08:	fe190119 	mrc2	1, 0, r0, cr9, cr9, {0}
87807b0c:	00000000 	andeq	r0, r0, r0
87807b10:	fc1f0410 	ldc2	4, cr0, [pc], {16}
87807b14:	40002400 	andmi	r2, r0, r0, lsl #8
87807b18:	0c01b401 	cfstrseq	mvf11, [r1], {1}
87807b1c:	00000401 	andeq	r0, r0, r1, lsl #8
87807b20:	04100000 	ldreq	r0, [r0], #-0
87807b24:	fc1f0410 	ldc2	4, cr0, [pc], {16}
87807b28:	04000400 	streq	r0, [r0], #-1024	; 0x400
87807b2c:	00000000 	andeq	r0, r0, r0
87807b30:	fc010401 	stc2	4, cr0, [r1], {1}
87807b34:	00010401 	andeq	r0, r1, r1, lsl #8
87807b38:	0401fc01 	streq	pc, [r1], #-3073	; 0xc01
87807b3c:	fc000001 	stc2	0, cr0, [r0], {1}
87807b40:	fc010401 	stc2	4, cr0, [r1], {1}
87807b44:	00018400 	andeq	r8, r1, r0, lsl #8
87807b48:	04010001 	streq	r0, [r1], #-1
87807b4c:	0400fc00 	streq	pc, [r0], #-3072	; 0xc00
87807b50:	f8000000 			; <UNDEFINED> instruction: 0xf8000000
87807b54:	04010401 	streq	r0, [r1], #-1025	; 0x401
87807b58:	04010401 	streq	r0, [r1], #-1025	; 0x401
87807b5c:	0000f800 	andeq	pc, r0, r0, lsl #16
87807b60:	ff010101 			; <UNDEFINED> instruction: 0xff010101
87807b64:	04018500 	streq	r8, [r1], #-1280	; 0x500
87807b68:	88000401 	stmdahi	r0, {r0, sl}
87807b6c:	00007000 	andeq	r7, r0, r0
87807b70:	70000000 	andvc	r0, r0, r0
87807b74:	04018800 	streq	r8, [r1], #-2048	; 0x800
87807b78:	05010401 	streq	r0, [r1, #-1025]	; 0x401
87807b7c:	0100ff01 	tsteq	r0, r1, lsl #30
87807b80:	04010401 	streq	r0, [r1], #-1025	; 0x401
87807b84:	8400fc01 	strhi	pc, [r0], #-3073	; 0xc01
87807b88:	00010401 	andeq	r0, r1, r1, lsl #8
87807b8c:	00008001 	andeq	r8, r0, r1
87807b90:	cc000000 	stcgt	0, cr0, [r0], {-0}
87807b94:	24012401 	strcs	r2, [r1], #-1025	; 0x401
87807b98:	24012401 	strcs	r2, [r1], #-1025	; 0x401
87807b9c:	00009801 	andeq	r9, r0, r1, lsl #16
87807ba0:	00010000 	andeq	r0, r1, r0
87807ba4:	f8070001 			; <UNDEFINED> instruction: 0xf8070001
87807ba8:	04010401 	streq	r0, [r1], #-1025	; 0x401
87807bac:	00000000 	andeq	r0, r0, r0
87807bb0:	f8010001 			; <UNDEFINED> instruction: 0xf8010001
87807bb4:	04000400 	streq	r0, [r0], #-1024	; 0x400
87807bb8:	08010400 	stmdaeq	r1, {sl}
87807bbc:	0400fc01 	streq	pc, [r0], #-3073	; 0xc01
87807bc0:	80010001 	andhi	r0, r1, r1
87807bc4:	0c007001 	stceq	0, cr7, [r0], {1}
87807bc8:	60011000 	andvs	r1, r1, r0
87807bcc:	00018001 	andeq	r8, r1, r1
87807bd0:	0c01f001 	stceq	0, cr15, [r1], {1}
87807bd4:	c0013000 	andgt	r3, r1, r0
87807bd8:	0c013000 	stceq	0, cr3, [r1], {-0}
87807bdc:	0001f001 	andeq	pc, r1, r1
87807be0:	04010000 	streq	r0, [r1], #-0
87807be4:	74008c01 	strvc	r8, [r0], #-3073	; 0xc01
87807be8:	8c017001 	stchi	0, cr7, [r1], {1}
87807bec:	00000401 	andeq	r0, r0, r1, lsl #8
87807bf0:	81010101 	tsthi	r1, r1, lsl #2
87807bf4:	0e007101 	adfeqs	f7, f0, f1
87807bf8:	60011800 	andvs	r1, r1, r0, lsl #16
87807bfc:	00018001 	andeq	r8, r1, r1
87807c00:	84010000 	strhi	r0, [r1], #-0
87807c04:	34010c01 	strcc	r0, [r1], #-3073	; 0xc01
87807c08:	84014401 	strhi	r4, [r1], #-1025	; 0x401
87807c0c:	00000c01 	andeq	r0, r0, r1, lsl #24
	...
87807c18:	fc3e0001 	ldc2	0, cr0, [lr], #-4
87807c1c:	02400240 	subeq	r0, r0, #64, 4
	...
87807c28:	0000ffff 	strdeq	pc, [r0], -pc	; <UNPREDICTABLE>
87807c2c:	00000000 	andeq	r0, r0, r0
87807c30:	02400000 	subeq	r0, r0, #0
87807c34:	fc3e0240 	ldc2	2, cr0, [lr], #-256	; 0xffffff00
87807c38:	00000001 	andeq	r0, r0, r1
87807c3c:	00000000 	andeq	r0, r0, r0
87807c40:	00600000 	rsbeq	r0, r0, r0
87807c44:	00800080 	addeq	r0, r0, r0, lsl #1
87807c48:	00400040 	subeq	r0, r0, r0, asr #32
87807c4c:	00200020 	eoreq	r0, r0, r0, lsr #32

87807c50 <asc2_3216>:
	...
87807ce8:	c000f007 	andgt	pc, r0, r7
87807cec:	e0e1ff07 	rsc	pc, r1, r7, lsl #30
87807cf0:	e001f007 	and	pc, r1, r7
87807cf4:	c0000000 	andgt	r0, r0, r0
	...
87807d58:	00002000 	andeq	r2, r0, r0
87807d5c:	0000c001 	andeq	ip, r0, r1
87807d60:	00008007 	andeq	r8, r0, r7
87807d64:	0000001f 	andeq	r0, r0, pc, lsl r0
87807d68:	0000001e 	andeq	r0, r0, lr, lsl r0
87807d6c:	0000201c 	andeq	r2, r0, ip, lsl r0
87807d70:	0000c001 	andeq	ip, r0, r1
87807d74:	00008007 	andeq	r8, r0, r7
87807d78:	0000001f 	andeq	r0, r0, pc, lsl r0
87807d7c:	0000001e 	andeq	r0, r0, lr, lsl r0
87807d80:	0000001c 	andeq	r0, r0, ip, lsl r0
	...
87807dd4:	000c1800 	andeq	r1, ip, r0, lsl #16
87807dd8:	000c1800 	andeq	r1, ip, r0, lsl #16
87807ddc:	e00f1800 	and	r1, pc, r0, lsl #16
87807de0:	00fc1f00 	rscseq	r1, ip, r0, lsl #30
87807de4:	000cf803 	andeq	pc, ip, r3, lsl #16
87807de8:	000c1800 	andeq	r1, ip, r0, lsl #16
87807dec:	000c1800 	andeq	r1, ip, r0, lsl #16
87807df0:	000c1800 	andeq	r1, ip, r0, lsl #16
87807df4:	000c1800 	andeq	r1, ip, r0, lsl #16
87807df8:	e00f1800 	and	r1, pc, r0, lsl #16
87807dfc:	00fc1f00 	rscseq	r1, ip, r0, lsl #30
87807e00:	000cf803 	andeq	pc, ip, r3, lsl #16
87807e04:	000c1800 	andeq	r1, ip, r0, lsl #16
87807e08:	000c1800 	andeq	r1, ip, r0, lsl #16
	...
87807e58:	80070000 	andhi	r0, r7, r0
87807e5c:	c0077800 	andgt	r7, r7, r0, lsl #16
87807e60:	4006fc00 	andmi	pc, r6, r0, lsl #24
87807e64:	20000e01 	andcs	r0, r0, r1, lsl #28
87807e68:	20000703 	andcs	r0, r0, r3, lsl #14
87807e6c:	20800302 	addcs	r0, r0, r2, lsl #6
87807e70:	fcffff0f 	ldc2l	15, cr15, [pc], #60	; 87807eb4 <asc2_3216+0x264>
87807e74:	20c00102 	sbccs	r0, r0, r2, lsl #2
87807e78:	60e00002 	rscvs	r0, r0, r2
87807e7c:	40703001 	rsbsmi	r3, r0, r1
87807e80:	803ff001 	eorshi	pc, pc, r1
87807e84:	001ff000 	andseq	pc, pc, r0
	...
87807ed0:	0000fe00 	andeq	pc, r0, r0, lsl #28
87807ed4:	0000ff01 	andeq	pc, r0, r1, lsl #30
87807ed8:	00800103 	addeq	r0, r0, r3, lsl #2
87807edc:	60800002 	addvs	r0, r0, r2
87807ee0:	c0810103 	addgt	r0, r1, r3, lsl #2
87807ee4:	0007ff01 	andeq	pc, r7, r1, lsl #30
87807ee8:	0018fe00 	andseq	pc, r8, r0, lsl #28
87807eec:	00e00000 	rsceq	r0, r0, r0
87807ef0:	00bf0300 	adcseq	r0, pc, r0, lsl #6
87807ef4:	c0ff0c00 	rscsgt	r0, pc, r0, lsl #24
87807ef8:	60807100 	addvs	r7, r0, r0, lsl #2
87807efc:	2000c101 	andcs	ip, r0, r1, lsl #2
87807f00:	60800103 	addvs	r0, r0, r3, lsl #2
87807f04:	c0ff0000 	rscsgt	r0, pc, r0
87807f08:	003f0000 	eorseq	r0, pc, r0
	...
87807f50:	001f0000 	andseq	r0, pc, r0
87807f54:	c07f0000 	rsbsgt	r0, pc, r0
87807f58:	c0c0fc00 	sbcgt	pc, r0, r0, lsl #24
87807f5c:	6080ff01 	addvs	pc, r0, r1, lsl #30
87807f60:	20e00303 	rsccs	r0, r0, r3, lsl #6
87807f64:	20780202 	rsbscs	r0, r8, r2, lsl #4
87807f68:	201e0602 	andscs	r0, lr, r2, lsl #12
87807f6c:	4007fc03 	andmi	pc, r7, r3, lsl #24
87807f70:	8003f001 	andhi	pc, r3, r1
87807f74:	c0030100 	andgt	r0, r3, r0, lsl #2
87807f78:	601c0100 	andsvs	r0, ip, r0, lsl #2
87807f7c:	20e00100 	rsccs	r0, r0, r0, lsl #2
87807f80:	20000100 	andcs	r0, r0, r0, lsl #2
87807f84:	40000100 	andmi	r0, r0, r0, lsl #2
87807f88:	80010000 	andhi	r0, r1, r0
	...
87807fd4:	00002000 	andeq	r2, r0, r0
87807fd8:	0000601c 	andeq	r6, r0, ip, lsl r0
87807fdc:	0000401c 	andeq	r4, r0, ip, lsl r0
87807fe0:	0000801f 	andeq	r8, r0, pc, lsl r0
87807fe4:	0000000f 	andeq	r0, r0, pc
	...
8780806c:	00f80700 	rscseq	r0, r8, r0, lsl #14
87808070:	00ff3f00 	rscseq	r3, pc, r0, lsl #30
87808074:	c0077800 	andgt	r7, r7, r0, lsl #16
87808078:	e000c001 	and	ip, r0, r1
8780807c:	30000003 	andcc	r0, r0, r3
87808080:	08000004 	stmdaeq	r0, {r2}
87808084:	04000008 	streq	r0, [r0], #-8
87808088:	02000010 	andeq	r0, r0, #16
	...
878080d4:	02000010 	andeq	r0, r0, #16
878080d8:	04000008 	streq	r0, [r0], #-8
878080dc:	08000004 	stmdaeq	r0, {r2}
878080e0:	30000003 	andcc	r0, r0, r3
878080e4:	e000c001 	and	ip, r0, r1
878080e8:	c0077800 	andgt	r7, r7, r0, lsl #16
878080ec:	00ff3f00 	rscseq	r3, pc, r0, lsl #30
878080f0:	00f80700 	rscseq	r0, r8, r0, lsl #14
	...
87808158:	00180c00 	andseq	r0, r8, r0, lsl #24
8780815c:	00380e00 	eorseq	r0, r8, r0, lsl #28
87808160:	00380e00 	eorseq	r0, r8, r0, lsl #28
87808164:	00300600 	eorseq	r0, r0, r0, lsl #12
87808168:	00600300 	rsbeq	r0, r0, r0, lsl #6
8780816c:	80436100 	subhi	r6, r3, r0, lsl #2
87808170:	80ffff00 	rscshi	pc, pc, r0, lsl #30
87808174:	00436100 	subeq	r6, r3, r0, lsl #2
87808178:	00600300 	rsbeq	r0, r0, r0, lsl #6
8780817c:	00300600 	eorseq	r0, r0, r0, lsl #12
87808180:	00380e00 	eorseq	r0, r8, r0, lsl #28
87808184:	00380e00 	eorseq	r0, r8, r0, lsl #28
87808188:	00180c00 	andseq	r0, r8, r0, lsl #24
	...
878081d8:	00800000 	addeq	r0, r0, r0
878081dc:	00800000 	addeq	r0, r0, r0
878081e0:	00800000 	addeq	r0, r0, r0
878081e4:	00800000 	addeq	r0, r0, r0
878081e8:	00800000 	addeq	r0, r0, r0
878081ec:	00800000 	addeq	r0, r0, r0
878081f0:	00ff7f00 	rscseq	r7, pc, r0, lsl #30
878081f4:	00800000 	addeq	r0, r0, r0
878081f8:	00800000 	addeq	r0, r0, r0
878081fc:	00800000 	addeq	r0, r0, r0
87808200:	00800000 	addeq	r0, r0, r0
87808204:	00800000 	addeq	r0, r0, r0
87808208:	00800000 	addeq	r0, r0, r0
	...
87808254:	01000000 	mrseq	r0, (UNDEF: 0)
87808258:	e3000000 	movw	r0, #0
8780825c:	e2000000 	and	r0, r0, #0
87808260:	fc000000 	stc2	0, cr0, [r0], {-0}
87808264:	78000000 	stmdavc	r0, {}	; <UNPREDICTABLE>
	...
878082d4:	00800000 	addeq	r0, r0, r0
878082d8:	00800000 	addeq	r0, r0, r0
878082dc:	00800000 	addeq	r0, r0, r0
878082e0:	00800000 	addeq	r0, r0, r0
878082e4:	00800000 	addeq	r0, r0, r0
878082e8:	00800000 	addeq	r0, r0, r0
878082ec:	00800000 	addeq	r0, r0, r0
878082f0:	00800000 	addeq	r0, r0, r0
878082f4:	00800000 	addeq	r0, r0, r0
878082f8:	00800000 	addeq	r0, r0, r0
878082fc:	00800000 	addeq	r0, r0, r0
87808300:	00800000 	addeq	r0, r0, r0
87808304:	00800000 	addeq	r0, r0, r0
87808308:	00800000 	addeq	r0, r0, r0
	...
87808358:	c0000000 	andgt	r0, r0, r0
8780835c:	e0010000 	and	r0, r1, r0
87808360:	e0010000 	and	r0, r1, r0
87808364:	c0000000 	andgt	r0, r0, r0
	...
878083d4:	0c000000 	stceq	0, cr0, [r0], {-0}
878083d8:	38000000 	stmdacc	r0, {}	; <UNPREDICTABLE>
878083dc:	e0000000 	and	r0, r0, r0
878083e0:	80030000 	andhi	r0, r3, r0
878083e4:	000e0000 	andeq	r0, lr, r0
878083e8:	00380000 	eorseq	r0, r8, r0
878083ec:	00e00000 	rsceq	r0, r0, r0
878083f0:	00800300 	addeq	r0, r0, r0, lsl #6
878083f4:	00000e00 	andeq	r0, r0, r0, lsl #28
878083f8:	00003800 	andeq	r3, r0, r0, lsl #16
878083fc:	0000e000 	andeq	lr, r0, r0
87808400:	00008003 	andeq	r8, r0, r3
87808404:	0000000e 	andeq	r0, r0, lr
87808408:	00000018 	andeq	r0, r0, r8, lsl r0
	...
87808458:	00f80f00 	rscseq	r0, r8, r0, lsl #30
8780845c:	00ff7f00 	rscseq	r7, pc, r0, lsl #30
87808460:	8007f000 	andhi	pc, r7, r0
87808464:	c0008001 	andgt	r8, r0, r1
87808468:	60000003 	andvs	r0, r0, r3
8780846c:	20000002 	andcs	r0, r0, r2
87808470:	20000002 	andcs	r0, r0, r2
87808474:	20000002 	andcs	r0, r0, r2
87808478:	60000003 	andvs	r0, r0, r3
8780847c:	c0008001 	andgt	r8, r0, r1
87808480:	8003e000 	andhi	lr, r3, r0
87808484:	00ff7f00 	rscseq	r7, pc, r0, lsl #30
87808488:	00f80f00 	rscseq	r0, r8, r0, lsl #30
	...
878084dc:	20008000 	andcs	r8, r0, r0
878084e0:	20008000 	andcs	r8, r0, r0
878084e4:	20008000 	andcs	r8, r0, r0
878084e8:	60008000 	andvs	r8, r0, r0
878084ec:	e0ffff01 	rscs	pc, pc, r1, lsl #30
878084f0:	e0ffff03 	rscs	pc, pc, r3, lsl #30
878084f4:	60000000 	andvs	r0, r0, r0
878084f8:	20000000 	andcs	r0, r0, r0
878084fc:	20000000 	andcs	r0, r0, r0
87808500:	20000000 	andcs	r0, r0, r0
	...
87808558:	e0007800 	and	r7, r0, r0, lsl #16
8780855c:	60019800 	andvs	r9, r1, r0, lsl #16
87808560:	60020001 	andvs	r0, r2, r1
87808564:	60040002 	andvs	r0, r4, r2
87808568:	60080002 	andvs	r0, r8, r2
8780856c:	60100002 	andsvs	r0, r0, r2
87808570:	60200002 	eorvs	r0, r0, r2
87808574:	60400002 	subvs	r0, r0, r2
87808578:	60800003 	addvs	r0, r0, r3
8780857c:	60008301 	andvs	r8, r0, r1, lsl #6
87808580:	e000fe01 	and	pc, r0, r1, lsl #28
87808584:	80077c00 	andhi	r7, r7, r0, lsl #24
	...
878085d8:	8007f000 	andhi	pc, r7, r0
878085dc:	c007f001 	andgt	pc, r7, r1
878085e0:	40000001 	andmi	r0, r0, r1
878085e4:	20000002 	andcs	r0, r0, r2
878085e8:	20000102 	andcs	r0, r0, r2, lsl #2
878085ec:	20000102 	andcs	r0, r0, r2, lsl #2
878085f0:	20000102 	andcs	r0, r0, r2, lsl #2
878085f4:	20800303 	addcs	r0, r0, r3, lsl #6
878085f8:	40808601 	addmi	r8, r0, r1, lsl #12
878085fc:	c0c0fc01 	sbcgt	pc, r0, r1, lsl #24
87808600:	807f7800 	rsbshi	r7, pc, r0, lsl #16
87808604:	001e0000 	andseq	r0, lr, r0
	...
87808654:	00080000 	andeq	r0, r8, r0
87808658:	00380000 	eorseq	r0, r8, r0
8780865c:	00480000 	subeq	r0, r8, r0
87808660:	00880100 	addeq	r0, r8, r0, lsl #2
87808664:	00080600 	andeq	r0, r8, r0, lsl #12
87808668:	10080c00 	andne	r0, r8, r0, lsl #24
8780866c:	10083000 	andne	r3, r8, r0
87808670:	10084000 	andne	r4, r8, r0
87808674:	f0ffff01 			; <UNDEFINED> instruction: 0xf0ffff01
87808678:	f0ffff03 			; <UNDEFINED> instruction: 0xf0ffff03
8780867c:	f0ffff03 			; <UNDEFINED> instruction: 0xf0ffff03
87808680:	10080000 	andne	r0, r8, r0
87808684:	10080000 	andne	r0, r8, r0
87808688:	10080000 	andne	r0, r8, r0
	...
878086d8:	80070000 	andhi	r0, r7, r0
878086dc:	40861f00 	addmi	r1, r6, r0, lsl #30
878086e0:	2000e103 	andcs	lr, r0, r3, lsl #2
878086e4:	20000203 	andcs	r0, r0, r3, lsl #4
878086e8:	20000403 	andcs	r0, r0, r3, lsl #8
878086ec:	20000403 	andcs	r0, r0, r3, lsl #8
878086f0:	20000403 	andcs	r0, r0, r3, lsl #8
878086f4:	20000403 	andcs	r0, r0, r3, lsl #8
878086f8:	40000603 	andmi	r0, r0, r3, lsl #12
878086fc:	c0010303 	andgt	r0, r1, r3, lsl #6
87808700:	80ff0103 	rscshi	r0, pc, r3, lsl #2
87808704:	007e0003 	rsbseq	r0, lr, r3
	...
87808758:	00fc0700 	rscseq	r0, ip, r0, lsl #14
8780875c:	00ff3f00 	rscseq	r3, pc, r0, lsl #30
87808760:	80c37000 	sbchi	r7, r3, r0
87808764:	c0808100 	addgt	r8, r0, r0, lsl #2
87808768:	60000101 	andvs	r0, r0, r1, lsl #2
8780876c:	20000203 	andcs	r0, r0, r3, lsl #4
87808770:	20000202 	andcs	r0, r0, r2, lsl #4
87808774:	20000202 	andcs	r0, r0, r2, lsl #4
87808778:	20000202 	andcs	r0, r0, r2, lsl #4
8780877c:	40000302 	andmi	r0, r0, r2, lsl #6
87808780:	c080c101 	addgt	ip, r0, r1, lsl #2
87808784:	80ffc000 	rscshi	ip, pc, r0
87808788:	007e0000 	rsbseq	r0, lr, r0
	...
878087d8:	0000f000 	andeq	pc, r0, r0
878087dc:	0000c003 	andeq	ip, r0, r3
878087e0:	00008003 	andeq	r8, r0, r3
878087e4:	00000003 	andeq	r0, r0, r3
878087e8:	e0070003 	and	r0, r7, r3
878087ec:	e03f0003 	eors	r0, pc, r3
878087f0:	00c00103 	sbceq	r0, r0, r3, lsl #2
878087f4:	00000603 	andeq	r0, r0, r3, lsl #12
878087f8:	00001803 	andeq	r1, r0, r3, lsl #16
878087fc:	00006003 	andeq	r6, r0, r3
87808800:	00008003 	andeq	r8, r0, r3
87808804:	00000003 	andeq	r0, r0, r3
	...
87808854:	001f0000 	andseq	r0, pc, r0
87808858:	803f7800 	eorshi	r7, pc, r0, lsl #16
8780885c:	c060fc00 	rsbgt	pc, r0, r0, lsl #24
87808860:	40c08e01 	sbcmi	r8, r0, r1, lsl #28
87808864:	20800703 	addcs	r0, r0, r3, lsl #14
87808868:	20000302 	andcs	r0, r0, r2, lsl #6
8780886c:	20800102 	addcs	r0, r0, r2, lsl #2
87808870:	20800102 	addcs	r0, r0, r2, lsl #2
87808874:	20c00102 	sbccs	r0, r0, r2, lsl #2
87808878:	40e00103 	rscmi	r0, r0, r3, lsl #2
8780887c:	c0708601 	rsbsgt	r8, r0, r1, lsl #12
87808880:	803ffc00 	eorshi	pc, pc, r0, lsl #24
87808884:	001f7800 	andseq	r7, pc, r0, lsl #16
	...
878088d4:	00003f00 	andeq	r3, r0, r0, lsl #30
878088d8:	c081ff00 	addgt	pc, r1, r0, lsl #30
878088dc:	c0c1c001 	sbcgt	ip, r1, r1
878088e0:	20600001 	rsbcs	r0, r0, r1
878088e4:	20200002 	eorcs	r0, r0, r2
878088e8:	20200002 	eorcs	r0, r0, r2
878088ec:	20200002 	eorcs	r0, r0, r2
878088f0:	60200002 	eorvs	r0, r0, r2
878088f4:	c0400002 	subgt	r0, r0, r2
878088f8:	80c10001 	sbchi	r0, r1, r1
878088fc:	008fc100 	addeq	ip, pc, r0, lsl #2
87808900:	00fe7f00 	rscseq	r7, lr, r0, lsl #30
87808904:	00f01f00 	rscseq	r1, r0, r0, lsl #30
	...
87808968:	c0000300 	andgt	r0, r0, r0, lsl #6
8780896c:	e0810700 	add	r0, r1, r0, lsl #14
87808970:	e0810700 	add	r0, r1, r0, lsl #14
87808974:	c0000300 	andgt	r0, r0, r0, lsl #6
	...
878089e8:	66000600 	strvs	r0, [r0], -r0, lsl #12
878089ec:	78000600 	stmdavc	r0, {r9, sl}
	...
87808a58:	00800000 	addeq	r0, r0, r0
87808a5c:	00c00100 	sbceq	r0, r0, r0, lsl #2
87808a60:	00600300 	rsbeq	r0, r0, r0, lsl #6
87808a64:	00300600 	eorseq	r0, r0, r0, lsl #12
87808a68:	00180c00 	andseq	r0, r8, r0, lsl #24
87808a6c:	000c1800 	andeq	r1, ip, r0, lsl #16
87808a70:	00063000 	andeq	r3, r6, r0
87808a74:	00036000 	andeq	r6, r3, r0
87808a78:	8001c000 	andhi	ip, r1, r0
87808a7c:	40000001 	andmi	r0, r0, r1
87808a80:	20000002 	andcs	r0, r0, r2
87808a84:	10000004 	andne	r0, r0, r4
	...
87808ad4:	00100400 	andseq	r0, r0, r0, lsl #8
87808ad8:	00100400 	andseq	r0, r0, r0, lsl #8
87808adc:	00100400 	andseq	r0, r0, r0, lsl #8
87808ae0:	00100400 	andseq	r0, r0, r0, lsl #8
87808ae4:	00100400 	andseq	r0, r0, r0, lsl #8
87808ae8:	00100400 	andseq	r0, r0, r0, lsl #8
87808aec:	00100400 	andseq	r0, r0, r0, lsl #8
87808af0:	00100400 	andseq	r0, r0, r0, lsl #8
87808af4:	00100400 	andseq	r0, r0, r0, lsl #8
87808af8:	00100400 	andseq	r0, r0, r0, lsl #8
87808afc:	00100400 	andseq	r0, r0, r0, lsl #8
87808b00:	00100400 	andseq	r0, r0, r0, lsl #8
87808b04:	00100400 	andseq	r0, r0, r0, lsl #8
87808b08:	00100400 	andseq	r0, r0, r0, lsl #8
	...
87808b58:	10000004 	andne	r0, r0, r4
87808b5c:	20000002 	andcs	r0, r0, r2
87808b60:	40000001 	andmi	r0, r0, r1
87808b64:	8001c000 	andhi	ip, r1, r0
87808b68:	00036000 	andeq	r6, r3, r0
87808b6c:	00063000 	andeq	r3, r6, r0
87808b70:	000c1800 	andeq	r1, ip, r0, lsl #16
87808b74:	00180c00 	andseq	r0, r8, r0, lsl #24
87808b78:	00300600 	eorseq	r0, r0, r0, lsl #12
87808b7c:	00600300 	rsbeq	r0, r0, r0, lsl #6
87808b80:	00c00100 	sbceq	r0, r0, r0, lsl #2
87808b84:	00800000 	addeq	r0, r0, r0
	...
87808bd8:	00007800 	andeq	r7, r0, r0, lsl #16
87808bdc:	0000f801 	andeq	pc, r0, r1, lsl #16
87808be0:	00003802 	andeq	r3, r0, r2, lsl #16
87808be4:	00000002 	andeq	r0, r0, r2
87808be8:	c0000004 	andgt	r0, r0, r4
87808bec:	e0790004 	rsbs	r0, r9, r4
87808bf0:	e0810004 	add	r0, r1, r4
87808bf4:	c0000104 	andgt	r0, r0, r4, lsl #2
87808bf8:	00000304 	andeq	r0, r0, r4, lsl #6
87808bfc:	00000202 	andeq	r0, r0, r2, lsl #4
87808c00:	00000603 	andeq	r0, r0, r3, lsl #12
87808c04:	0000fc01 	andeq	pc, r0, r1, lsl #24
87808c08:	0000f800 	andeq	pc, r0, r0, lsl #16
	...
87808c54:	00f80f00 	rscseq	r0, r8, r0, lsl #30
87808c58:	00fe3f00 	rscseq	r3, lr, r0, lsl #30
87808c5c:	80077000 	andhi	r7, r7, r0
87808c60:	c000c000 	andgt	ip, r0, r0
87808c64:	40f80101 	rscsmi	r0, r8, r1, lsl #2
87808c68:	20fc0703 	rscscs	r0, ip, r3, lsl #14
87808c6c:	20041e02 	andcs	r1, r4, r2, lsl #28
87808c70:	20083002 	andcs	r3, r8, r2
87808c74:	20302002 	eorscs	r2, r0, r2
87808c78:	20fc3f02 	rscscs	r3, ip, r2, lsl #30
87808c7c:	40043f01 	andmi	r3, r4, r1, lsl #30
87808c80:	c00c8001 	andgt	r8, ip, r1
87808c84:	8031e000 	eorshi	lr, r1, r0
87808c88:	00c21f00 	sbceq	r1, r2, r0, lsl #30
	...
87808cd0:	20000000 	andcs	r0, r0, r0
87808cd4:	60000000 	andvs	r0, r0, r0
87808cd8:	e0030000 	and	r0, r3, r0
87808cdc:	203e0000 	eorscs	r0, lr, r0
87808ce0:	20e00300 	rsccs	r0, r0, r0, lsl #6
87808ce4:	00203e00 	eoreq	r3, r0, r0, lsl #28
87808ce8:	0020e003 	eoreq	lr, r0, r3
87808cec:	00208003 	eoreq	r8, r0, r3
87808cf0:	0020fc07 	eoreq	pc, r0, r7, lsl #24
87808cf4:	00e03f00 	rsceq	r3, r0, r0, lsl #30
87808cf8:	20fe0300 	rscscs	r0, lr, r0, lsl #6
87808cfc:	e03f0000 	eors	r0, pc, r0
87808d00:	e0010000 	and	r0, r1, r0
87808d04:	20000000 	andcs	r0, r0, r0
87808d08:	20000000 	andcs	r0, r0, r0
	...
87808d54:	20000002 	andcs	r0, r0, r2
87808d58:	20000002 	andcs	r0, r0, r2
87808d5c:	e0ffff03 	rscs	pc, pc, r3, lsl #30
87808d60:	e0ffff03 	rscs	pc, pc, r3, lsl #30
87808d64:	20000102 	andcs	r0, r0, r2, lsl #2
87808d68:	20000102 	andcs	r0, r0, r2, lsl #2
87808d6c:	20000102 	andcs	r0, r0, r2, lsl #2
87808d70:	20000102 	andcs	r0, r0, r2, lsl #2
87808d74:	20000102 	andcs	r0, r0, r2, lsl #2
87808d78:	20000303 	andcs	r0, r0, r3, lsl #6
87808d7c:	60808601 	addvs	r8, r0, r1, lsl #12
87808d80:	c0c0fc01 	sbcgt	pc, r0, r1, lsl #24
87808d84:	807ff800 	rsbshi	pc, pc, r0, lsl #16
87808d88:	001f0000 	andseq	r0, pc, r0
	...
87808dd4:	00f80700 	rscseq	r0, r8, r0, lsl #14
87808dd8:	00ff3f00 	rscseq	r3, pc, r0, lsl #30
87808ddc:	80077000 	andhi	r7, r7, r0
87808de0:	c000c000 	andgt	ip, r0, r0
87808de4:	40000001 	andmi	r0, r0, r1
87808de8:	20000003 	andcs	r0, r0, r3
87808dec:	20000002 	andcs	r0, r0, r2
87808df0:	20000002 	andcs	r0, r0, r2
87808df4:	20000002 	andcs	r0, r0, r2
87808df8:	20000002 	andcs	r0, r0, r2
87808dfc:	40000001 	andmi	r0, r0, r1
87808e00:	c0008001 	andgt	r8, r0, r1
87808e04:	8001c003 	andhi	ip, r1, r3
87808e08:	00063000 	andeq	r3, r6, r0
	...
87808e54:	20000002 	andcs	r0, r0, r2
87808e58:	20000002 	andcs	r0, r0, r2
87808e5c:	e0ffff03 	rscs	pc, pc, r3, lsl #30
87808e60:	e0ffff03 	rscs	pc, pc, r3, lsl #30
87808e64:	20000002 	andcs	r0, r0, r2
87808e68:	20000002 	andcs	r0, r0, r2
87808e6c:	20000002 	andcs	r0, r0, r2
87808e70:	20000002 	andcs	r0, r0, r2
87808e74:	60000003 	andvs	r0, r0, r3
87808e78:	40000001 	andmi	r0, r0, r1
87808e7c:	c0008001 	andgt	r8, r0, r1
87808e80:	8007f000 	andhi	pc, r7, r0
87808e84:	00fe7f00 	rscseq	r7, lr, r0, lsl #30
87808e88:	00f80f00 	rscseq	r0, r8, r0, lsl #30
	...
87808ed4:	20000002 	andcs	r0, r0, r2
87808ed8:	20000002 	andcs	r0, r0, r2
87808edc:	e0ffff03 	rscs	pc, pc, r3, lsl #30
87808ee0:	e0ffff03 	rscs	pc, pc, r3, lsl #30
87808ee4:	20000102 	andcs	r0, r0, r2, lsl #2
87808ee8:	20000102 	andcs	r0, r0, r2, lsl #2
87808eec:	20000102 	andcs	r0, r0, r2, lsl #2
87808ef0:	20000102 	andcs	r0, r0, r2, lsl #2
87808ef4:	20000102 	andcs	r0, r0, r2, lsl #2
87808ef8:	20800302 	addcs	r0, r0, r2, lsl #6
87808efc:	20e00f02 	rsccs	r0, r0, r2, lsl #30
87808f00:	60000003 	andvs	r0, r0, r3
87808f04:	e000c003 	and	ip, r0, r3
87808f08:	00036000 	andeq	r6, r3, r0
	...
87808f54:	20000002 	andcs	r0, r0, r2
87808f58:	20000002 	andcs	r0, r0, r2
87808f5c:	e0ffff03 	rscs	pc, pc, r3, lsl #30
87808f60:	e0ffff03 	rscs	pc, pc, r3, lsl #30
87808f64:	20000102 	andcs	r0, r0, r2, lsl #2
87808f68:	20000102 	andcs	r0, r0, r2, lsl #2
87808f6c:	00000102 	andeq	r0, r0, r2, lsl #2
87808f70:	00000102 	andeq	r0, r0, r2, lsl #2
87808f74:	00000102 	andeq	r0, r0, r2, lsl #2
87808f78:	00000102 	andeq	r0, r0, r2, lsl #2
87808f7c:	00800302 	addeq	r0, r0, r2, lsl #6
87808f80:	00e00f03 	rsceq	r0, r0, r3, lsl #30
87808f84:	00000003 	andeq	r0, r0, r3
87808f88:	0000c003 	andeq	ip, r0, r3
87808f8c:	00006000 	andeq	r6, r0, r0
	...
87808fd4:	00f80700 	rscseq	r0, r8, r0, lsl #14
87808fd8:	00fe3f00 	rscseq	r3, lr, r0, lsl #30
87808fdc:	80077000 	andhi	r7, r7, r0
87808fe0:	c001c001 	andgt	ip, r1, r1
87808fe4:	40000001 	andmi	r0, r0, r1
87808fe8:	20000003 	andcs	r0, r0, r3
87808fec:	20000002 	andcs	r0, r0, r2
87808ff0:	20000002 	andcs	r0, r0, r2
87808ff4:	20000002 	andcs	r0, r0, r2
87808ff8:	20200001 	eorcs	r0, r0, r1
87808ffc:	40200001 	eormi	r0, r0, r1
87809000:	803fc003 	eorshi	ip, pc, r3
87809004:	803f3000 	eorshi	r3, pc, r0
87809008:	00200000 	eoreq	r0, r0, r0
8780900c:	00200000 	eoreq	r0, r0, r0
	...
87809050:	20000002 	andcs	r0, r0, r2
87809054:	20000002 	andcs	r0, r0, r2
87809058:	e0ffff03 	rscs	pc, pc, r3, lsl #30
8780905c:	e0ffff03 	rscs	pc, pc, r3, lsl #30
87809060:	20800002 	addcs	r0, r0, r2
87809064:	20800002 	addcs	r0, r0, r2
87809068:	00800000 	addeq	r0, r0, r0
8780906c:	00800000 	addeq	r0, r0, r0
87809070:	00800000 	addeq	r0, r0, r0
87809074:	20800002 	addcs	r0, r0, r2
87809078:	20800002 	addcs	r0, r0, r2
8780907c:	e0ffff03 	rscs	pc, pc, r3, lsl #30
87809080:	e0ffff03 	rscs	pc, pc, r3, lsl #30
87809084:	20000002 	andcs	r0, r0, r2
87809088:	20000002 	andcs	r0, r0, r2
	...
878090dc:	20000002 	andcs	r0, r0, r2
878090e0:	20000002 	andcs	r0, r0, r2
878090e4:	20000002 	andcs	r0, r0, r2
878090e8:	20000002 	andcs	r0, r0, r2
878090ec:	e0ffff03 	rscs	pc, pc, r3, lsl #30
878090f0:	e0ffff03 	rscs	pc, pc, r3, lsl #30
878090f4:	20000002 	andcs	r0, r0, r2
878090f8:	20000002 	andcs	r0, r0, r2
878090fc:	20000002 	andcs	r0, r0, r2
87809100:	20000002 	andcs	r0, r0, r2
	...
87809154:	0e000000 	cdpeq	0, 0, cr0, cr0, cr0, {0}
87809158:	0f000000 	svceq	0x00000000
8780915c:	0f000000 	svceq	0x00000000
87809160:	01000000 	mrseq	r0, (UNDEF: 0)
87809164:	01000002 	tsteq	r0, r2
87809168:	01000002 	tsteq	r0, r2
8780916c:	03000002 	movweq	r0, #2
87809170:	06000002 	streq	r0, [r0], -r2
87809174:	fcffff03 	ldc2l	15, cr15, [pc], #12	; 87809188 <asc2_3216+0x1538>
87809178:	f8ffff03 			; <UNDEFINED> instruction: 0xf8ffff03
8780917c:	00000002 	andeq	r0, r0, r2
87809180:	00000002 	andeq	r0, r0, r2
87809184:	00000002 	andeq	r0, r0, r2
87809188:	00000002 	andeq	r0, r0, r2
	...
878091d4:	20000002 	andcs	r0, r0, r2
878091d8:	20000002 	andcs	r0, r0, r2
878091dc:	e0ffff03 	rscs	pc, pc, r3, lsl #30
878091e0:	e0ffff03 	rscs	pc, pc, r3, lsl #30
878091e4:	20c00002 	sbccs	r0, r0, r2
878091e8:	20000102 	andcs	r0, r0, r2, lsl #2
878091ec:	00800700 	addeq	r0, r0, r0, lsl #14
878091f0:	00e00f00 	rsceq	r0, r0, r0, lsl #30
878091f4:	00f83000 	rscseq	r3, r8, r0
878091f8:	203e6002 	eorscs	r6, lr, r2
878091fc:	200f8003 	andcs	r8, pc, r3
87809200:	e0030003 	and	r0, r3, r3
87809204:	e0000002 	and	r0, r0, r2
87809208:	20000002 	andcs	r0, r0, r2
8780920c:	20000000 	andcs	r0, r0, r0
	...
87809254:	20000002 	andcs	r0, r0, r2
87809258:	20000002 	andcs	r0, r0, r2
8780925c:	e0ffff03 	rscs	pc, pc, r3, lsl #30
87809260:	e0ffff03 	rscs	pc, pc, r3, lsl #30
87809264:	20000002 	andcs	r0, r0, r2
87809268:	20000002 	andcs	r0, r0, r2
8780926c:	20000000 	andcs	r0, r0, r0
87809270:	20000000 	andcs	r0, r0, r0
87809274:	20000000 	andcs	r0, r0, r0
87809278:	20000000 	andcs	r0, r0, r0
8780927c:	20000000 	andcs	r0, r0, r0
87809280:	60000000 	andvs	r0, r0, r0
87809284:	e0000000 	and	r0, r0, r0
87809288:	00030000 	andeq	r0, r3, r0
	...
878092d0:	20000002 	andcs	r0, r0, r2
878092d4:	20000002 	andcs	r0, r0, r2
878092d8:	e0ffff03 	rscs	pc, pc, r3, lsl #30
878092dc:	2000e003 	andcs	lr, r0, r3
878092e0:	2000ff03 	andcs	pc, r0, r3, lsl #30
878092e4:	00f01f00 	rscseq	r1, r0, r0, lsl #30
878092e8:	80ff0100 	rscshi	r0, pc, r0, lsl #2
878092ec:	e00f0000 	and	r0, pc, r0
878092f0:	001e0000 	andseq	r0, lr, r0
878092f4:	00e00300 	rsceq	r0, r0, r0, lsl #6
878092f8:	20003e00 	andcs	r3, r0, r0, lsl #28
878092fc:	2000e003 	andcs	lr, r0, r3
87809300:	e0ffff03 	rscs	pc, pc, r3, lsl #30
87809304:	e0ffff03 	rscs	pc, pc, r3, lsl #30
87809308:	20000002 	andcs	r0, r0, r2
8780930c:	20000002 	andcs	r0, r0, r2
	...
87809350:	20000002 	andcs	r0, r0, r2
87809354:	20000002 	andcs	r0, r0, r2
87809358:	e0ffff03 	rscs	pc, pc, r3, lsl #30
8780935c:	20008003 	andcs	r8, r0, r3
87809360:	2000f003 	andcs	pc, r0, r3
87809364:	0000fc00 	andeq	pc, r0, r0, lsl #24
87809368:	00001f00 	andeq	r1, r0, r0, lsl #30
8780936c:	00c00700 	sbceq	r0, r0, r0, lsl #14
87809370:	00f00100 	rscseq	r0, r0, r0, lsl #2
87809374:	007c0000 	rsbseq	r0, ip, r0
87809378:	801f0002 	andshi	r0, pc, r2
8780937c:	e0070002 	and	r0, r7, r2
87809380:	e0ffff03 	rscs	pc, pc, r3, lsl #30
87809384:	00000002 	andeq	r0, r0, r2
87809388:	00000002 	andeq	r0, r0, r2
	...
878093d4:	00f80f00 	rscseq	r0, r8, r0, lsl #30
878093d8:	00fe3f00 	rscseq	r3, lr, r0, lsl #30
878093dc:	8007f000 	andhi	pc, r7, r0
878093e0:	c0008001 	andgt	r8, r0, r1
878093e4:	40000001 	andmi	r0, r0, r1
878093e8:	20000002 	andcs	r0, r0, r2
878093ec:	20000002 	andcs	r0, r0, r2
878093f0:	20000002 	andcs	r0, r0, r2
878093f4:	20000002 	andcs	r0, r0, r2
878093f8:	40000001 	andmi	r0, r0, r1
878093fc:	c0008001 	andgt	r8, r0, r1
87809400:	8003f000 	andhi	pc, r3, r0
87809404:	00fe3f00 	rscseq	r3, lr, r0, lsl #30
87809408:	00f80f00 	rscseq	r0, r8, r0, lsl #30
	...
87809454:	20000002 	andcs	r0, r0, r2
87809458:	20000002 	andcs	r0, r0, r2
8780945c:	e0ffff03 	rscs	pc, pc, r3, lsl #30
87809460:	e0ffff03 	rscs	pc, pc, r3, lsl #30
87809464:	20800002 	addcs	r0, r0, r2
87809468:	20800002 	addcs	r0, r0, r2
8780946c:	00800002 	addeq	r0, r0, r2
87809470:	00800002 	addeq	r0, r0, r2
87809474:	00800002 	addeq	r0, r0, r2
87809478:	00800002 	addeq	r0, r0, r2
8780947c:	00800103 	addeq	r0, r0, r3, lsl #2
87809480:	00008301 	andeq	r8, r0, r1, lsl #6
87809484:	0000fe00 	andeq	pc, r0, r0, lsl #28
87809488:	00007c00 	andeq	r7, r0, r0, lsl #24
	...
878094d4:	00f80f00 	rscseq	r0, r8, r0, lsl #30
878094d8:	00ff7f00 	rscseq	r7, pc, r0, lsl #30
878094dc:	8003f000 	andhi	pc, r3, r0
878094e0:	c0018001 	andgt	r8, r1, r1
878094e4:	40060001 	andmi	r0, r6, r1
878094e8:	20040002 	andcs	r0, r4, r2
878094ec:	20040002 	andcs	r0, r4, r2
878094f0:	20060002 	andcs	r0, r6, r2
878094f4:	e0030002 	and	r0, r3, r2
878094f8:	f8000001 			; <UNDEFINED> instruction: 0xf8000001
878094fc:	5c008001 	stcpl	0, cr8, [r0], {1}
87809500:	8c03e000 	stchi	0, cr14, [r3], {-0}
87809504:	0cff3f00 	ldcleq	15, cr3, [pc]	; 8780950c <asc2_3216+0x18bc>
87809508:	18fc0f00 	ldmne	ip!, {r8, r9, sl, fp}^
	...
87809554:	20000002 	andcs	r0, r0, r2
87809558:	20000002 	andcs	r0, r0, r2
8780955c:	e0ffff03 	rscs	pc, pc, r3, lsl #30
87809560:	e0ffff03 	rscs	pc, pc, r3, lsl #30
87809564:	20000102 	andcs	r0, r0, r2, lsl #2
87809568:	20000102 	andcs	r0, r0, r2, lsl #2
8780956c:	00800102 	addeq	r0, r0, r2, lsl #2
87809570:	00e00102 	rsceq	r0, r0, r2, lsl #2
87809574:	00fc0102 	rscseq	r0, ip, r2, lsl #2
87809578:	803f0303 	eorshi	r0, pc, r3, lsl #6
8780957c:	e0078601 	and	r8, r7, r1, lsl #12
87809580:	e000fc01 	and	pc, r0, r1, lsl #24
87809584:	2000f800 	andcs	pc, r0, r0, lsl #16
87809588:	20000000 	andcs	r0, r0, r0
	...
878095d8:	00067800 	andeq	r7, r6, r0, lsl #16
878095dc:	e001fe00 	and	pc, r1, r0, lsl #28
878095e0:	c0008601 	andgt	r8, r0, r1, lsl #12
878095e4:	40000303 	andmi	r0, r0, r3, lsl #6
878095e8:	20000302 	andcs	r0, r0, r2, lsl #6
878095ec:	20800102 	addcs	r0, r0, r2, lsl #2
878095f0:	20800102 	addcs	r0, r0, r2, lsl #2
878095f4:	20c00102 	sbccs	r0, r0, r2, lsl #2
878095f8:	20c00002 	sbccs	r0, r0, r2
878095fc:	60e00001 	rscvs	r0, r0, r1
87809600:	c0708001 	rsbsgt	r8, r0, r1
87809604:	803fe003 	eorshi	lr, pc, r3
87809608:	001f0000 	andseq	r0, pc, r0
	...
87809654:	00006000 	andeq	r6, r0, r0
87809658:	00008003 	andeq	r8, r0, r3
8780965c:	00000003 	andeq	r0, r0, r3
87809660:	00000002 	andeq	r0, r0, r2
87809664:	20000002 	andcs	r0, r0, r2
87809668:	20000002 	andcs	r0, r0, r2
8780966c:	e0ffff03 	rscs	pc, pc, r3, lsl #30
87809670:	e0ffff03 	rscs	pc, pc, r3, lsl #30
87809674:	20000002 	andcs	r0, r0, r2
87809678:	20000002 	andcs	r0, r0, r2
8780967c:	00000002 	andeq	r0, r0, r2
87809680:	00000002 	andeq	r0, r0, r2
87809684:	00008003 	andeq	r8, r0, r3
87809688:	0000e000 	andeq	lr, r0, r0
	...
878096d0:	00000002 	andeq	r0, r0, r2
878096d4:	00000002 	andeq	r0, r0, r2
878096d8:	00ffff03 	rscseq	pc, pc, r3, lsl #30
878096dc:	c0ffff03 	rscsgt	pc, pc, r3, lsl #30
878096e0:	40000002 	andmi	r0, r0, r2
878096e4:	60000002 	andvs	r0, r0, r2
878096e8:	20000000 	andcs	r0, r0, r0
878096ec:	20000000 	andcs	r0, r0, r0
878096f0:	20000000 	andcs	r0, r0, r0
878096f4:	20000000 	andcs	r0, r0, r0
878096f8:	40000002 	andmi	r0, r0, r2
878096fc:	80000002 	andhi	r0, r0, r2
87809700:	00ffff03 	rscseq	pc, pc, r3, lsl #30
87809704:	00000002 	andeq	r0, r0, r2
87809708:	00000002 	andeq	r0, r0, r2
	...
87809754:	00000002 	andeq	r0, r0, r2
87809758:	00000002 	andeq	r0, r0, r2
8780975c:	0000c003 	andeq	ip, r0, r3
87809760:	0000fc03 	andeq	pc, r0, r3, lsl #24
87809764:	00c03f02 	sbceq	r3, r0, r2, lsl #30
87809768:	00f80300 	rscseq	r0, r8, r0, lsl #6
8780976c:	807f0000 	rsbshi	r0, pc, r0
87809770:	e0070000 	and	r0, r7, r0
87809774:	80070000 	andhi	r0, r7, r0
87809778:	00780000 	rsbseq	r0, r8, r0
8780977c:	00c00302 	sbceq	r0, r0, r2, lsl #6
87809780:	00003c02 	andeq	r3, r0, r2, lsl #24
87809784:	0000c003 	andeq	ip, r0, r3
87809788:	00000002 	andeq	r0, r0, r2
8780978c:	00000002 	andeq	r0, r0, r2
	...
878097d0:	00000002 	andeq	r0, r0, r2
878097d4:	0000c003 	andeq	ip, r0, r3
878097d8:	0080ff03 	addeq	pc, r0, r3, lsl #30
878097dc:	00fe3f02 	rscseq	r3, lr, r2, lsl #30
878097e0:	e07f0002 	rsbs	r0, pc, r2
878097e4:	000f0000 	andeq	r0, pc, r0
878097e8:	00f00002 	rscseq	r0, r0, r2
878097ec:	0000ef03 	andeq	lr, r0, r3, lsl #30
878097f0:	0080ff03 	addeq	pc, r0, r3, lsl #30
878097f4:	00fe0f02 	rscseq	r0, lr, r2, lsl #30
878097f8:	e03f0000 	eors	r0, pc, r0
878097fc:	001f0000 	andseq	r0, pc, r0
87809800:	00e00702 	rsceq	r0, r0, r2, lsl #14
87809804:	0000f803 	andeq	pc, r0, r3, lsl #16
87809808:	00000003 	andeq	r0, r0, r3
8780980c:	00000002 	andeq	r0, r0, r2
	...
87809854:	20000002 	andcs	r0, r0, r2
87809858:	20000002 	andcs	r0, r0, r2
8780985c:	e0008003 	and	r8, r0, r3
87809860:	2003f003 	andcs	pc, r3, r3
87809864:	200cfc02 	andcs	pc, ip, r2, lsl #24
87809868:	00301f02 	eorseq	r1, r0, r2, lsl #30
8780986c:	00c00700 	sbceq	r0, r0, r0, lsl #14
87809870:	00f00700 	rscseq	r0, r0, r0, lsl #14
87809874:	007c1802 	rsbseq	r1, ip, r2, lsl #16
87809878:	201f6002 	andscs	r6, pc, r2
8780987c:	e0038003 	and	r8, r3, r3
87809880:	e0000002 	and	r0, r0, r2
87809884:	20000002 	andcs	r0, r0, r2
87809888:	20000000 	andcs	r0, r0, r0
	...
878098d4:	00000002 	andeq	r0, r0, r2
878098d8:	00000003 	andeq	r0, r0, r3
878098dc:	0000c003 	andeq	ip, r0, r3
878098e0:	0000f803 	andeq	pc, r0, r3, lsl #16
878098e4:	20003e02 	andcs	r3, r0, r2, lsl #28
878098e8:	20c00f02 	sbccs	r0, r0, r2, lsl #30
878098ec:	e0ff0100 	rscs	r0, pc, r0, lsl #2
878098f0:	e07f0000 	rsbs	r0, pc, r0
878098f4:	20800300 	addcs	r0, r0, r0, lsl #6
878098f8:	20001c02 	andcs	r1, r0, r2, lsl #24
878098fc:	00007002 	andeq	r7, r0, r2
87809900:	00008003 	andeq	r8, r0, r3
87809904:	00000002 	andeq	r0, r0, r2
87809908:	00000002 	andeq	r0, r0, r2
	...
87809954:	20000000 	andcs	r0, r0, r0
87809958:	e0006000 	and	r6, r0, r0
8780995c:	e0038003 	and	r8, r3, r3
87809960:	a00f0003 	andge	r0, pc, r3
87809964:	203e0002 	eorscs	r0, lr, r2
87809968:	20f80002 	rscscs	r0, r8, r2
8780996c:	20e00302 	rsccs	r0, r0, r2, lsl #6
87809970:	20800f02 	addcs	r0, r0, r2, lsl #30
87809974:	20003e02 	andcs	r3, r0, r2, lsl #28
87809978:	20007802 	andcs	r7, r0, r2, lsl #16
8780997c:	6000e003 	andvs	lr, r0, r3
87809980:	e0008003 	and	r8, r0, r3
87809984:	00030002 	andeq	r0, r3, r2
	...
878099e8:	fcffff1f 	ldc2l	15, cr15, [pc], #124	; 87809a6c <asc2_3216+0x1e1c>
878099ec:	04000010 	streq	r0, [r0], #-16
878099f0:	04000010 	streq	r0, [r0], #-16
878099f4:	04000010 	streq	r0, [r0], #-16
878099f8:	04000010 	streq	r0, [r0], #-16
878099fc:	04000010 	streq	r0, [r0], #-16
87809a00:	04000010 	streq	r0, [r0], #-16
87809a04:	04000010 	streq	r0, [r0], #-16
	...
87809a5c:	00000007 	andeq	r0, r0, r7
87809a60:	0000c003 	andeq	ip, r0, r3
87809a64:	00007800 	andeq	r7, r0, r0, lsl #16
87809a68:	00001e00 	andeq	r1, r0, r0, lsl #28
87809a6c:	00c00300 	sbceq	r0, r0, r0, lsl #6
87809a70:	00f00000 	rscseq	r0, r0, r0
87809a74:	001e0000 	andseq	r0, lr, r0
87809a78:	80070000 	andhi	r0, r7, r0
87809a7c:	f0000000 			; <UNDEFINED> instruction: 0xf0000000
87809a80:	3c000000 	stccc	0, cr0, [r0], {-0}
87809a84:	06000000 	streq	r0, [r0], -r0
	...
87809ad8:	04000010 	streq	r0, [r0], #-16
87809adc:	04000010 	streq	r0, [r0], #-16
87809ae0:	04000010 	streq	r0, [r0], #-16
87809ae4:	04000010 	streq	r0, [r0], #-16
87809ae8:	04000010 	streq	r0, [r0], #-16
87809aec:	04000010 	streq	r0, [r0], #-16
87809af0:	04000010 	streq	r0, [r0], #-16
87809af4:	fcffff1f 	ldc2l	15, cr15, [pc], #124	; 87809b78 <asc2_3216+0x1f28>
	...
87809b60:	00000002 	andeq	r0, r0, r2
87809b64:	00000004 	andeq	r0, r0, r4
87809b68:	00000008 	andeq	r0, r0, r8
87809b6c:	00000018 	andeq	r0, r0, r8, lsl r0
87809b70:	00000010 	andeq	r0, r0, r0, lsl r0
87809b74:	00000018 	andeq	r0, r0, r8, lsl r0
87809b78:	00000018 	andeq	r0, r0, r8, lsl r0
87809b7c:	00000004 	andeq	r0, r0, r4
87809b80:	00000002 	andeq	r0, r0, r2
	...
87809bd0:	01000000 	mrseq	r0, (UNDEF: 0)
87809bd4:	01000000 	mrseq	r0, (UNDEF: 0)
87809bd8:	01000000 	mrseq	r0, (UNDEF: 0)
87809bdc:	01000000 	mrseq	r0, (UNDEF: 0)
87809be0:	01000000 	mrseq	r0, (UNDEF: 0)
87809be4:	01000000 	mrseq	r0, (UNDEF: 0)
87809be8:	01000000 	mrseq	r0, (UNDEF: 0)
87809bec:	01000000 	mrseq	r0, (UNDEF: 0)
87809bf0:	01000000 	mrseq	r0, (UNDEF: 0)
87809bf4:	01000000 	mrseq	r0, (UNDEF: 0)
87809bf8:	01000000 	mrseq	r0, (UNDEF: 0)
87809bfc:	01000000 	mrseq	r0, (UNDEF: 0)
87809c00:	01000000 	mrseq	r0, (UNDEF: 0)
87809c04:	01000000 	mrseq	r0, (UNDEF: 0)
87809c08:	01000000 	mrseq	r0, (UNDEF: 0)
87809c0c:	01000000 	mrseq	r0, (UNDEF: 0)
	...
87809c5c:	00000010 	andeq	r0, r0, r0, lsl r0
87809c60:	00000010 	andeq	r0, r0, r0, lsl r0
87809c64:	00000010 	andeq	r0, r0, r0, lsl r0
87809c68:	00000018 	andeq	r0, r0, r8, lsl r0
87809c6c:	00000008 	andeq	r0, r0, r8
87809c70:	00000004 	andeq	r0, r0, r4
	...
87809cd4:	80030000 	andhi	r0, r3, r0
87809cd8:	c08f0100 	addgt	r0, pc, r0, lsl #2
87809cdc:	608c0300 	addvs	r0, ip, r0, lsl #6
87809ce0:	20180600 	andscs	r0, r8, r0, lsl #12
87809ce4:	20100400 	andscs	r0, r0, r0, lsl #8
87809ce8:	20100400 	andscs	r0, r0, r0, lsl #8
87809cec:	20200400 	eorcs	r0, r0, r0, lsl #8
87809cf0:	40200400 	eormi	r0, r0, r0, lsl #8
87809cf4:	40200600 	eormi	r0, r0, r0, lsl #12
87809cf8:	c0ff0300 	rscsgt	r0, pc, r0, lsl #6
87809cfc:	e0ff0100 	rscs	r0, pc, r0, lsl #2
87809d00:	20000000 	andcs	r0, r0, r0
87809d04:	20000000 	andcs	r0, r0, r0
87809d08:	c0000000 	andgt	r0, r0, r0
	...
87809d54:	00000002 	andeq	r0, r0, r2
87809d58:	00000002 	andeq	r0, r0, r2
87809d5c:	e0ffff03 	rscs	pc, pc, r3, lsl #30
87809d60:	c0ffff07 	rscsgt	pc, pc, r7, lsl #30
87809d64:	c0800100 	addgt	r0, r0, r0, lsl #2
87809d68:	60000200 	andvs	r0, r0, r0, lsl #4
87809d6c:	20000200 	andcs	r0, r0, r0, lsl #4
87809d70:	20000400 	andcs	r0, r0, r0, lsl #8
87809d74:	20000400 	andcs	r0, r0, r0, lsl #8
87809d78:	20000400 	andcs	r0, r0, r0, lsl #8
87809d7c:	40000600 	andmi	r0, r0, r0, lsl #12
87809d80:	c0000300 	andgt	r0, r0, r0, lsl #6
87809d84:	80ff0100 	rscshi	r0, pc, r0, lsl #2
87809d88:	00fe0000 	rscseq	r0, lr, r0
	...
87809dd8:	007e0000 	rsbseq	r0, lr, r0
87809ddc:	80ff0100 	rscshi	r0, pc, r0, lsl #2
87809de0:	c0810300 	addgt	r0, r1, r0, lsl #6
87809de4:	40000200 	andmi	r0, r0, r0, lsl #4
87809de8:	20000600 	andcs	r0, r0, r0, lsl #12
87809dec:	20000400 	andcs	r0, r0, r0, lsl #8
87809df0:	20000400 	andcs	r0, r0, r0, lsl #8
87809df4:	20000400 	andcs	r0, r0, r0, lsl #8
87809df8:	20000600 	andcs	r0, r0, r0, lsl #12
87809dfc:	40c00300 	sbcmi	r0, r0, r0, lsl #6
87809e00:	80c00100 	sbchi	r0, r0, r0, lsl #2
87809e04:	00030000 	andeq	r0, r3, r0
	...
87809e58:	007e0000 	rsbseq	r0, lr, r0
87809e5c:	80ff0100 	rscshi	r0, pc, r0, lsl #2
87809e60:	c0800300 	addgt	r0, r0, r0, lsl #6
87809e64:	60000600 	andvs	r0, r0, r0, lsl #12
87809e68:	20000400 	andcs	r0, r0, r0, lsl #8
87809e6c:	20000400 	andcs	r0, r0, r0, lsl #8
87809e70:	20000400 	andcs	r0, r0, r0, lsl #8
87809e74:	40000402 	andmi	r0, r0, r2, lsl #8
87809e78:	80000202 	andhi	r0, r0, r2, lsl #4
87809e7c:	e0ffff03 	rscs	pc, pc, r3, lsl #30
87809e80:	c0ffff07 	rscsgt	pc, pc, r7, lsl #30
87809e84:	40000000 	andmi	r0, r0, r0
87809e88:	40000000 	andmi	r0, r0, r0
	...
87809ed8:	007e0000 	rsbseq	r0, lr, r0
87809edc:	80ff0100 	rscshi	r0, pc, r0, lsl #2
87809ee0:	c0110300 	andsgt	r0, r1, r0, lsl #6
87809ee4:	40100200 	andsmi	r0, r0, r0, lsl #4
87809ee8:	60100400 	andsvs	r0, r0, r0, lsl #8
87809eec:	20100400 	andscs	r0, r0, r0, lsl #8
87809ef0:	20100400 	andscs	r0, r0, r0, lsl #8
87809ef4:	20100400 	andscs	r0, r0, r0, lsl #8
87809ef8:	20100600 	andscs	r0, r0, r0, lsl #12
87809efc:	40100300 	andsmi	r0, r0, r0, lsl #6
87809f00:	c0f00100 	rscsgt	r0, r0, r0, lsl #2
87809f04:	00710000 	rsbseq	r0, r1, r0
	...
87809f58:	00000400 	andeq	r0, r0, r0, lsl #8
87809f5c:	20000400 	andcs	r0, r0, r0, lsl #8
87809f60:	20000400 	andcs	r0, r0, r0, lsl #8
87809f64:	20000400 	andcs	r0, r0, r0, lsl #8
87809f68:	e0ff7f00 	rscs	r7, pc, r0, lsl #30
87809f6c:	e0ffff01 	rscs	pc, pc, r1, lsl #30
87809f70:	20000401 	andcs	r0, r0, r1, lsl #8
87809f74:	20000403 	andcs	r0, r0, r3, lsl #8
87809f78:	20000402 	andcs	r0, r0, r2, lsl #8
87809f7c:	20000402 	andcs	r0, r0, r2, lsl #8
87809f80:	00000402 	andeq	r0, r0, r2, lsl #8
87809f84:	00000002 	andeq	r0, r0, r2
87809f88:	0000c001 	andeq	ip, r0, r1
87809f8c:	0000c001 	andeq	ip, r0, r1
	...
87809fd8:	1c000000 	stcne	0, cr0, [r0], {-0}
87809fdc:	3ee30000 	cdpcc	0, 14, cr0, cr3, cr0, {0}
87809fe0:	c2ff0300 	rscsgt	r0, pc, #0, 6
87809fe4:	c30c0200 	movwgt	r0, #49664	; 0xc200
87809fe8:	c1040400 	tstgt	r4, r0, lsl #8
87809fec:	c1040400 	tstgt	r4, r0, lsl #8
87809ff0:	c1040400 	tstgt	r4, r0, lsl #8
87809ff4:	c1040400 	tstgt	r4, r0, lsl #8
87809ff8:	c10c0600 	tstgt	ip, r0, lsl #12
87809ffc:	c3f80300 	mvnsgt	r0, #0, 6
8780a000:	62f00500 	rscsvs	r0, r0, #0, 10
8780a004:	7e000600 	cfmadd32vc	mvax0, mvfx0, mvfx0, mvfx0
8780a008:	3c000600 	stccc	6, cr0, [r0], {-0}
	...
8780a054:	20000002 	andcs	r0, r0, r2
8780a058:	20000002 	andcs	r0, r0, r2
8780a05c:	e0ffff03 	rscs	pc, pc, r3, lsl #30
8780a060:	e0ffff07 	rscs	pc, pc, r7, lsl #30
8780a064:	20000100 	andcs	r0, r0, r0, lsl #2
8780a068:	20000200 	andcs	r0, r0, r0, lsl #4
8780a06c:	00000600 	andeq	r0, r0, r0, lsl #12
8780a070:	00000400 	andeq	r0, r0, r0, lsl #8
8780a074:	00000400 	andeq	r0, r0, r0, lsl #8
8780a078:	20000400 	andcs	r0, r0, r0, lsl #8
8780a07c:	20000600 	andcs	r0, r0, r0, lsl #12
8780a080:	e0ff0300 	rscs	r0, pc, r0, lsl #6
8780a084:	e0ff0100 	rscs	r0, pc, r0, lsl #2
8780a088:	20000000 	andcs	r0, r0, r0
8780a08c:	20000000 	andcs	r0, r0, r0
	...
8780a0dc:	20000400 	andcs	r0, r0, r0, lsl #8
8780a0e0:	20000400 	andcs	r0, r0, r0, lsl #8
8780a0e4:	20000400 	andcs	r0, r0, r0, lsl #8
8780a0e8:	20000400 	andcs	r0, r0, r0, lsl #8
8780a0ec:	e0ff8703 	rscs	r8, pc, r3, lsl #14
8780a0f0:	e0ff8f03 	rscs	r8, pc, r3, lsl #30
8780a0f4:	20008003 	andcs	r8, r0, r3
8780a0f8:	20000000 	andcs	r0, r0, r0
8780a0fc:	20000000 	andcs	r0, r0, r0
8780a100:	20000000 	andcs	r0, r0, r0
	...
8780a15c:	06000000 	streq	r0, [r0], -r0
8780a160:	07000000 	streq	r0, [r0, -r0]
8780a164:	01000000 	mrseq	r0, (UNDEF: 0)
8780a168:	01000000 	mrseq	r0, (UNDEF: 0)
8780a16c:	01000400 	tsteq	r0, r0, lsl #8
8780a170:	01000400 	tsteq	r0, r0, lsl #8
8780a174:	03000400 	movweq	r0, #1024	; 0x400
8780a178:	06000400 	streq	r0, [r0], -r0, lsl #8
8780a17c:	fcff8703 	ldc2l	7, cr8, [pc], #12	; 8780a190 <asc2_3216+0x2540>
8780a180:	f8ff8f03 			; <UNDEFINED> instruction: 0xf8ff8f03
8780a184:	00008003 	andeq	r8, r0, r3
	...
8780a1d4:	20000002 	andcs	r0, r0, r2
8780a1d8:	20000002 	andcs	r0, r0, r2
8780a1dc:	e0ffff03 	rscs	pc, pc, r3, lsl #30
8780a1e0:	e0ffff07 	rscs	pc, pc, r7, lsl #30
8780a1e4:	20080000 	andcs	r0, r8, r0
8780a1e8:	20100000 	andscs	r0, r0, r0
8780a1ec:	00300000 	eorseq	r0, r0, r0
8780a1f0:	00fc0000 	rscseq	r0, ip, r0
8780a1f4:	008e0500 	addeq	r0, lr, r0, lsl #10
8780a1f8:	a0070700 	andge	r0, r7, r0, lsl #14
8780a1fc:	e0010600 	and	r0, r1, r0, lsl #12
8780a200:	e0000400 	and	r0, r0, r0, lsl #8
8780a204:	20000400 	andcs	r0, r0, r0, lsl #8
8780a208:	20000000 	andcs	r0, r0, r0
	...
8780a25c:	20000002 	andcs	r0, r0, r2
8780a260:	20000002 	andcs	r0, r0, r2
8780a264:	20000002 	andcs	r0, r0, r2
8780a268:	20000002 	andcs	r0, r0, r2
8780a26c:	e0ffff03 	rscs	pc, pc, r3, lsl #30
8780a270:	e0ffff07 	rscs	pc, pc, r7, lsl #30
8780a274:	20000000 	andcs	r0, r0, r0
8780a278:	20000000 	andcs	r0, r0, r0
8780a27c:	20000000 	andcs	r0, r0, r0
8780a280:	20000000 	andcs	r0, r0, r0
	...
8780a2d4:	20000400 	andcs	r0, r0, r0, lsl #8
8780a2d8:	e0ff0700 	rscs	r0, pc, r0, lsl #14
8780a2dc:	e0ff0f00 	rscs	r0, pc, r0, lsl #30
8780a2e0:	20000200 	andcs	r0, r0, r0, lsl #4
8780a2e4:	00000400 	andeq	r0, r0, r0, lsl #8
8780a2e8:	20000400 	andcs	r0, r0, r0, lsl #8
8780a2ec:	e0ff0700 	rscs	r0, pc, r0, lsl #14
8780a2f0:	e0ff0300 	rscs	r0, pc, r0, lsl #6
8780a2f4:	20000200 	andcs	r0, r0, r0, lsl #4
8780a2f8:	00000400 	andeq	r0, r0, r0, lsl #8
8780a2fc:	20000400 	andcs	r0, r0, r0, lsl #8
8780a300:	e0ff0700 	rscs	r0, pc, r0, lsl #14
8780a304:	e0ff0300 	rscs	r0, pc, r0, lsl #6
8780a308:	20000000 	andcs	r0, r0, r0
	...
8780a354:	20000400 	andcs	r0, r0, r0, lsl #8
8780a358:	20000400 	andcs	r0, r0, r0, lsl #8
8780a35c:	e0ff0700 	rscs	r0, pc, r0, lsl #14
8780a360:	e0ff0f00 	rscs	r0, pc, r0, lsl #30
8780a364:	20000100 	andcs	r0, r0, r0, lsl #2
8780a368:	20000200 	andcs	r0, r0, r0, lsl #4
8780a36c:	00000200 	andeq	r0, r0, r0, lsl #4
8780a370:	00000400 	andeq	r0, r0, r0, lsl #8
8780a374:	00000400 	andeq	r0, r0, r0, lsl #8
8780a378:	20000400 	andcs	r0, r0, r0, lsl #8
8780a37c:	20000600 	andcs	r0, r0, r0, lsl #12
8780a380:	e0ff0300 	rscs	r0, pc, r0, lsl #6
8780a384:	e0ff0100 	rscs	r0, pc, r0, lsl #2
8780a388:	20000000 	andcs	r0, r0, r0
8780a38c:	20000000 	andcs	r0, r0, r0
	...
8780a3d8:	007e0000 	rsbseq	r0, lr, r0
8780a3dc:	80ff0000 	rscshi	r0, pc, r0
8780a3e0:	c0810300 	addgt	r0, r1, r0, lsl #6
8780a3e4:	40000200 	andmi	r0, r0, r0, lsl #4
8780a3e8:	20000600 	andcs	r0, r0, r0, lsl #12
8780a3ec:	20000400 	andcs	r0, r0, r0, lsl #8
8780a3f0:	20000400 	andcs	r0, r0, r0, lsl #8
8780a3f4:	20000400 	andcs	r0, r0, r0, lsl #8
8780a3f8:	20000600 	andcs	r0, r0, r0, lsl #12
8780a3fc:	40000200 	andmi	r0, r0, r0, lsl #4
8780a400:	c0810300 	addgt	r0, r1, r0, lsl #6
8780a404:	80ff0100 	rscshi	r0, pc, r0, lsl #2
8780a408:	007e0000 	rsbseq	r0, lr, r0
	...
8780a454:	01000400 	tsteq	r0, r0, lsl #8
8780a458:	01000400 	tsteq	r0, r0, lsl #8
8780a45c:	ffff0700 			; <UNDEFINED> instruction: 0xffff0700
8780a460:	ffff0f00 			; <UNDEFINED> instruction: 0xffff0f00
8780a464:	c1000100 	mrsgt	r0, (UNDEF: 16)
8780a468:	41000200 	mrsmi	r0, R8_usr
8780a46c:	20000400 	andcs	r0, r0, r0, lsl #8
8780a470:	20000400 	andcs	r0, r0, r0, lsl #8
8780a474:	20000400 	andcs	r0, r0, r0, lsl #8
8780a478:	20000400 	andcs	r0, r0, r0, lsl #8
8780a47c:	40000600 	andmi	r0, r0, r0, lsl #12
8780a480:	c0010300 	andgt	r0, r1, r0, lsl #6
8780a484:	80ff0100 	rscshi	r0, pc, r0, lsl #2
8780a488:	007e0000 	rsbseq	r0, lr, r0
	...
8780a4d8:	007e0000 	rsbseq	r0, lr, r0
8780a4dc:	80ff0100 	rscshi	r0, pc, r0, lsl #2
8780a4e0:	c0800300 	addgt	r0, r0, r0, lsl #6
8780a4e4:	60000200 	andvs	r0, r0, r0, lsl #4
8780a4e8:	20000400 	andcs	r0, r0, r0, lsl #8
8780a4ec:	20000400 	andcs	r0, r0, r0, lsl #8
8780a4f0:	20000400 	andcs	r0, r0, r0, lsl #8
8780a4f4:	20000400 	andcs	r0, r0, r0, lsl #8
8780a4f8:	41000200 	mrsmi	r0, R8_usr
8780a4fc:	c1000300 	mrsgt	r0, LR_irq
8780a500:	ffff0300 			; <UNDEFINED> instruction: 0xffff0300
8780a504:	ffff0700 			; <UNDEFINED> instruction: 0xffff0700
8780a508:	01000000 	mrseq	r0, (UNDEF: 0)
8780a50c:	01000000 	mrseq	r0, (UNDEF: 0)
	...
8780a554:	20000400 	andcs	r0, r0, r0, lsl #8
8780a558:	20000400 	andcs	r0, r0, r0, lsl #8
8780a55c:	20000400 	andcs	r0, r0, r0, lsl #8
8780a560:	20000400 	andcs	r0, r0, r0, lsl #8
8780a564:	e0ff0f00 	rscs	r0, pc, r0, lsl #30
8780a568:	e0ff0f00 	rscs	r0, pc, r0, lsl #30
8780a56c:	20c00000 	sbccs	r0, r0, r0
8780a570:	20000100 	andcs	r0, r0, r0, lsl #2
8780a574:	20000200 	andcs	r0, r0, r0, lsl #4
8780a578:	20000600 	andcs	r0, r0, r0, lsl #12
8780a57c:	00000400 	andeq	r0, r0, r0, lsl #8
8780a580:	00000400 	andeq	r0, r0, r0, lsl #8
8780a584:	00000700 	andeq	r0, r0, r0, lsl #14
8780a588:	00000300 	andeq	r0, r0, r0, lsl #6
	...
8780a5d8:	e0030000 	and	r0, r3, r0
8780a5dc:	e0c00100 	sbc	r0, r0, r0, lsl #2
8780a5e0:	40e00300 	rscmi	r0, r0, r0, lsl #6
8780a5e4:	20300600 	eorscs	r0, r0, r0, lsl #12
8780a5e8:	20300400 	eorscs	r0, r0, r0, lsl #8
8780a5ec:	20180400 	andscs	r0, r8, r0, lsl #8
8780a5f0:	20180400 	andscs	r0, r8, r0, lsl #8
8780a5f4:	20180400 	andscs	r0, r8, r0, lsl #8
8780a5f8:	200c0400 	andcs	r0, ip, r0, lsl #8
8780a5fc:	600c0200 	andvs	r0, ip, r0, lsl #4
8780a600:	c0070300 	andgt	r0, r7, r0, lsl #6
8780a604:	80830700 	addhi	r0, r3, r0, lsl #14
	...
8780a658:	00000400 	andeq	r0, r0, r0, lsl #8
8780a65c:	00000400 	andeq	r0, r0, r0, lsl #8
8780a660:	00000400 	andeq	r0, r0, r0, lsl #8
8780a664:	00000c00 	andeq	r0, r0, r0, lsl #24
8780a668:	80ff1f00 	rscshi	r1, pc, r0, lsl #30
8780a66c:	c0ffff00 	rscsgt	pc, pc, r0, lsl #30
8780a670:	60000400 	andvs	r0, r0, r0, lsl #8
8780a674:	20000400 	andcs	r0, r0, r0, lsl #8
8780a678:	20000400 	andcs	r0, r0, r0, lsl #8
8780a67c:	20000400 	andcs	r0, r0, r0, lsl #8
8780a680:	40000400 	andmi	r0, r0, r0, lsl #8
8780a684:	80010000 	andhi	r0, r1, r0
	...
8780a6d4:	00000400 	andeq	r0, r0, r0, lsl #8
8780a6d8:	00000400 	andeq	r0, r0, r0, lsl #8
8780a6dc:	80ff0700 	rscshi	r0, pc, r0, lsl #14
8780a6e0:	c0ff0f00 	rscsgt	r0, pc, r0, lsl #30
8780a6e4:	60000000 	andvs	r0, r0, r0
8780a6e8:	20000000 	andcs	r0, r0, r0
8780a6ec:	20000000 	andcs	r0, r0, r0
8780a6f0:	20000000 	andcs	r0, r0, r0
8780a6f4:	20000000 	andcs	r0, r0, r0
8780a6f8:	40000400 	andmi	r0, r0, r0, lsl #8
8780a6fc:	80000400 	andhi	r0, r0, r0, lsl #8
8780a700:	e0ff0700 	rscs	r0, pc, r0, lsl #14
8780a704:	c0ff0f00 	rscsgt	r0, pc, r0, lsl #30
8780a708:	40000000 	andmi	r0, r0, r0
8780a70c:	40000000 	andmi	r0, r0, r0
	...
8780a754:	00000400 	andeq	r0, r0, r0, lsl #8
8780a758:	00000400 	andeq	r0, r0, r0, lsl #8
8780a75c:	00800700 	addeq	r0, r0, r0, lsl #14
8780a760:	00f00700 	rscseq	r0, r0, r0, lsl #14
8780a764:	00fe0400 	rscseq	r0, lr, r0, lsl #8
8780a768:	c01f0400 	andsgt	r0, pc, r0, lsl #8
8780a76c:	e0030000 	and	r0, r3, r0
8780a770:	80030000 	andhi	r0, r3, r0
8780a774:	001c0000 	andseq	r0, ip, r0
8780a778:	00600400 	rsbeq	r0, r0, r0, lsl #8
8780a77c:	00800700 	addeq	r0, r0, r0, lsl #14
8780a780:	00000600 	andeq	r0, r0, r0, lsl #12
8780a784:	00000400 	andeq	r0, r0, r0, lsl #8
	...
8780a7d0:	00000400 	andeq	r0, r0, r0, lsl #8
8780a7d4:	00000600 	andeq	r0, r0, r0, lsl #12
8780a7d8:	00c00700 	sbceq	r0, r0, r0, lsl #14
8780a7dc:	00fc0700 	rscseq	r0, ip, r0, lsl #14
8780a7e0:	803f0400 	eorshi	r0, pc, r0, lsl #8
8780a7e4:	e0030000 	and	r0, r3, r0
8780a7e8:	800f0400 	andhi	r0, pc, r0, lsl #8
8780a7ec:	00f00600 	rscseq	r0, r0, r0, lsl #12
8780a7f0:	00f00700 	rscseq	r0, r0, r0, lsl #14
8780a7f4:	80ff0700 	rscshi	r0, pc, r0, lsl #14
8780a7f8:	e00f0400 	and	r0, pc, r0, lsl #8
8780a7fc:	80030000 	andhi	r0, r3, r0
8780a800:	003c0400 	eorseq	r0, ip, r0, lsl #8
8780a804:	00c00700 	sbceq	r0, r0, r0, lsl #14
8780a808:	00000600 	andeq	r0, r0, r0, lsl #12
8780a80c:	00000400 	andeq	r0, r0, r0, lsl #8
	...
8780a854:	20000000 	andcs	r0, r0, r0
8780a858:	20000400 	andcs	r0, r0, r0, lsl #8
8780a85c:	60000400 	andvs	r0, r0, r0, lsl #8
8780a860:	e0000700 	and	r0, r0, r0, lsl #14
8780a864:	20830700 	addcs	r0, r3, r0, lsl #14
8780a868:	00e60700 	rsceq	r0, r6, r0, lsl #14
8780a86c:	00f80400 	rscseq	r0, r8, r0, lsl #8
8780a870:	003c0000 	eorseq	r0, ip, r0
8780a874:	205e0400 	subscs	r0, lr, r0, lsl #8
8780a878:	a0870500 	addge	r0, r7, r0, lsl #10
8780a87c:	e0010600 	and	r0, r1, r0, lsl #12
8780a880:	60000400 	andvs	r0, r0, r0, lsl #8
8780a884:	20000400 	andcs	r0, r0, r0, lsl #8
8780a888:	20000000 	andcs	r0, r0, r0
	...
8780a8d4:	00000400 	andeq	r0, r0, r0, lsl #8
8780a8d8:	03000400 	movweq	r0, #1024	; 0x400
8780a8dc:	03000700 	movweq	r0, #1792	; 0x700
8780a8e0:	01e00700 	mvneq	r0, r0, lsl #14
8780a8e4:	01f80400 	mvnseq	r0, r0, lsl #8
8780a8e8:	021f0400 	andseq	r0, pc, #0, 8
8780a8ec:	fc070000 	stc2	0, cr0, [r7], {-0}
8780a8f0:	e0000000 	and	r0, r0, r0
8780a8f4:	00070000 	andeq	r0, r7, r0
8780a8f8:	00380400 	eorseq	r0, r8, r0, lsl #8
8780a8fc:	00c00700 	sbceq	r0, r0, r0, lsl #14
8780a900:	00000600 	andeq	r0, r0, r0, lsl #12
8780a904:	00000400 	andeq	r0, r0, r0, lsl #8
8780a908:	00000400 	andeq	r0, r0, r0, lsl #8
	...
8780a958:	60800700 	addvs	r0, r0, r0, lsl #14
8780a95c:	e0000600 	and	r0, r0, r0, lsl #12
8780a960:	e0030400 	and	r0, r3, r0, lsl #8
8780a964:	a0070400 	andge	r0, r7, r0, lsl #8
8780a968:	200e0400 	andcs	r0, lr, r0, lsl #8
8780a96c:	203c0400 	eorscs	r0, ip, r0, lsl #8
8780a970:	20700400 	rsbscs	r0, r0, r0, lsl #8
8780a974:	20e00500 	rsccs	r0, r0, r0, lsl #10
8780a978:	20800700 	addcs	r0, r0, r0, lsl #14
8780a97c:	60000700 	andvs	r0, r0, r0, lsl #14
8780a980:	e0000400 	and	r0, r0, r0, lsl #8
8780a984:	80030000 	andhi	r0, r3, r0
	...
8780a9ec:	00800000 	addeq	r0, r0, r0
8780a9f0:	00800000 	addeq	r0, r0, r0
8780a9f4:	00400100 	subeq	r0, r0, r0, lsl #2
8780a9f8:	f83ffe07 			; <UNDEFINED> instruction: 0xf83ffe07
8780a9fc:	04000008 	streq	r0, [r0], #-8
8780aa00:	02000010 	andeq	r0, r0, #16
8780aa04:	02000010 	andeq	r0, r0, #16
	...
8780aa70:	ffffffff 			; <UNDEFINED> instruction: 0xffffffff
	...
8780aad8:	02000010 	andeq	r0, r0, #16
8780aadc:	02000010 	andeq	r0, r0, #16
8780aae0:	04000008 	streq	r0, [r0], #-8
8780aae4:	f83ffe07 			; <UNDEFINED> instruction: 0xf83ffe07
8780aae8:	00400100 	subeq	r0, r0, r0, lsl #2
8780aaec:	00800000 	addeq	r0, r0, r0
8780aaf0:	00800000 	addeq	r0, r0, r0
	...
8780ab54:	00000018 	andeq	r0, r0, r8, lsl r0
8780ab58:	00000030 	andeq	r0, r0, r0, lsr r0
8780ab5c:	00000040 	andeq	r0, r0, r0, asr #32
8780ab60:	00000040 	andeq	r0, r0, r0, asr #32
8780ab64:	00000040 	andeq	r0, r0, r0, asr #32
8780ab68:	00000020 	andeq	r0, r0, r0, lsr #32
8780ab6c:	00000030 	andeq	r0, r0, r0, lsr r0
8780ab70:	00000008 	andeq	r0, r0, r8
8780ab74:	00000004 	andeq	r0, r0, r4
8780ab78:	00000002 	andeq	r0, r0, r2
8780ab7c:	00000002 	andeq	r0, r0, r2
8780ab80:	00000002 	andeq	r0, r0, r2
8780ab84:	0000000c 	andeq	r0, r0, ip
8780ab88:	00000018 	andeq	r0, r0, r8, lsl r0
	...
8780abd0:	2044434c 	subcs	r4, r4, ip, asr #6
8780abd4:	253d4449 	ldrcs	r4, [sp, #-1097]!	; 0x449
8780abd8:	0a0d5823 	beq	87b60c6c <__bss_end+0x348888>
8780abdc:	00000000 	andeq	r0, r0, r0

8780abe0 <CSWTCH.11>:
8780abe0:	00000004 	andeq	r0, r0, r4
8780abe4:	00000003 	andeq	r0, r0, r3
8780abe8:	00000002 	andeq	r0, r0, r2
8780abec:	00000001 	andeq	r0, r0, r1
8780abf0:	00000000 	andeq	r0, r0, r0
8780abf4:	00000006 	andeq	r0, r0, r6

8780abf8 <FreeRTOSDebugConfig>:
8780abf8:	00090101 	andeq	r0, r9, r1, lsl #2
8780abfc:	04000400 	streq	r0, [r0], #-1024	; 0x400
8780ac00:	4c343018 	ldcmi	0, cr3, [r4], #-96	; 0xffffffa0
8780ac04:	00051450 	andeq	r1, r5, r0, asr r4
8780ac08:	454c4449 	strbmi	r4, [ip, #-1097]	; 0x449
8780ac0c:	00000000 	andeq	r0, r0, r0

8780ac10 <ulMaxAPIPriorityMask>:
8780ac10:	000000a0 	andeq	r0, r0, r0, lsr #1

8780ac14 <ulICCPMR>:
8780ac14:	00a02004 	adceq	r2, r0, r4

8780ac18 <ulICCEOIR>:
8780ac18:	00a02010 	adceq	r2, r0, r0, lsl r0

8780ac1c <ulICCIAR>:
8780ac1c:	00a0200c 	adceq	r2, r0, ip

8780ac20 <digits.8756>:
8780ac20:	33323130 	teqcc	r2, #48, 2
8780ac24:	37363534 			; <UNDEFINED> instruction: 0x37363534
8780ac28:	42413938 	submi	r3, r1, #56, 18	; 0xe0000
8780ac2c:	46454443 	strbmi	r4, [r5], -r3, asr #8
8780ac30:	4c554e3c 	mrrcmi	14, 3, r4, r5, cr12
8780ac34:	00003e4c 	andeq	r3, r0, ip, asr #28

Disassembly of section .ARM.exidx:

8780ac38 <.ARM.exidx>:
8780ac38:	7fffb544 	svcvc	0x00ffb544
8780ac3c:	00000001 	andeq	r0, r0, r1

Disassembly of section .data:

8780ac40 <SystemCoreClock>:
8780ac40:	1f78a400 	svcne	0x0078a400

8780ac44 <release.8605>:
8780ac44:	00000001 	andeq	r0, r0, r1

8780ac48 <ulCriticalNesting>:
8780ac48:	0000270f 	andeq	r2, r0, pc, lsl #14

8780ac4c <_ctype>:
8780ac4c:	08080808 	stmdaeq	r8, {r3, fp}
8780ac50:	08080808 	stmdaeq	r8, {r3, fp}
8780ac54:	28282808 	stmdacs	r8!, {r3, fp, sp}
8780ac58:	08082828 	stmdaeq	r8, {r3, r5, fp, sp}
8780ac5c:	08080808 	stmdaeq	r8, {r3, fp}
8780ac60:	08080808 	stmdaeq	r8, {r3, fp}
8780ac64:	08080808 	stmdaeq	r8, {r3, fp}
8780ac68:	08080808 	stmdaeq	r8, {r3, fp}
8780ac6c:	101010a0 	andsne	r1, r0, r0, lsr #1
8780ac70:	10101010 	andsne	r1, r0, r0, lsl r0
8780ac74:	10101010 	andsne	r1, r0, r0, lsl r0
8780ac78:	10101010 	andsne	r1, r0, r0, lsl r0
8780ac7c:	04040404 	streq	r0, [r4], #-1028	; 0x404
8780ac80:	04040404 	streq	r0, [r4], #-1028	; 0x404
8780ac84:	10100404 	andsne	r0, r0, r4, lsl #8
8780ac88:	10101010 	andsne	r1, r0, r0, lsl r0
8780ac8c:	41414110 	cmpmi	r1, r0, lsl r1
8780ac90:	01414141 	cmpeq	r1, r1, asr #2
8780ac94:	01010101 	tsteq	r1, r1, lsl #2
8780ac98:	01010101 	tsteq	r1, r1, lsl #2
8780ac9c:	01010101 	tsteq	r1, r1, lsl #2
8780aca0:	01010101 	tsteq	r1, r1, lsl #2
8780aca4:	10010101 	andne	r0, r1, r1, lsl #2
8780aca8:	10101010 	andsne	r1, r0, r0, lsl r0
8780acac:	42424210 	submi	r4, r2, #16, 4
8780acb0:	02424242 	subeq	r4, r2, #536870916	; 0x20000004
8780acb4:	02020202 	andeq	r0, r2, #536870912	; 0x20000000
8780acb8:	02020202 	andeq	r0, r2, #536870912	; 0x20000000
8780acbc:	02020202 	andeq	r0, r2, #536870912	; 0x20000000
8780acc0:	02020202 	andeq	r0, r2, #536870912	; 0x20000000
8780acc4:	10020202 	andne	r0, r2, r2, lsl #4
8780acc8:	08101010 	ldmdaeq	r0, {r4, ip}
	...
8780acec:	101010a0 	andsne	r1, r0, r0, lsr #1
8780acf0:	10101010 	andsne	r1, r0, r0, lsl r0
8780acf4:	10101010 	andsne	r1, r0, r0, lsl r0
8780acf8:	10101010 	andsne	r1, r0, r0, lsl r0
8780acfc:	10101010 	andsne	r1, r0, r0, lsl r0
8780ad00:	10101010 	andsne	r1, r0, r0, lsl r0
8780ad04:	10101010 	andsne	r1, r0, r0, lsl r0
8780ad08:	10101010 	andsne	r1, r0, r0, lsl r0
8780ad0c:	01010101 	tsteq	r1, r1, lsl #2
8780ad10:	01010101 	tsteq	r1, r1, lsl #2
8780ad14:	01010101 	tsteq	r1, r1, lsl #2
8780ad18:	01010101 	tsteq	r1, r1, lsl #2
8780ad1c:	01010101 	tsteq	r1, r1, lsl #2
8780ad20:	10010101 	andne	r0, r1, r1, lsl #2
8780ad24:	01010101 	tsteq	r1, r1, lsl #2
8780ad28:	02010101 	andeq	r0, r1, #1073741824	; 0x40000000
8780ad2c:	02020202 	andeq	r0, r2, #536870912	; 0x20000000
8780ad30:	02020202 	andeq	r0, r2, #536870912	; 0x20000000
8780ad34:	02020202 	andeq	r0, r2, #536870912	; 0x20000000
8780ad38:	02020202 	andeq	r0, r2, #536870912	; 0x20000000
8780ad3c:	02020202 	andeq	r0, r2, #536870912	; 0x20000000
8780ad40:	10020202 	andne	r0, r2, r2, lsl #4
8780ad44:	02020202 	andeq	r0, r2, #536870912	; 0x20000000
8780ad48:	02020202 	andeq	r0, r2, #536870912	; 0x20000000

Disassembly of section .bss:

8780ad4c <lcd_current_line>:
8780ad4c:	00000000 	andeq	r0, r0, r0

8780ad50 <irqTable>:
	...

8780b250 <irqNesting>:
8780b250:	00000000 	andeq	r0, r0, r0

8780b254 <xTickCount>:
8780b254:	00000000 	andeq	r0, r0, r0

8780b258 <pxCurrentTCB>:
8780b258:	00000000 	andeq	r0, r0, r0

8780b25c <uxTopReadyPriority>:
8780b25c:	00000000 	andeq	r0, r0, r0

8780b260 <xSuspendedTaskList>:
	...

8780b274 <pxOverflowDelayedTaskList>:
8780b274:	00000000 	andeq	r0, r0, r0

8780b278 <pxDelayedTaskList>:
8780b278:	00000000 	andeq	r0, r0, r0

8780b27c <xNextTaskUnblockTime>:
8780b27c:	00000000 	andeq	r0, r0, r0

8780b280 <xPendingReadyList>:
	...

8780b294 <uxCurrentNumberOfTasks>:
8780b294:	00000000 	andeq	r0, r0, r0

8780b298 <pxReadyTasksLists>:
	...

8780b2fc <xDelayedTaskList1>:
	...

8780b310 <xDelayedTaskList2>:
	...

8780b324 <xTasksWaitingTermination>:
	...

8780b338 <xSchedulerRunning>:
8780b338:	00000000 	andeq	r0, r0, r0

8780b33c <uxTaskNumber>:
8780b33c:	00000000 	andeq	r0, r0, r0

8780b340 <uxDeletedTasksWaitingCleanUp>:
8780b340:	00000000 	andeq	r0, r0, r0

8780b344 <uxSchedulerSuspended>:
8780b344:	00000000 	andeq	r0, r0, r0

8780b348 <xIdleTaskHandle>:
8780b348:	00000000 	andeq	r0, r0, r0

8780b34c <xNumOfOverflows>:
8780b34c:	00000000 	andeq	r0, r0, r0

8780b350 <uxPendedTicks>:
8780b350:	00000000 	andeq	r0, r0, r0

8780b354 <xYieldPending>:
8780b354:	00000000 	andeq	r0, r0, r0

8780b358 <ulPortYieldRequired>:
8780b358:	00000000 	andeq	r0, r0, r0

8780b35c <ulPortTaskHasFPUContext>:
8780b35c:	00000000 	andeq	r0, r0, r0

8780b360 <ulPortInterruptNesting>:
8780b360:	00000000 	andeq	r0, r0, r0

8780b364 <xStart>:
	...

8780b36c <pxEnd>:
8780b36c:	00000000 	andeq	r0, r0, r0

8780b370 <xBlockAllocatedBit>:
8780b370:	00000000 	andeq	r0, r0, r0

8780b374 <ucHeap>:
	...

87816e0c <.LANCHOR1>:
	...

87817b74 <xMinimumEverFreeBytesRemaining>:
87817b74:	00000000 	andeq	r0, r0, r0

87817b78 <xFreeBytesRemaining>:
87817b78:	00000000 	andeq	r0, r0, r0

87817b7c <g_pcOutBuf>:
	...

87817f7c <g_pcInBuf>:
	...

8781837c <tftlcd_dev>:
	...

878183a0 <xQueueRegistry>:
	...

878183e0 <___strtok>:
878183e0:	00000000 	andeq	r0, r0, r0

Disassembly of section .ARM.attributes:

00000000 <.ARM.attributes>:
   0:	00003241 	andeq	r3, r0, r1, asr #4
   4:	61656100 	cmnvs	r5, r0, lsl #2
   8:	01006962 	tsteq	r0, r2, ror #18
   c:	00000028 	andeq	r0, r0, r8, lsr #32
  10:	412d3705 	teqmi	sp, r5, lsl #14
  14:	070a0600 	streq	r0, [sl, -r0, lsl #12]
  18:	09010841 	stmdbeq	r1, {r0, r6, fp}
  1c:	0c050a02 	stceq	10, cr0, [r5], {2}
  20:	14041202 	strne	r1, [r4], #-514	; 0x202
  24:	17011501 	strne	r1, [r1, -r1, lsl #10]
  28:	1a011803 	bne	4603c <SYS_MODE+0x4601d>
  2c:	1c031b02 	stcne	11, cr1, [r3], {2}
  30:	地址 0x0000000000000030 越界。


Disassembly of section .comment:

00000000 <.comment>:
   0:	3a434347 	bcc	10d0d24 <SYS_MODE+0x10d0d05>
   4:	694c2820 	stmdbvs	ip, {r5, fp, sp}^
   8:	6f72616e 	svcvs	0x0072616e
   c:	43434720 	movtmi	r4, #14112	; 0x3720
  10:	392e3420 	stmdbcc	lr!, {r5, sl, ip, sp}
  14:	3130322d 	teqcc	r0, sp, lsr #4
  18:	31302e37 	teqcc	r0, r7, lsr lr
  1c:	2e342029 	cdpcs	0, 3, cr2, cr4, cr9, {1}
  20:	00342e39 	eorseq	r2, r4, r9, lsr lr

Disassembly of section .debug_frame:

00000000 <.debug_frame>:
   0:	0000000c 	andeq	r0, r0, ip
   4:	ffffffff 			; <UNDEFINED> instruction: 0xffffffff
   8:	7c010001 	stcvc	0, cr0, [r1], {1}
   c:	000d0c0e 	andeq	r0, sp, lr, lsl #24
  10:	0000000c 	andeq	r0, r0, ip
  14:	00000000 	andeq	r0, r0, r0
  18:	87805ec9 	strhi	r5, [r0, r9, asr #29]
  1c:	0000025c 	andeq	r0, r0, ip, asr r2
  20:	0000000c 	andeq	r0, r0, ip
  24:	ffffffff 			; <UNDEFINED> instruction: 0xffffffff
  28:	7c020001 	stcvc	0, cr0, [r2], {1}
  2c:	000d0c0e 	andeq	r0, sp, lr, lsl #24
  30:	00000018 	andeq	r0, r0, r8, lsl r0
  34:	00000020 	andeq	r0, r0, r0, lsr #32
  38:	87806140 	strhi	r6, [r0, r0, asr #2]
  3c:	00000030 	andeq	r0, r0, r0, lsr r0
  40:	8e100e50 	mrchi	14, 0, r0, cr0, cr0, {2}
  44:	0ece4703 	cdpeq	7, 12, cr4, cr14, cr3, {0}
  48:	00000010 	andeq	r0, r0, r0, lsl r0
  4c:	0000000c 	andeq	r0, r0, ip
  50:	ffffffff 			; <UNDEFINED> instruction: 0xffffffff
  54:	7c020001 	stcvc	0, cr0, [r2], {1}
  58:	000d0c0e 	andeq	r0, sp, lr, lsl #24
  5c:	00000020 	andeq	r0, r0, r0, lsr #32
  60:	0000004c 	andeq	r0, r0, ip, asr #32
  64:	8780617c 			; <UNDEFINED> instruction: 0x8780617c
  68:	00000116 	andeq	r0, r0, r6, lsl r1
  6c:	841c0e42 	ldrhi	r0, [ip], #-3650	; 0xe42
  70:	86068507 	strhi	r8, [r6], -r7, lsl #10
  74:	88048705 	stmdahi	r4, {r0, r2, r8, r9, sl, pc}
  78:	8e028903 	cdphi	9, 0, cr8, cr2, cr3, {0}
  7c:	00000001 	andeq	r0, r0, r1

Disassembly of section .debug_line:

00000000 <.debug_line>:
   0:	00000100 	andeq	r0, r0, r0, lsl #2
   4:	00c70002 	sbceq	r0, r7, r2
   8:	01020000 	mrseq	r0, (UNDEF: 2)
   c:	000d0efb 	strdeq	r0, [sp], -fp
  10:	01010101 	tsteq	r1, r1, lsl #2
  14:	01000000 	mrseq	r0, (UNDEF: 0)
  18:	2f010000 	svccs	0x00010000
  1c:	656d6f68 	strbvs	r6, [sp, #-3944]!	; 0xf68
  20:	7763742f 	strbvc	r7, [r3, -pc, lsr #8]!
  24:	75622d67 	strbvc	r2, [r2, #-3431]!	; 0xd67
  28:	73646c69 	cmnvc	r4, #26880	; 0x6900
  2c:	6576616c 	ldrbvs	r6, [r6, #-364]!	; 0x16c
  30:	726f772f 	rsbvc	r7, pc, #12320768	; 0xbc0000
  34:	6170736b 	cmnvs	r0, fp, ror #6
  38:	742f6563 	strtvc	r6, [pc], #-1379	; 40 <SYS_MODE+0x21>
  3c:	2d677763 	stclcs	7, cr7, [r7, #-396]!	; 0xfffffe74
  40:	656b616d 	strbvs	r6, [fp, #-365]!	; 0x16d
  44:	6c65722d 	sfmvs	f7, 2, [r5], #-180	; 0xffffff4c
  48:	65736165 	ldrbvs	r6, [r3, #-357]!	; 0x165
  4c:	62616c2f 	rsbvs	r6, r1, #12032	; 0x2f00
  50:	642f6c65 	strtvs	r6, [pc], #-3173	; 58 <SYS_MODE+0x39>
  54:	656b636f 	strbvs	r6, [fp, #-879]!	; 0x36f
  58:	72742d72 	rsbsvc	r2, r4, #7296	; 0x1c80
  5c:	79747375 	ldmdbvc	r4!, {r0, r2, r4, r5, r6, r8, r9, ip, sp, lr}^
  60:	646d612d 	strbtvs	r6, [sp], #-301	; 0x12d
  64:	742d3436 	strtvc	r3, [sp], #-1078	; 0x436
  68:	2d677763 	stclcs	7, cr7, [r7, #-396]!	; 0xfffffe74
  6c:	6c697562 	cfstr64vs	mvdx7, [r9], #-392	; 0xfffffe78
  70:	61742f64 	cmnvs	r4, r4, ror #30
  74:	74656772 	strbtvc	r6, [r5], #-1906	; 0x772
  78:	6d72612f 	ldfvse	f6, [r2, #-188]!	; 0xffffff44
  7c:	6e696c2d 	cdpvs	12, 6, cr6, cr9, cr13, {1}
  80:	672d7875 			; <UNDEFINED> instruction: 0x672d7875
  84:	6165756e 	cmnvs	r5, lr, ror #10
  88:	66686962 	strbtvs	r6, [r8], -r2, ror #18
  8c:	616e732f 	cmnvs	lr, pc, lsr #6
  90:	6f687370 	svcvs	0x00687370
  94:	672f7374 			; <UNDEFINED> instruction: 0x672f7374
  98:	6c2d6363 	stcvs	3, cr6, [sp], #-396	; 0xfffffe74
  9c:	72616e69 	rsbvc	r6, r1, #1680	; 0x690
  a0:	2e342d6f 	cdpcs	13, 3, cr2, cr4, cr15, {3}
  a4:	30322d39 	eorscc	r2, r2, r9, lsr sp
  a8:	302e3731 	eorcc	r3, lr, r1, lsr r7
  ac:	696c2f31 	stmdbvs	ip!, {r0, r4, r5, r8, r9, sl, fp, sp}^
  b0:	63636762 	cmnvs	r3, #25690112	; 0x1880000
  b4:	6e6f632f 	cdpvs	3, 6, cr6, cr15, cr15, {1}
  b8:	2f676966 	svccs	0x00676966
  bc:	006d7261 	rsbeq	r7, sp, r1, ror #4
  c0:	62696c00 	rsbvs	r6, r9, #0, 24
  c4:	6e756631 	mrcvs	6, 3, r6, cr5, cr1, {1}
  c8:	532e7363 	teqpl	lr, #-1946157055	; 0x8c000001
  cc:	00000100 	andeq	r0, r0, r0, lsl #2
  d0:	02050000 	andeq	r0, r5, #0
  d4:	87805ec8 	strhi	r5, [r0, r8, asr #29]
  d8:	0107cf03 	tsteq	r7, r3, lsl #30
  dc:	2f212121 	svccs	0x00212121
  e0:	30212f21 	eorcc	r2, r1, r1, lsr #30
  e4:	14029102 	strne	r9, [r2], #-258	; 0x102
  e8:	21212221 	teqcs	r1, r1, lsr #4
  ec:	2f4c2221 	svccs	0x004c2221
  f0:	207aeb03 	rsbscs	lr, sl, r3, lsl #22
  f4:	5805af03 	stmdapl	r5, {r0, r1, r8, r9, sl, fp, sp, pc}
  f8:	2f2f2121 	svccs	0x002f2121
  fc:	022f2f2f 	eoreq	r2, pc, #47, 30	; 0xbc
 100:	01010001 	tsteq	r1, r1
 104:	000000dd 	ldrdeq	r0, [r0], -sp
 108:	00c30002 	sbceq	r0, r3, r2
 10c:	01020000 	mrseq	r0, (UNDEF: 2)
 110:	000d0efb 	strdeq	r0, [sp], -fp
 114:	01010101 	tsteq	r1, r1, lsl #2
 118:	01000000 	mrseq	r0, (UNDEF: 0)
 11c:	2f010000 	svccs	0x00010000
 120:	656d6f68 	strbvs	r6, [sp, #-3944]!	; 0xf68
 124:	7763742f 	strbvc	r7, [r3, -pc, lsr #8]!
 128:	75622d67 	strbvc	r2, [r2, #-3431]!	; 0xd67
 12c:	73646c69 	cmnvc	r4, #26880	; 0x6900
 130:	6576616c 	ldrbvs	r6, [r6, #-364]!	; 0x16c
 134:	726f772f 	rsbvc	r7, pc, #12320768	; 0xbc0000
 138:	6170736b 	cmnvs	r0, fp, ror #6
 13c:	742f6563 	strtvc	r6, [pc], #-1379	; 144 <SYS_MODE+0x125>
 140:	2d677763 	stclcs	7, cr7, [r7, #-396]!	; 0xfffffe74
 144:	656b616d 	strbvs	r6, [fp, #-365]!	; 0x16d
 148:	6c65722d 	sfmvs	f7, 2, [r5], #-180	; 0xffffff4c
 14c:	65736165 	ldrbvs	r6, [r3, #-357]!	; 0x165
 150:	62616c2f 	rsbvs	r6, r1, #12032	; 0x2f00
 154:	642f6c65 	strtvs	r6, [pc], #-3173	; 15c <SYS_MODE+0x13d>
 158:	656b636f 	strbvs	r6, [fp, #-879]!	; 0x36f
 15c:	72742d72 	rsbsvc	r2, r4, #7296	; 0x1c80
 160:	79747375 	ldmdbvc	r4!, {r0, r2, r4, r5, r6, r8, r9, ip, sp, lr}^
 164:	646d612d 	strbtvs	r6, [sp], #-301	; 0x12d
 168:	742d3436 	strtvc	r3, [sp], #-1078	; 0x436
 16c:	2d677763 	stclcs	7, cr7, [r7, #-396]!	; 0xfffffe74
 170:	6c697562 	cfstr64vs	mvdx7, [r9], #-392	; 0xfffffe78
 174:	61742f64 	cmnvs	r4, r4, ror #30
 178:	74656772 	strbtvc	r6, [r5], #-1906	; 0x772
 17c:	6d72612f 	ldfvse	f6, [r2, #-188]!	; 0xffffff44
 180:	6e696c2d 	cdpvs	12, 6, cr6, cr9, cr13, {1}
 184:	672d7875 			; <UNDEFINED> instruction: 0x672d7875
 188:	6165756e 	cmnvs	r5, lr, ror #10
 18c:	66686962 	strbtvs	r6, [r8], -r2, ror #18
 190:	616e732f 	cmnvs	lr, pc, lsr #6
 194:	6f687370 	svcvs	0x00687370
 198:	672f7374 			; <UNDEFINED> instruction: 0x672f7374
 19c:	6c2d6363 	stcvs	3, cr6, [sp], #-396	; 0xfffffe74
 1a0:	72616e69 	rsbvc	r6, r1, #1680	; 0x690
 1a4:	2e342d6f 	cdpcs	13, 3, cr2, cr4, cr15, {3}
 1a8:	30322d39 	eorscc	r2, r2, r9, lsr sp
 1ac:	302e3731 	eorcc	r3, lr, r1, lsr r7
 1b0:	696c2f31 	stmdbvs	ip!, {r0, r4, r5, r8, r9, sl, fp, sp}^
 1b4:	63636762 	cmnvs	r3, #25690112	; 0x1880000
 1b8:	6e6f632f 	cdpvs	3, 6, cr6, cr15, cr15, {1}
 1bc:	2f676966 	svccs	0x00676966
 1c0:	006d7261 	rsbeq	r7, sp, r1, ror #4
 1c4:	61706200 	cmnvs	r0, r0, lsl #4
 1c8:	532e6962 	teqpl	lr, #1605632	; 0x188000
 1cc:	00000100 	andeq	r0, r0, r0, lsl #2
 1d0:	02050000 	andeq	r0, r5, #0
 1d4:	87806140 	strhi	r6, [r0, r0, asr #2]
 1d8:	0101fd03 	tsteq	r1, r3, lsl #26
 1dc:	592f4cbc 	stmdbpl	pc!, {r2, r3, r4, r5, r7, sl, fp, lr}	; <UNPREDICTABLE>
 1e0:	01000102 	tsteq	r0, r2, lsl #2
 1e4:	0000e301 	andeq	lr, r0, r1, lsl #6
 1e8:	c7000200 	strgt	r0, [r0, -r0, lsl #4]
 1ec:	02000000 	andeq	r0, r0, #0
 1f0:	0d0efb01 	vstreq	d15, [lr, #-4]
 1f4:	01010100 	mrseq	r0, (UNDEF: 17)
 1f8:	00000001 	andeq	r0, r0, r1
 1fc:	01000001 	tsteq	r0, r1
 200:	6d6f682f 	stclvs	8, cr6, [pc, #-188]!	; 14c <SYS_MODE+0x12d>
 204:	63742f65 	cmnvs	r4, #404	; 0x194
 208:	622d6777 	eorvs	r6, sp, #31195136	; 0x1dc0000
 20c:	646c6975 	strbtvs	r6, [ip], #-2421	; 0x975
 210:	76616c73 			; <UNDEFINED> instruction: 0x76616c73
 214:	6f772f65 	svcvs	0x00772f65
 218:	70736b72 	rsbsvc	r6, r3, r2, ror fp
 21c:	2f656361 	svccs	0x00656361
 220:	67776374 			; <UNDEFINED> instruction: 0x67776374
 224:	6b616d2d 	blvs	185b6e0 <SYS_MODE+0x185b6c1>
 228:	65722d65 	ldrbvs	r2, [r2, #-3429]!	; 0xd65
 22c:	7361656c 	cmnvc	r1, #108, 10	; 0x1b000000
 230:	616c2f65 	cmnvs	ip, r5, ror #30
 234:	2f6c6562 	svccs	0x006c6562
 238:	6b636f64 	blvs	18dbfd0 <SYS_MODE+0x18dbfb1>
 23c:	742d7265 	strtvc	r7, [sp], #-613	; 0x265
 240:	74737572 	ldrbtvc	r7, [r3], #-1394	; 0x572
 244:	6d612d79 	stclvs	13, cr2, [r1, #-484]!	; 0xfffffe1c
 248:	2d343664 	ldccs	6, cr3, [r4, #-400]!	; 0xfffffe70
 24c:	67776374 			; <UNDEFINED> instruction: 0x67776374
 250:	6975622d 	ldmdbvs	r5!, {r0, r2, r3, r5, r9, sp, lr}^
 254:	742f646c 	strtvc	r6, [pc], #-1132	; 25c <SYS_MODE+0x23d>
 258:	65677261 	strbvs	r7, [r7, #-609]!	; 0x261
 25c:	72612f74 	rsbvc	r2, r1, #116, 30	; 0x1d0
 260:	696c2d6d 	stmdbvs	ip!, {r0, r2, r3, r5, r6, r8, sl, fp, sp}^
 264:	2d78756e 	cfldr64cs	mvdx7, [r8, #-440]!	; 0xfffffe48
 268:	65756e67 	ldrbvs	r6, [r5, #-3687]!	; 0xe67
 26c:	68696261 	stmdavs	r9!, {r0, r5, r6, r9, sp, lr}^
 270:	6e732f66 	cdpvs	15, 7, cr2, cr3, cr6, {3}
 274:	68737061 	ldmdavs	r3!, {r0, r5, r6, ip, sp, lr}^
 278:	2f73746f 	svccs	0x0073746f
 27c:	2d636367 	stclcs	3, cr6, [r3, #-412]!	; 0xfffffe64
 280:	616e696c 	cmnvs	lr, ip, ror #18
 284:	342d6f72 	strtcc	r6, [sp], #-3954	; 0xf72
 288:	322d392e 	eorcc	r3, sp, #753664	; 0xb8000
 28c:	2e373130 	mrccs	1, 1, r3, cr7, cr0, {1}
 290:	6c2f3130 	stfvss	f3, [pc], #-192	; 1d8 <SYS_MODE+0x1b9>
 294:	63676269 	cmnvs	r7, #-1879048186	; 0x90000006
 298:	6f632f63 	svcvs	0x00632f63
 29c:	6769666e 	strbvs	r6, [r9, -lr, ror #12]!
 2a0:	6d72612f 	ldfvse	f6, [r2, #-188]!	; 0xffffff44
 2a4:	696c0000 	stmdbvs	ip!, {}^	; <UNPREDICTABLE>
 2a8:	75663162 	strbvc	r3, [r6, #-354]!	; 0x162
 2ac:	2e73636e 	cdpcs	3, 7, cr6, cr3, cr14, {3}
 2b0:	00010053 	andeq	r0, r1, r3, asr r0
 2b4:	05000000 	streq	r0, [r0, #-0]
 2b8:	80617002 	rsbhi	r7, r1, r2
 2bc:	0ab00387 	beq	fec010e0 <__bss_end+0x773e8cfc>
 2c0:	032f2101 	teqeq	pc, #1073741824	; 0x40000000
 2c4:	022e77bb 	eoreq	r7, lr, #49020928	; 0x2ec0000
 2c8:	01010001 	tsteq	r1, r1
 2cc:	00000113 	andeq	r0, r0, r3, lsl r1
 2d0:	00c70002 	sbceq	r0, r7, r2
 2d4:	01020000 	mrseq	r0, (UNDEF: 2)
 2d8:	000d0efb 	strdeq	r0, [sp], -fp
 2dc:	01010101 	tsteq	r1, r1, lsl #2
 2e0:	01000000 	mrseq	r0, (UNDEF: 0)
 2e4:	2f010000 	svccs	0x00010000
 2e8:	656d6f68 	strbvs	r6, [sp, #-3944]!	; 0xf68
 2ec:	7763742f 	strbvc	r7, [r3, -pc, lsr #8]!
 2f0:	75622d67 	strbvc	r2, [r2, #-3431]!	; 0xd67
 2f4:	73646c69 	cmnvc	r4, #26880	; 0x6900
 2f8:	6576616c 	ldrbvs	r6, [r6, #-364]!	; 0x16c
 2fc:	726f772f 	rsbvc	r7, pc, #12320768	; 0xbc0000
 300:	6170736b 	cmnvs	r0, fp, ror #6
 304:	742f6563 	strtvc	r6, [pc], #-1379	; 30c <SYS_MODE+0x2ed>
 308:	2d677763 	stclcs	7, cr7, [r7, #-396]!	; 0xfffffe74
 30c:	656b616d 	strbvs	r6, [fp, #-365]!	; 0x16d
 310:	6c65722d 	sfmvs	f7, 2, [r5], #-180	; 0xffffff4c
 314:	65736165 	ldrbvs	r6, [r3, #-357]!	; 0x165
 318:	62616c2f 	rsbvs	r6, r1, #12032	; 0x2f00
 31c:	642f6c65 	strtvs	r6, [pc], #-3173	; 324 <SYS_MODE+0x305>
 320:	656b636f 	strbvs	r6, [fp, #-879]!	; 0x36f
 324:	72742d72 	rsbsvc	r2, r4, #7296	; 0x1c80
 328:	79747375 	ldmdbvc	r4!, {r0, r2, r4, r5, r6, r8, r9, ip, sp, lr}^
 32c:	646d612d 	strbtvs	r6, [sp], #-301	; 0x12d
 330:	742d3436 	strtvc	r3, [sp], #-1078	; 0x436
 334:	2d677763 	stclcs	7, cr7, [r7, #-396]!	; 0xfffffe74
 338:	6c697562 	cfstr64vs	mvdx7, [r9], #-392	; 0xfffffe78
 33c:	61742f64 	cmnvs	r4, r4, ror #30
 340:	74656772 	strbtvc	r6, [r5], #-1906	; 0x772
 344:	6d72612f 	ldfvse	f6, [r2, #-188]!	; 0xffffff44
 348:	6e696c2d 	cdpvs	12, 6, cr6, cr9, cr13, {1}
 34c:	672d7875 			; <UNDEFINED> instruction: 0x672d7875
 350:	6165756e 	cmnvs	r5, lr, ror #10
 354:	66686962 	strbtvs	r6, [r8], -r2, ror #18
 358:	616e732f 	cmnvs	lr, pc, lsr #6
 35c:	6f687370 	svcvs	0x00687370
 360:	672f7374 			; <UNDEFINED> instruction: 0x672f7374
 364:	6c2d6363 	stcvs	3, cr6, [sp], #-396	; 0xfffffe74
 368:	72616e69 	rsbvc	r6, r1, #1680	; 0x690
 36c:	2e342d6f 	cdpcs	13, 3, cr2, cr4, cr15, {3}
 370:	30322d39 	eorscc	r2, r2, r9, lsr sp
 374:	302e3731 	eorcc	r3, lr, r1, lsr r7
 378:	696c2f31 	stmdbvs	ip!, {r0, r4, r5, r8, r9, sl, fp, sp}^
 37c:	63636762 	cmnvs	r3, #25690112	; 0x1880000
 380:	696c0000 	stmdbvs	ip!, {}^	; <UNPREDICTABLE>
 384:	63636762 	cmnvs	r3, #25690112	; 0x1880000
 388:	00632e32 	rsbeq	r2, r3, r2, lsr lr
 38c:	6c000001 	stcvs	0, cr0, [r0], {1}
 390:	63676269 	cmnvs	r7, #-1879048186	; 0x90000006
 394:	682e3263 	stmdavs	lr!, {r0, r1, r5, r6, r9, ip, sp}
 398:	00000100 	andeq	r0, r0, r0, lsl #2
 39c:	02050000 	andeq	r0, r5, #0
 3a0:	8780617c 			; <UNDEFINED> instruction: 0x8780617c
 3a4:	0107b003 	tsteq	r7, r3
 3a8:	200c032e 	andcs	r0, ip, lr, lsr #6
 3ac:	03207403 	teqeq	r0, #50331648	; 0x3000000
 3b0:	74033c0c 	strvc	r3, [r3], #-3084	; 0xc0c
 3b4:	0b03212e 	bleq	c8874 <SYS_MODE+0xc8855>
 3b8:	4c4b223c 	sfmmi	f2, 2, [fp], {60}	; 0x3c
 3bc:	6803f921 	stmdavs	r3, {r0, r5, r8, fp, ip, sp, lr, pc}
 3c0:	3c18033c 	ldccc	3, cr0, [r8], {60}	; 0x3c
 3c4:	81212d23 	teqhi	r1, r3, lsr #26
 3c8:	86523032 			; <UNDEFINED> instruction: 0x86523032
 3cc:	33304d29 	teqcc	r0, #2624	; 0xa40
 3d0:	214921b9 	strhcs	r2, [r9, #-25]	; 0xffffffe7
 3d4:	21320821 	teqcs	r2, r1, lsr #16
 3d8:	2e550330 	mrccs	3, 2, r0, cr5, cr0, {1}
 3dc:	05024b49 	streq	r4, [r2, #-2889]	; 0xb49
 3e0:	地址 0x00000000000003e0 越界。


Disassembly of section .debug_info:

00000000 <.debug_info>:
   0:	000001bb 			; <UNDEFINED> instruction: 0x000001bb
   4:	00000002 	andeq	r0, r0, r2
   8:	01040000 	mrseq	r0, (UNDEF: 4)
   c:	00000000 	andeq	r0, r0, r0
  10:	87805ec8 	strhi	r5, [r0, r8, asr #29]
  14:	8780613e 			; <UNDEFINED> instruction: 0x8780613e
  18:	6d6f682f 	stclvs	8, cr6, [pc, #-188]!	; ffffff64 <__bss_end+0x787e7b80>
  1c:	63742f65 	cmnvs	r4, #404	; 0x194
  20:	622d6777 	eorvs	r6, sp, #31195136	; 0x1dc0000
  24:	646c6975 	strbtvs	r6, [ip], #-2421	; 0x975
  28:	76616c73 			; <UNDEFINED> instruction: 0x76616c73
  2c:	6f772f65 	svcvs	0x00772f65
  30:	70736b72 	rsbsvc	r6, r3, r2, ror fp
  34:	2f656361 	svccs	0x00656361
  38:	67776374 			; <UNDEFINED> instruction: 0x67776374
  3c:	6b616d2d 	blvs	185b4f8 <SYS_MODE+0x185b4d9>
  40:	65722d65 	ldrbvs	r2, [r2, #-3429]!	; 0xd65
  44:	7361656c 	cmnvc	r1, #108, 10	; 0x1b000000
  48:	616c2f65 	cmnvs	ip, r5, ror #30
  4c:	2f6c6562 	svccs	0x006c6562
  50:	6b636f64 	blvs	18dbde8 <SYS_MODE+0x18dbdc9>
  54:	742d7265 	strtvc	r7, [sp], #-613	; 0x265
  58:	74737572 	ldrbtvc	r7, [r3], #-1394	; 0x572
  5c:	6d612d79 	stclvs	13, cr2, [r1, #-484]!	; 0xfffffe1c
  60:	2d343664 	ldccs	6, cr3, [r4, #-400]!	; 0xfffffe70
  64:	67776374 			; <UNDEFINED> instruction: 0x67776374
  68:	6975622d 	ldmdbvs	r5!, {r0, r2, r3, r5, r9, sp, lr}^
  6c:	742f646c 	strtvc	r6, [pc], #-1132	; 74 <SYS_MODE+0x55>
  70:	65677261 	strbvs	r7, [r7, #-609]!	; 0x261
  74:	72612f74 	rsbvc	r2, r1, #116, 30	; 0x1d0
  78:	696c2d6d 	stmdbvs	ip!, {r0, r2, r3, r5, r6, r8, sl, fp, sp}^
  7c:	2d78756e 	cfldr64cs	mvdx7, [r8, #-440]!	; 0xfffffe48
  80:	65756e67 	ldrbvs	r6, [r5, #-3687]!	; 0xe67
  84:	68696261 	stmdavs	r9!, {r0, r5, r6, r9, sp, lr}^
  88:	6e732f66 	cdpvs	15, 7, cr2, cr3, cr6, {3}
  8c:	68737061 	ldmdavs	r3!, {r0, r5, r6, ip, sp, lr}^
  90:	2f73746f 	svccs	0x0073746f
  94:	2d636367 	stclcs	3, cr6, [r3, #-412]!	; 0xfffffe64
  98:	616e696c 	cmnvs	lr, ip, ror #18
  9c:	342d6f72 	strtcc	r6, [sp], #-3954	; 0xf72
  a0:	322d392e 	eorcc	r3, sp, #753664	; 0xb8000
  a4:	2e373130 	mrccs	1, 1, r3, cr7, cr0, {1}
  a8:	6c2f3130 	stfvss	f3, [pc], #-192	; fffffff0 <__bss_end+0x787e7c0c>
  ac:	63676269 	cmnvs	r7, #-1879048186	; 0x90000006
  b0:	6f632f63 	svcvs	0x00632f63
  b4:	6769666e 	strbvs	r6, [r9, -lr, ror #12]!
  b8:	6d72612f 	ldfvse	f6, [r2, #-188]!	; 0xffffff44
  bc:	62696c2f 	rsbvs	r6, r9, #12032	; 0x2f00
  c0:	6e756631 	mrcvs	6, 3, r6, cr5, cr1, {1}
  c4:	532e7363 	teqpl	lr, #-1946157055	; 0x8c000001
  c8:	6f682f00 	svcvs	0x00682f00
  cc:	742f656d 	strtvc	r6, [pc], #-1389	; d4 <SYS_MODE+0xb5>
  d0:	2d677763 	stclcs	7, cr7, [r7, #-396]!	; 0xfffffe74
  d4:	6c697562 	cfstr64vs	mvdx7, [r9], #-392	; 0xfffffe78
  d8:	616c7364 	cmnvs	ip, r4, ror #6
  dc:	772f6576 			; <UNDEFINED> instruction: 0x772f6576
  e0:	736b726f 	cmnvc	fp, #-268435450	; 0xf0000006
  e4:	65636170 	strbvs	r6, [r3, #-368]!	; 0x170
  e8:	7763742f 	strbvc	r7, [r3, -pc, lsr #8]!
  ec:	616d2d67 	cmnvs	sp, r7, ror #26
  f0:	722d656b 	eorvc	r6, sp, #448790528	; 0x1ac00000
  f4:	61656c65 	cmnvs	r5, r5, ror #24
  f8:	6c2f6573 	cfstr32vs	mvfx6, [pc], #-460	; ffffff34 <__bss_end+0x787e7b50>
  fc:	6c656261 	sfmvs	f6, 2, [r5], #-388	; 0xfffffe7c
 100:	636f642f 	cmnvs	pc, #788529152	; 0x2f000000
 104:	2d72656b 	cfldr64cs	mvdx6, [r2, #-428]!	; 0xfffffe54
 108:	73757274 	cmnvc	r5, #116, 4	; 0x40000007
 10c:	612d7974 	teqvs	sp, r4, ror r9
 110:	3436646d 	ldrtcc	r6, [r6], #-1133	; 0x46d
 114:	7763742d 	strbvc	r7, [r3, -sp, lsr #8]!
 118:	75622d67 	strbvc	r2, [r2, #-3431]!	; 0xd67
 11c:	2f646c69 	svccs	0x00646c69
 120:	67726174 			; <UNDEFINED> instruction: 0x67726174
 124:	612f7465 	teqvs	pc, r5, ror #8
 128:	6c2d6d72 	stcvs	13, cr6, [sp], #-456	; 0xfffffe38
 12c:	78756e69 	ldmdavc	r5!, {r0, r3, r5, r6, r9, sl, fp, sp, lr}^
 130:	756e672d 	strbvc	r6, [lr, #-1837]!	; 0x72d
 134:	69626165 	stmdbvs	r2!, {r0, r2, r5, r6, r8, sp, lr}^
 138:	5f2f6668 	svcpl	0x002f6668
 13c:	6c697562 	cfstr64vs	mvdx7, [r9], #-392	; 0xfffffe78
 140:	75622f64 	strbvc	r2, [r2, #-3940]!	; 0xf64
 144:	73646c69 	cmnvc	r4, #26880	; 0x6900
 148:	3638782f 	ldrtcc	r7, [r8], -pc, lsr #16
 14c:	2d34365f 	ldccs	6, cr3, [r4, #-380]!	; 0xfffffe84
 150:	6e6b6e75 	mcrvs	14, 3, r6, cr11, cr5, {3}
 154:	2d6e776f 	stclcs	7, cr7, [lr, #-444]!	; 0xfffffe44
 158:	756e696c 	strbvc	r6, [lr, #-2412]!	; 0x96c
 15c:	6e672d78 	mcrvs	13, 3, r2, cr7, cr8, {3}
 160:	72612f75 	rsbvc	r2, r1, #468	; 0x1d4
 164:	696c2d6d 	stmdbvs	ip!, {r0, r2, r3, r5, r6, r8, sl, fp, sp}^
 168:	2d78756e 	cfldr64cs	mvdx7, [r8, #-440]!	; 0xfffffe48
 16c:	65756e67 	ldrbvs	r6, [r5, #-3687]!	; 0xe67
 170:	68696261 	stmdavs	r9!, {r0, r5, r6, r9, sp, lr}^
 174:	63672f66 	cmnvs	r7, #408	; 0x198
 178:	696c2d63 	stmdbvs	ip!, {r0, r1, r5, r6, r8, sl, fp, sp}^
 17c:	6f72616e 	svcvs	0x0072616e
 180:	392e342d 	stmdbcc	lr!, {r0, r2, r3, r5, sl, ip, sp}
 184:	3130322d 	teqcc	r0, sp, lsr #4
 188:	31302e37 	teqcc	r0, r7, lsr lr
 18c:	6174732d 	cmnvs	r4, sp, lsr #6
 190:	2f326567 	svccs	0x00326567
 194:	2d6d7261 	sfmcs	f7, 2, [sp, #-388]!	; 0xfffffe7c
 198:	756e696c 	strbvc	r6, [lr, #-2412]!	; 0x96c
 19c:	6e672d78 	mcrvs	13, 3, r2, cr7, cr8, {3}
 1a0:	62616575 	rsbvs	r6, r1, #490733568	; 0x1d400000
 1a4:	2f666869 	svccs	0x00666869
 1a8:	6762696c 	strbvs	r6, [r2, -ip, ror #18]!
 1ac:	47006363 	strmi	r6, [r0, -r3, ror #6]
 1b0:	4120554e 	teqmi	r0, lr, asr #10
 1b4:	2e322053 	mrccs	0, 1, r2, cr2, cr3, {2}
 1b8:	302e3432 	eorcc	r3, lr, r2, lsr r4
 1bc:	b7800100 	strlt	r0, [r0, r0, lsl #2]
 1c0:	02000001 	andeq	r0, r0, #1
 1c4:	00001400 	andeq	r1, r0, r0, lsl #8
 1c8:	04010400 	streq	r0, [r1], #-1024	; 0x400
 1cc:	40000001 	andmi	r0, r0, r1
 1d0:	70878061 	addvc	r8, r7, r1, rrx
 1d4:	2f878061 	svccs	0x00878061
 1d8:	656d6f68 	strbvs	r6, [sp, #-3944]!	; 0xf68
 1dc:	7763742f 	strbvc	r7, [r3, -pc, lsr #8]!
 1e0:	75622d67 	strbvc	r2, [r2, #-3431]!	; 0xd67
 1e4:	73646c69 	cmnvc	r4, #26880	; 0x6900
 1e8:	6576616c 	ldrbvs	r6, [r6, #-364]!	; 0x16c
 1ec:	726f772f 	rsbvc	r7, pc, #12320768	; 0xbc0000
 1f0:	6170736b 	cmnvs	r0, fp, ror #6
 1f4:	742f6563 	strtvc	r6, [pc], #-1379	; 1fc <SYS_MODE+0x1dd>
 1f8:	2d677763 	stclcs	7, cr7, [r7, #-396]!	; 0xfffffe74
 1fc:	656b616d 	strbvs	r6, [fp, #-365]!	; 0x16d
 200:	6c65722d 	sfmvs	f7, 2, [r5], #-180	; 0xffffff4c
 204:	65736165 	ldrbvs	r6, [r3, #-357]!	; 0x165
 208:	62616c2f 	rsbvs	r6, r1, #12032	; 0x2f00
 20c:	642f6c65 	strtvs	r6, [pc], #-3173	; 214 <SYS_MODE+0x1f5>
 210:	656b636f 	strbvs	r6, [fp, #-879]!	; 0x36f
 214:	72742d72 	rsbsvc	r2, r4, #7296	; 0x1c80
 218:	79747375 	ldmdbvc	r4!, {r0, r2, r4, r5, r6, r8, r9, ip, sp, lr}^
 21c:	646d612d 	strbtvs	r6, [sp], #-301	; 0x12d
 220:	742d3436 	strtvc	r3, [sp], #-1078	; 0x436
 224:	2d677763 	stclcs	7, cr7, [r7, #-396]!	; 0xfffffe74
 228:	6c697562 	cfstr64vs	mvdx7, [r9], #-392	; 0xfffffe78
 22c:	61742f64 	cmnvs	r4, r4, ror #30
 230:	74656772 	strbtvc	r6, [r5], #-1906	; 0x772
 234:	6d72612f 	ldfvse	f6, [r2, #-188]!	; 0xffffff44
 238:	6e696c2d 	cdpvs	12, 6, cr6, cr9, cr13, {1}
 23c:	672d7875 			; <UNDEFINED> instruction: 0x672d7875
 240:	6165756e 	cmnvs	r5, lr, ror #10
 244:	66686962 	strbtvs	r6, [r8], -r2, ror #18
 248:	616e732f 	cmnvs	lr, pc, lsr #6
 24c:	6f687370 	svcvs	0x00687370
 250:	672f7374 			; <UNDEFINED> instruction: 0x672f7374
 254:	6c2d6363 	stcvs	3, cr6, [sp], #-396	; 0xfffffe74
 258:	72616e69 	rsbvc	r6, r1, #1680	; 0x690
 25c:	2e342d6f 	cdpcs	13, 3, cr2, cr4, cr15, {3}
 260:	30322d39 	eorscc	r2, r2, r9, lsr sp
 264:	302e3731 	eorcc	r3, lr, r1, lsr r7
 268:	696c2f31 	stmdbvs	ip!, {r0, r4, r5, r8, r9, sl, fp, sp}^
 26c:	63636762 	cmnvs	r3, #25690112	; 0x1880000
 270:	6e6f632f 	cdpvs	3, 6, cr6, cr15, cr15, {1}
 274:	2f676966 	svccs	0x00676966
 278:	2f6d7261 	svccs	0x006d7261
 27c:	62617062 	rsbvs	r7, r1, #98	; 0x62
 280:	00532e69 	subseq	r2, r3, r9, ror #28
 284:	6d6f682f 	stclvs	8, cr6, [pc, #-188]!	; 1d0 <SYS_MODE+0x1b1>
 288:	63742f65 	cmnvs	r4, #404	; 0x194
 28c:	622d6777 	eorvs	r6, sp, #31195136	; 0x1dc0000
 290:	646c6975 	strbtvs	r6, [ip], #-2421	; 0x975
 294:	76616c73 			; <UNDEFINED> instruction: 0x76616c73
 298:	6f772f65 	svcvs	0x00772f65
 29c:	70736b72 	rsbsvc	r6, r3, r2, ror fp
 2a0:	2f656361 	svccs	0x00656361
 2a4:	67776374 			; <UNDEFINED> instruction: 0x67776374
 2a8:	6b616d2d 	blvs	185b764 <SYS_MODE+0x185b745>
 2ac:	65722d65 	ldrbvs	r2, [r2, #-3429]!	; 0xd65
 2b0:	7361656c 	cmnvc	r1, #108, 10	; 0x1b000000
 2b4:	616c2f65 	cmnvs	ip, r5, ror #30
 2b8:	2f6c6562 	svccs	0x006c6562
 2bc:	6b636f64 	blvs	18dc054 <SYS_MODE+0x18dc035>
 2c0:	742d7265 	strtvc	r7, [sp], #-613	; 0x265
 2c4:	74737572 	ldrbtvc	r7, [r3], #-1394	; 0x572
 2c8:	6d612d79 	stclvs	13, cr2, [r1, #-484]!	; 0xfffffe1c
 2cc:	2d343664 	ldccs	6, cr3, [r4, #-400]!	; 0xfffffe70
 2d0:	67776374 			; <UNDEFINED> instruction: 0x67776374
 2d4:	6975622d 	ldmdbvs	r5!, {r0, r2, r3, r5, r9, sp, lr}^
 2d8:	742f646c 	strtvc	r6, [pc], #-1132	; 2e0 <SYS_MODE+0x2c1>
 2dc:	65677261 	strbvs	r7, [r7, #-609]!	; 0x261
 2e0:	72612f74 	rsbvc	r2, r1, #116, 30	; 0x1d0
 2e4:	696c2d6d 	stmdbvs	ip!, {r0, r2, r3, r5, r6, r8, sl, fp, sp}^
 2e8:	2d78756e 	cfldr64cs	mvdx7, [r8, #-440]!	; 0xfffffe48
 2ec:	65756e67 	ldrbvs	r6, [r5, #-3687]!	; 0xe67
 2f0:	68696261 	stmdavs	r9!, {r0, r5, r6, r9, sp, lr}^
 2f4:	625f2f66 	subsvs	r2, pc, #408	; 0x198
 2f8:	646c6975 	strbtvs	r6, [ip], #-2421	; 0x975
 2fc:	6975622f 	ldmdbvs	r5!, {r0, r1, r2, r3, r5, r9, sp, lr}^
 300:	2f73646c 	svccs	0x0073646c
 304:	5f363878 	svcpl	0x00363878
 308:	752d3436 	strvc	r3, [sp, #-1078]!	; 0x436
 30c:	6f6e6b6e 	svcvs	0x006e6b6e
 310:	6c2d6e77 	stcvs	14, cr6, [sp], #-476	; 0xfffffe24
 314:	78756e69 	ldmdavc	r5!, {r0, r3, r5, r6, r9, sl, fp, sp, lr}^
 318:	756e672d 	strbvc	r6, [lr, #-1837]!	; 0x72d
 31c:	6d72612f 	ldfvse	f6, [r2, #-188]!	; 0xffffff44
 320:	6e696c2d 	cdpvs	12, 6, cr6, cr9, cr13, {1}
 324:	672d7875 			; <UNDEFINED> instruction: 0x672d7875
 328:	6165756e 	cmnvs	r5, lr, ror #10
 32c:	66686962 	strbtvs	r6, [r8], -r2, ror #18
 330:	6363672f 	cmnvs	r3, #12320768	; 0xbc0000
 334:	6e696c2d 	cdpvs	12, 6, cr6, cr9, cr13, {1}
 338:	2d6f7261 	sfmcs	f7, 2, [pc, #-388]!	; 1bc <SYS_MODE+0x19d>
 33c:	2d392e34 	ldccs	14, cr2, [r9, #-208]!	; 0xffffff30
 340:	37313032 			; <UNDEFINED> instruction: 0x37313032
 344:	2d31302e 	ldccs	0, cr3, [r1, #-184]!	; 0xffffff48
 348:	67617473 			; <UNDEFINED> instruction: 0x67617473
 34c:	612f3265 	teqvs	pc, r5, ror #4
 350:	6c2d6d72 	stcvs	13, cr6, [sp], #-456	; 0xfffffe38
 354:	78756e69 	ldmdavc	r5!, {r0, r3, r5, r6, r9, sl, fp, sp, lr}^
 358:	756e672d 	strbvc	r6, [lr, #-1837]!	; 0x72d
 35c:	69626165 	stmdbvs	r2!, {r0, r2, r5, r6, r8, sp, lr}^
 360:	6c2f6668 	stcvs	6, cr6, [pc], #-416	; 1c8 <SYS_MODE+0x1a9>
 364:	63676269 	cmnvs	r7, #-1879048186	; 0x90000006
 368:	4e470063 	cdpmi	0, 4, cr0, cr7, cr3, {3}
 36c:	53412055 	movtpl	r2, #4181	; 0x1055
 370:	322e3220 	eorcc	r3, lr, #32, 4
 374:	00302e34 	eorseq	r2, r0, r4, lsr lr
 378:	01bb8001 			; <UNDEFINED> instruction: 0x01bb8001
 37c:	00020000 	andeq	r0, r2, r0
 380:	00000028 	andeq	r0, r0, r8, lsr #32
 384:	01e50104 	mvneq	r0, r4, lsl #2
 388:	61700000 	cmnvs	r0, r0
 38c:	617c8780 	cmnvs	ip, r0, lsl #15
 390:	682f8780 	stmdavs	pc!, {r7, r8, r9, sl, pc}	; <UNPREDICTABLE>
 394:	2f656d6f 	svccs	0x00656d6f
 398:	67776374 			; <UNDEFINED> instruction: 0x67776374
 39c:	6975622d 	ldmdbvs	r5!, {r0, r2, r3, r5, r9, sp, lr}^
 3a0:	6c73646c 	cfldrdvs	mvd6, [r3], #-432	; 0xfffffe50
 3a4:	2f657661 	svccs	0x00657661
 3a8:	6b726f77 	blvs	1c9c18c <SYS_MODE+0x1c9c16d>
 3ac:	63617073 	cmnvs	r1, #115	; 0x73
 3b0:	63742f65 	cmnvs	r4, #404	; 0x194
 3b4:	6d2d6777 	stcvs	7, cr6, [sp, #-476]!	; 0xfffffe24
 3b8:	2d656b61 	fstmdbxcs	r5!, {d22-d69}	;@ Deprecated
 3bc:	656c6572 	strbvs	r6, [ip, #-1394]!	; 0x572
 3c0:	2f657361 	svccs	0x00657361
 3c4:	6562616c 	strbvs	r6, [r2, #-364]!	; 0x16c
 3c8:	6f642f6c 	svcvs	0x00642f6c
 3cc:	72656b63 	rsbvc	r6, r5, #101376	; 0x18c00
 3d0:	7572742d 	ldrbvc	r7, [r2, #-1069]!	; 0x42d
 3d4:	2d797473 	cfldrdcs	mvd7, [r9, #-460]!	; 0xfffffe34
 3d8:	36646d61 	strbtcc	r6, [r4], -r1, ror #26
 3dc:	63742d34 	cmnvs	r4, #52, 26	; 0xd00
 3e0:	622d6777 	eorvs	r6, sp, #31195136	; 0x1dc0000
 3e4:	646c6975 	strbtvs	r6, [ip], #-2421	; 0x975
 3e8:	7261742f 	rsbvc	r7, r1, #788529152	; 0x2f000000
 3ec:	2f746567 	svccs	0x00746567
 3f0:	2d6d7261 	sfmcs	f7, 2, [sp, #-388]!	; 0xfffffe7c
 3f4:	756e696c 	strbvc	r6, [lr, #-2412]!	; 0x96c
 3f8:	6e672d78 	mcrvs	13, 3, r2, cr7, cr8, {3}
 3fc:	62616575 	rsbvs	r6, r1, #490733568	; 0x1d400000
 400:	2f666869 	svccs	0x00666869
 404:	70616e73 	rsbvc	r6, r1, r3, ror lr
 408:	746f6873 	strbtvc	r6, [pc], #-2163	; 410 <SYS_MODE+0x3f1>
 40c:	63672f73 	cmnvs	r7, #460	; 0x1cc
 410:	696c2d63 	stmdbvs	ip!, {r0, r1, r5, r6, r8, sl, fp, sp}^
 414:	6f72616e 	svcvs	0x0072616e
 418:	392e342d 	stmdbcc	lr!, {r0, r2, r3, r5, sl, ip, sp}
 41c:	3130322d 	teqcc	r0, sp, lsr #4
 420:	31302e37 	teqcc	r0, r7, lsr lr
 424:	62696c2f 	rsbvs	r6, r9, #12032	; 0x2f00
 428:	2f636367 	svccs	0x00636367
 42c:	666e6f63 	strbtvs	r6, [lr], -r3, ror #30
 430:	612f6769 	teqvs	pc, r9, ror #14
 434:	6c2f6d72 	stcvs	13, cr6, [pc], #-456	; 274 <SYS_MODE+0x255>
 438:	66316269 	ldrtvs	r6, [r1], -r9, ror #4
 43c:	73636e75 	cmnvc	r3, #1872	; 0x750
 440:	2f00532e 	svccs	0x0000532e
 444:	656d6f68 	strbvs	r6, [sp, #-3944]!	; 0xf68
 448:	7763742f 	strbvc	r7, [r3, -pc, lsr #8]!
 44c:	75622d67 	strbvc	r2, [r2, #-3431]!	; 0xd67
 450:	73646c69 	cmnvc	r4, #26880	; 0x6900
 454:	6576616c 	ldrbvs	r6, [r6, #-364]!	; 0x16c
 458:	726f772f 	rsbvc	r7, pc, #12320768	; 0xbc0000
 45c:	6170736b 	cmnvs	r0, fp, ror #6
 460:	742f6563 	strtvc	r6, [pc], #-1379	; 468 <SYS_MODE+0x449>
 464:	2d677763 	stclcs	7, cr7, [r7, #-396]!	; 0xfffffe74
 468:	656b616d 	strbvs	r6, [fp, #-365]!	; 0x16d
 46c:	6c65722d 	sfmvs	f7, 2, [r5], #-180	; 0xffffff4c
 470:	65736165 	ldrbvs	r6, [r3, #-357]!	; 0x165
 474:	62616c2f 	rsbvs	r6, r1, #12032	; 0x2f00
 478:	642f6c65 	strtvs	r6, [pc], #-3173	; 480 <SYS_MODE+0x461>
 47c:	656b636f 	strbvs	r6, [fp, #-879]!	; 0x36f
 480:	72742d72 	rsbsvc	r2, r4, #7296	; 0x1c80
 484:	79747375 	ldmdbvc	r4!, {r0, r2, r4, r5, r6, r8, r9, ip, sp, lr}^
 488:	646d612d 	strbtvs	r6, [sp], #-301	; 0x12d
 48c:	742d3436 	strtvc	r3, [sp], #-1078	; 0x436
 490:	2d677763 	stclcs	7, cr7, [r7, #-396]!	; 0xfffffe74
 494:	6c697562 	cfstr64vs	mvdx7, [r9], #-392	; 0xfffffe78
 498:	61742f64 	cmnvs	r4, r4, ror #30
 49c:	74656772 	strbtvc	r6, [r5], #-1906	; 0x772
 4a0:	6d72612f 	ldfvse	f6, [r2, #-188]!	; 0xffffff44
 4a4:	6e696c2d 	cdpvs	12, 6, cr6, cr9, cr13, {1}
 4a8:	672d7875 			; <UNDEFINED> instruction: 0x672d7875
 4ac:	6165756e 	cmnvs	r5, lr, ror #10
 4b0:	66686962 	strbtvs	r6, [r8], -r2, ror #18
 4b4:	75625f2f 	strbvc	r5, [r2, #-3887]!	; 0xf2f
 4b8:	2f646c69 	svccs	0x00646c69
 4bc:	6c697562 	cfstr64vs	mvdx7, [r9], #-392	; 0xfffffe78
 4c0:	782f7364 	stmdavc	pc!, {r2, r5, r6, r8, r9, ip, sp, lr}	; <UNPREDICTABLE>
 4c4:	365f3638 			; <UNDEFINED> instruction: 0x365f3638
 4c8:	6e752d34 	mrcvs	13, 3, r2, cr5, cr4, {1}
 4cc:	776f6e6b 	strbvc	r6, [pc, -fp, ror #28]!
 4d0:	696c2d6e 	stmdbvs	ip!, {r1, r2, r3, r5, r6, r8, sl, fp, sp}^
 4d4:	2d78756e 	cfldr64cs	mvdx7, [r8, #-440]!	; 0xfffffe48
 4d8:	2f756e67 	svccs	0x00756e67
 4dc:	2d6d7261 	sfmcs	f7, 2, [sp, #-388]!	; 0xfffffe7c
 4e0:	756e696c 	strbvc	r6, [lr, #-2412]!	; 0x96c
 4e4:	6e672d78 	mcrvs	13, 3, r2, cr7, cr8, {3}
 4e8:	62616575 	rsbvs	r6, r1, #490733568	; 0x1d400000
 4ec:	2f666869 	svccs	0x00666869
 4f0:	2d636367 	stclcs	3, cr6, [r3, #-412]!	; 0xfffffe64
 4f4:	616e696c 	cmnvs	lr, ip, ror #18
 4f8:	342d6f72 	strtcc	r6, [sp], #-3954	; 0xf72
 4fc:	322d392e 	eorcc	r3, sp, #753664	; 0xb8000
 500:	2e373130 	mrccs	1, 1, r3, cr7, cr0, {1}
 504:	732d3130 	teqvc	sp, #48, 2
 508:	65676174 	strbvs	r6, [r7, #-372]!	; 0x174
 50c:	72612f32 	rsbvc	r2, r1, #50, 30	; 0xc8
 510:	696c2d6d 	stmdbvs	ip!, {r0, r2, r3, r5, r6, r8, sl, fp, sp}^
 514:	2d78756e 	cfldr64cs	mvdx7, [r8, #-440]!	; 0xfffffe48
 518:	65756e67 	ldrbvs	r6, [r5, #-3687]!	; 0xe67
 51c:	68696261 	stmdavs	r9!, {r0, r5, r6, r9, sp, lr}^
 520:	696c2f66 	stmdbvs	ip!, {r1, r2, r5, r6, r8, r9, sl, fp, sp}^
 524:	63636762 	cmnvs	r3, #25690112	; 0x1880000
 528:	554e4700 	strbpl	r4, [lr, #-1792]	; 0x700
 52c:	20534120 	subscs	r4, r3, r0, lsr #2
 530:	34322e32 	ldrtcc	r2, [r2], #-3634	; 0xe32
 534:	0100302e 	tsteq	r0, lr, lsr #32
 538:	00015a80 	andeq	r5, r1, r0, lsl #21
 53c:	3c000400 	cfstrscc	mvf0, [r0], {-0}
 540:	04000000 	streq	r0, [r0], #-0
 544:	00012b01 	andeq	r2, r1, r1, lsl #22
 548:	024f0100 	subeq	r0, pc, #0, 2
 54c:	000d0000 	andeq	r0, sp, r0
 550:	617c0000 	cmnvs	ip, r0
 554:	01168780 	tsteq	r6, r0, lsl #15
 558:	02cc0000 	sbceq	r0, ip, #0
 55c:	08020000 	stmdaeq	r2, {}	; <UNPREDICTABLE>
 560:	0000f307 	andeq	pc, r0, r7, lsl #6
 564:	05040300 	streq	r0, [r4, #-768]	; 0x300
 568:	00746e69 	rsbseq	r6, r4, r9, ror #28
 56c:	fd070402 	stc2	4, cr0, [r7, #-8]
 570:	02000000 	andeq	r0, r0, #0
 574:	010a0801 	tsteq	sl, r1, lsl #16
 578:	02020000 	andeq	r0, r2, #0
 57c:	00011807 	andeq	r1, r1, r7, lsl #16
 580:	07040200 	streq	r0, [r4, -r0, lsl #4]
 584:	000000f8 	strdeq	r0, [r0], -r8
 588:	0c060102 	stfeqs	f0, [r6], {2}
 58c:	02000001 	andeq	r0, r0, #1
 590:	02360502 	eorseq	r0, r6, #8388608	; 0x800000
 594:	08020000 	stmdaeq	r2, {}	; <UNPREDICTABLE>
 598:	00022005 	andeq	r2, r2, r5
 59c:	05040200 	streq	r0, [r4, #-512]	; 0x200
 5a0:	00000225 	andeq	r0, r0, r5, lsr #4
 5a4:	17070402 	strne	r0, [r7, -r2, lsl #8]
 5a8:	02000002 	andeq	r0, r0, #2
 5ac:	01130801 	tsteq	r3, r1, lsl #16
 5b0:	2e040000 	cdpcs	0, 0, cr0, cr4, cr0, {0}
 5b4:	02000002 	andeq	r0, r0, #2
 5b8:	00003382 	andeq	r3, r0, r2, lsl #7
 5bc:	02010400 	andeq	r0, r1, #0, 8
 5c0:	86020000 	strhi	r0, [r2], -r0
 5c4:	00000025 	andeq	r0, r0, r5, lsr #32
 5c8:	11040402 	tstne	r4, r2, lsl #8
 5cc:	02000002 	andeq	r0, r0, #2
 5d0:	02090308 	andeq	r0, r9, #8, 6	; 0x20000000
 5d4:	08020000 	stmdaeq	r2, {}	; <UNPREDICTABLE>
 5d8:	00024804 	andeq	r4, r2, r4, lsl #16
 5dc:	03100200 	tsteq	r0, #0, 4
 5e0:	00000240 	andeq	r0, r0, r0, asr #4
 5e4:	00000005 	andeq	r0, r0, r5
 5e8:	03b00100 	movseq	r0, #0, 2
 5ec:	00000084 	andeq	r0, r0, r4, lsl #1
 5f0:	8780617c 			; <UNDEFINED> instruction: 0x8780617c
 5f4:	00000116 	andeq	r0, r0, r6, lsl r1
 5f8:	01579c01 	cmpeq	r7, r1, lsl #24
 5fc:	6e060000 	cdpvs	0, 0, cr0, cr6, cr0, {0}
 600:	03b00100 	movseq	r0, #0, 2
 604:	00000084 	andeq	r0, r0, r4, lsl #1
 608:	00000000 	andeq	r0, r0, r0
 60c:	01006406 	tsteq	r0, r6, lsl #8
 610:	008403b0 			; <UNDEFINED> instruction: 0x008403b0
 614:	00280000 	eoreq	r0, r8, r0
 618:	72060000 	andvc	r0, r6, #0
 61c:	b0010070 	andlt	r0, r1, r0, ror r0
 620:	00015703 	andeq	r5, r1, r3, lsl #14
 624:	00005000 	andeq	r5, r0, r0
 628:	00710700 	rsbseq	r0, r1, r0, lsl #14
 62c:	8403b201 	strhi	fp, [r3], #-513	; 0x201
 630:	70000000 	andvc	r0, r0, r0
 634:	07000000 	streq	r0, [r0, -r0]
 638:	b2010072 	andlt	r0, r1, #114	; 0x72
 63c:	00008403 	andeq	r8, r0, r3, lsl #8
 640:	0000d000 	andeq	sp, r0, r0
 644:	00790700 	rsbseq	r0, r9, r0, lsl #14
 648:	8403b201 	strhi	fp, [r3], #-513	; 0x201
 64c:	28000000 	stmdacs	r0, {}	; <UNPREDICTABLE>
 650:	07000001 	streq	r0, [r0, -r1]
 654:	00317a6c 	eorseq	r7, r1, ip, ror #20
 658:	7903b301 	stmdbvc	r3, {r0, r8, r9, ip, sp, pc}
 65c:	50000000 	andpl	r0, r0, r0
 660:	07000001 	streq	r0, [r0, -r1]
 664:	00327a6c 	eorseq	r7, r2, ip, ror #20
 668:	7903b301 	stmdbvc	r3, {r0, r8, r9, ip, sp, pc}
 66c:	63000000 	movwvs	r0, #0
 670:	07000001 	streq	r0, [r0, -r1]
 674:	b3010069 	movwlt	r0, #4201	; 0x1069
 678:	00007903 	andeq	r7, r0, r3, lsl #18
 67c:	00017600 	andeq	r7, r1, r0, lsl #12
 680:	006b0700 	rsbeq	r0, fp, r0, lsl #14
 684:	7903b301 	stmdbvc	r3, {r0, r8, r9, ip, sp, pc}
 688:	b9000000 	stmdblt	r0, {}	; <UNPREDICTABLE>
 68c:	00000001 	andeq	r0, r0, r1
 690:	00840408 	addeq	r0, r4, r8, lsl #8
 694:	地址 0x0000000000000694 越界。


Disassembly of section .debug_abbrev:

00000000 <.debug_abbrev>:
   0:	10001101 	andne	r1, r0, r1, lsl #2
   4:	12011106 	andne	r1, r1, #-2147483647	; 0x80000001
   8:	1b080301 	blne	200c14 <SYS_MODE+0x200bf5>
   c:	13082508 	movwne	r2, #34056	; 0x8508
  10:	00000005 	andeq	r0, r0, r5
  14:	10001101 	andne	r1, r0, r1, lsl #2
  18:	12011106 	andne	r1, r1, #-2147483647	; 0x80000001
  1c:	1b080301 	blne	200c28 <SYS_MODE+0x200c09>
  20:	13082508 	movwne	r2, #34056	; 0x8508
  24:	00000005 	andeq	r0, r0, r5
  28:	10001101 	andne	r1, r0, r1, lsl #2
  2c:	12011106 	andne	r1, r1, #-2147483647	; 0x80000001
  30:	1b080301 	blne	200c3c <SYS_MODE+0x200c1d>
  34:	13082508 	movwne	r2, #34056	; 0x8508
  38:	00000005 	andeq	r0, r0, r5
  3c:	25011101 	strcs	r1, [r1, #-257]	; 0x101
  40:	030b130e 	movweq	r1, #45838	; 0xb30e
  44:	110e1b0e 	tstne	lr, lr, lsl #22
  48:	10061201 	andne	r1, r6, r1, lsl #4
  4c:	02000017 	andeq	r0, r0, #23
  50:	0b0b0024 	bleq	2c00e8 <SYS_MODE+0x2c00c9>
  54:	0e030b3e 	vmoveq.16	d3[0], r0
  58:	24030000 	strcs	r0, [r3], #-0
  5c:	3e0b0b00 	vmlacc.f64	d0, d11, d0
  60:	0008030b 	andeq	r0, r8, fp, lsl #6
  64:	00160400 	andseq	r0, r6, r0, lsl #8
  68:	0b3a0e03 	bleq	e8387c <SYS_MODE+0xe8385d>
  6c:	13490b3b 	movtne	r0, #39739	; 0x9b3b
  70:	2e050000 	cdpcs	0, 0, cr0, cr5, cr0, {0}
  74:	03193f01 	tsteq	r9, #1, 30
  78:	3b0b3a0e 	blcc	2ce8b8 <SYS_MODE+0x2ce899>
  7c:	49192705 	ldmdbmi	r9, {r0, r2, r8, r9, sl, sp}
  80:	12011113 	andne	r1, r1, #-1073741820	; 0xc0000004
  84:	97184006 	ldrls	r4, [r8, -r6]
  88:	13011942 	movwne	r1, #6466	; 0x1942
  8c:	05060000 	streq	r0, [r6, #-0]
  90:	3a080300 	bcc	200c98 <SYS_MODE+0x200c79>
  94:	49053b0b 	stmdbmi	r5, {r0, r1, r3, r8, r9, fp, ip, sp}
  98:	00170213 	andseq	r0, r7, r3, lsl r2
  9c:	00340700 	eorseq	r0, r4, r0, lsl #14
  a0:	0b3a0803 	bleq	e820b4 <SYS_MODE+0xe82095>
  a4:	1349053b 	movtne	r0, #38203	; 0x953b
  a8:	00001702 	andeq	r1, r0, r2, lsl #14
  ac:	0b000f08 	bleq	3cd4 <SYS_MODE+0x3cb5>
  b0:	0013490b 	andseq	r4, r3, fp, lsl #18
	...

Disassembly of section .debug_aranges:

00000000 <.debug_aranges>:
   0:	0000001c 	andeq	r0, r0, ip, lsl r0
   4:	00000002 	andeq	r0, r0, r2
   8:	00040000 	andeq	r0, r4, r0
   c:	00000000 	andeq	r0, r0, r0
  10:	87805ec8 	strhi	r5, [r0, r8, asr #29]
  14:	00000276 	andeq	r0, r0, r6, ror r2
	...
  20:	0000001c 	andeq	r0, r0, ip, lsl r0
  24:	01bf0002 			; <UNDEFINED> instruction: 0x01bf0002
  28:	00040000 	andeq	r0, r4, r0
  2c:	00000000 	andeq	r0, r0, r0
  30:	87806140 	strhi	r6, [r0, r0, asr #2]
  34:	00000030 	andeq	r0, r0, r0, lsr r0
	...
  40:	0000001c 	andeq	r0, r0, ip, lsl r0
  44:	037a0002 	cmneq	sl, #2
  48:	00040000 	andeq	r0, r4, r0
  4c:	00000000 	andeq	r0, r0, r0
  50:	87806170 			; <UNDEFINED> instruction: 0x87806170
  54:	0000000c 	andeq	r0, r0, ip
	...
  60:	0000001c 	andeq	r0, r0, ip, lsl r0
  64:	05390002 	ldreq	r0, [r9, #-2]!
  68:	00040000 	andeq	r0, r4, r0
  6c:	00000000 	andeq	r0, r0, r0
  70:	8780617c 			; <UNDEFINED> instruction: 0x8780617c
  74:	00000116 	andeq	r0, r0, r6, lsl r1
	...

Disassembly of section .debug_loc:

00000000 <.debug_loc>:
   0:	00000000 	andeq	r0, r0, r0
   4:	0000000c 	andeq	r0, r0, ip
   8:	93500006 	cmpls	r0, #6
   c:	04935104 	ldreq	r5, [r3], #260	; 0x104
  10:	0000000c 	andeq	r0, r0, ip
  14:	00000116 	andeq	r0, r0, r6, lsl r1
  18:	03f30006 	mvnseq	r0, #6
  1c:	9f2500f5 	svcls	0x002500f5
	...
  2c:	00000014 	andeq	r0, r0, r4, lsl r0
  30:	93520006 	cmpls	r2, #6
  34:	04935304 	ldreq	r5, [r3], #772	; 0x304
  38:	00000014 	andeq	r0, r0, r4, lsl r0
  3c:	00000116 	andeq	r0, r0, r6, lsl r1
  40:	03f30006 	mvnseq	r0, #6
  44:	9f2502f5 	svcls	0x002502f5
	...
  54:	000000fc 	strdeq	r0, [r0], -ip
  58:	00910002 	addseq	r0, r1, r2
  5c:	000000fc 	strdeq	r0, [r0], -ip
  60:	00000116 	andeq	r0, r0, r6, lsl r1
  64:	00910002 	addseq	r0, r1, r2
	...
  74:	00000076 	andeq	r0, r0, r6, ror r0
  78:	089e000a 	ldmeq	lr, {r1, r3}
	...
  84:	00000076 	andeq	r0, r0, r6, ror r0
  88:	000000c0 	andeq	r0, r0, r0, asr #1
  8c:	93500006 	cmpls	r0, #6
  90:	04935104 	ldreq	r5, [r3], #260	; 0x104
  94:	000000ca 	andeq	r0, r0, sl, asr #1
  98:	000000ea 	andeq	r0, r0, sl, ror #1
  9c:	93500006 	cmpls	r0, #6
  a0:	04935104 	ldreq	r5, [r3], #260	; 0x104
  a4:	000000f2 	strdeq	r0, [r0], -r2
  a8:	000000fc 	strdeq	r0, [r0], -ip
  ac:	93500006 	cmpls	r0, #6
  b0:	04935104 	ldreq	r5, [r3], #260	; 0x104
  b4:	000000fc 	strdeq	r0, [r0], -ip
  b8:	00000116 	andeq	r0, r0, r6, lsl r1
  bc:	089e000a 	ldmeq	lr, {r1, r3}
	...
  d0:	0000000a 	andeq	r0, r0, sl
  d4:	00000062 	andeq	r0, r0, r2, rrx
  d8:	93540006 	cmpls	r4, #6
  dc:	04935504 	ldreq	r5, [r3], #1284	; 0x504
  e0:	00000076 	andeq	r0, r0, r6, ror r0
  e4:	00000084 	andeq	r0, r0, r4, lsl #1
  e8:	93540006 	cmpls	r4, #6
  ec:	04935504 	ldreq	r5, [r3], #1284	; 0x504
  f0:	00000092 	muleq	r0, r2, r0
  f4:	000000a0 	andeq	r0, r0, r0, lsr #1
  f8:	93540006 	cmpls	r4, #6
  fc:	04935504 	ldreq	r5, [r3], #1284	; 0x504
 100:	000000a2 	andeq	r0, r0, r2, lsr #1
 104:	000000c8 	andeq	r0, r0, r8, asr #1
 108:	93540006 	cmpls	r4, #6
 10c:	04935504 	ldreq	r5, [r3], #1284	; 0x504
 110:	000000cc 	andeq	r0, r0, ip, asr #1
 114:	00000116 	andeq	r0, r0, r6, lsl r1
 118:	93540006 	cmpls	r4, #6
 11c:	04935504 	ldreq	r5, [r3], #1284	; 0x504
	...
 128:	0000000e 	andeq	r0, r0, lr
 12c:	00000018 	andeq	r0, r0, r8, lsl r0
 130:	93500006 	cmpls	r0, #6
 134:	04935104 	ldreq	r5, [r3], #260	; 0x104
 138:	0000004e 	andeq	r0, r0, lr, asr #32
 13c:	000000ae 	andeq	r0, r0, lr, lsr #1
 140:	93560006 	cmpls	r6, #6
 144:	04935704 	ldreq	r5, [r3], #1796	; 0x704
	...
 150:	0000010c 	andeq	r0, r0, ip, lsl #2
 154:	00000116 	andeq	r0, r0, r6, lsl r1
 158:	00560001 	subseq	r0, r6, r1
 15c:	00000000 	andeq	r0, r0, r0
 160:	2c000000 	stccs	0, cr0, [r0], {-0}
 164:	2e000000 	cdpcs	0, 0, cr0, cr0, cr0, {0}
 168:	01000000 	mrseq	r0, (UNDEF: 0)
 16c:	00005300 	andeq	r5, r0, r0, lsl #6
 170:	00000000 	andeq	r0, r0, r0
 174:	00800000 	addeq	r0, r0, r0
 178:	00920000 	addseq	r0, r2, r0
 17c:	00010000 	andeq	r0, r1, r0
 180:	00009253 	andeq	r9, r0, r3, asr r2
 184:	00009400 	andeq	r9, r0, r0, lsl #8
 188:	73000300 	movwvc	r0, #768	; 0x300
 18c:	00949f7f 	addseq	r9, r4, pc, ror pc
 190:	00a20000 	adceq	r0, r2, r0
 194:	00010000 	andeq	r0, r1, r0
 198:	0000a253 	andeq	sl, r0, r3, asr r2
 19c:	0000a400 	andeq	sl, r0, r0, lsl #8
 1a0:	73000300 	movwvc	r0, #768	; 0x300
 1a4:	00a49f7f 	adceq	r9, r4, pc, ror pc
 1a8:	00b60000 	adcseq	r0, r6, r0
 1ac:	00010000 	andeq	r0, r1, r0
 1b0:	00000053 	andeq	r0, r0, r3, asr r0
 1b4:	00000000 	andeq	r0, r0, r0
 1b8:	00002e00 	andeq	r2, r0, r0, lsl #28
 1bc:	00008200 	andeq	r8, r0, r0, lsl #4
 1c0:	53000100 	movwpl	r0, #256	; 0x100
 1c4:	00000082 	andeq	r0, r0, r2, lsl #1
 1c8:	000000f2 	strdeq	r0, [r0], -r2
 1cc:	005e0001 	subseq	r0, lr, r1
 1d0:	00000000 	andeq	r0, r0, r0
 1d4:	地址 0x00000000000001d4 越界。


Disassembly of section .debug_str:

00000000 <.debug_str>:
   0:	64755f5f 	ldrbtvs	r5, [r5], #-3935	; 0xf5f
   4:	6f6d7669 	svcvs	0x006d7669
   8:	34696464 	strbtcc	r6, [r9], #-1124	; 0x464
   c:	6f682f00 	svcvs	0x00682f00
  10:	742f656d 	strtvc	r6, [pc], #-1389	; 18 <SVC_MODE+0x5>
  14:	2d677763 	stclcs	7, cr7, [r7, #-396]!	; 0xfffffe74
  18:	6c697562 	cfstr64vs	mvdx7, [r9], #-392	; 0xfffffe78
  1c:	616c7364 	cmnvs	ip, r4, ror #6
  20:	772f6576 			; <UNDEFINED> instruction: 0x772f6576
  24:	736b726f 	cmnvc	fp, #-268435450	; 0xf0000006
  28:	65636170 	strbvs	r6, [r3, #-368]!	; 0x170
  2c:	7763742f 	strbvc	r7, [r3, -pc, lsr #8]!
  30:	616d2d67 	cmnvs	sp, r7, ror #26
  34:	722d656b 	eorvc	r6, sp, #448790528	; 0x1ac00000
  38:	61656c65 	cmnvs	r5, r5, ror #24
  3c:	6c2f6573 	cfstr32vs	mvfx6, [pc], #-460	; fffffe78 <__bss_end+0x787e7a94>
  40:	6c656261 	sfmvs	f6, 2, [r5], #-388	; 0xfffffe7c
  44:	636f642f 	cmnvs	pc, #788529152	; 0x2f000000
  48:	2d72656b 	cfldr64cs	mvdx6, [r2, #-428]!	; 0xfffffe54
  4c:	73757274 	cmnvc	r5, #116, 4	; 0x40000007
  50:	612d7974 	teqvs	sp, r4, ror r9
  54:	3436646d 	ldrtcc	r6, [r6], #-1133	; 0x46d
  58:	7763742d 	strbvc	r7, [r3, -sp, lsr #8]!
  5c:	75622d67 	strbvc	r2, [r2, #-3431]!	; 0xd67
  60:	2f646c69 	svccs	0x00646c69
  64:	67726174 			; <UNDEFINED> instruction: 0x67726174
  68:	612f7465 	teqvs	pc, r5, ror #8
  6c:	6c2d6d72 	stcvs	13, cr6, [sp], #-456	; 0xfffffe38
  70:	78756e69 	ldmdavc	r5!, {r0, r3, r5, r6, r9, sl, fp, sp, lr}^
  74:	756e672d 	strbvc	r6, [lr, #-1837]!	; 0x72d
  78:	69626165 	stmdbvs	r2!, {r0, r2, r5, r6, r8, sp, lr}^
  7c:	5f2f6668 	svcpl	0x002f6668
  80:	6c697562 	cfstr64vs	mvdx7, [r9], #-392	; 0xfffffe78
  84:	75622f64 	strbvc	r2, [r2, #-3940]!	; 0xf64
  88:	73646c69 	cmnvc	r4, #26880	; 0x6900
  8c:	3638782f 	ldrtcc	r7, [r8], -pc, lsr #16
  90:	2d34365f 	ldccs	6, cr3, [r4, #-380]!	; 0xfffffe84
  94:	6e6b6e75 	mcrvs	14, 3, r6, cr11, cr5, {3}
  98:	2d6e776f 	stclcs	7, cr7, [lr, #-444]!	; 0xfffffe44
  9c:	756e696c 	strbvc	r6, [lr, #-2412]!	; 0x96c
  a0:	6e672d78 	mcrvs	13, 3, r2, cr7, cr8, {3}
  a4:	72612f75 	rsbvc	r2, r1, #468	; 0x1d4
  a8:	696c2d6d 	stmdbvs	ip!, {r0, r2, r3, r5, r6, r8, sl, fp, sp}^
  ac:	2d78756e 	cfldr64cs	mvdx7, [r8, #-440]!	; 0xfffffe48
  b0:	65756e67 	ldrbvs	r6, [r5, #-3687]!	; 0xe67
  b4:	68696261 	stmdavs	r9!, {r0, r5, r6, r9, sp, lr}^
  b8:	63672f66 	cmnvs	r7, #408	; 0x198
  bc:	696c2d63 	stmdbvs	ip!, {r0, r1, r5, r6, r8, sl, fp, sp}^
  c0:	6f72616e 	svcvs	0x0072616e
  c4:	392e342d 	stmdbcc	lr!, {r0, r2, r3, r5, sl, ip, sp}
  c8:	3130322d 	teqcc	r0, sp, lsr #4
  cc:	31302e37 	teqcc	r0, r7, lsr lr
  d0:	6174732d 	cmnvs	r4, sp, lsr #6
  d4:	2f326567 	svccs	0x00326567
  d8:	2d6d7261 	sfmcs	f7, 2, [sp, #-388]!	; 0xfffffe7c
  dc:	756e696c 	strbvc	r6, [lr, #-2412]!	; 0x96c
  e0:	6e672d78 	mcrvs	13, 3, r2, cr7, cr8, {3}
  e4:	62616575 	rsbvs	r6, r1, #490733568	; 0x1d400000
  e8:	2f666869 	svccs	0x00666869
  ec:	6762696c 	strbvs	r6, [r2, -ip, ror #18]!
  f0:	6c006363 	stcvs	3, cr6, [r0], {99}	; 0x63
  f4:	20676e6f 	rsbcs	r6, r7, pc, ror #28
  f8:	676e6f6c 	strbvs	r6, [lr, -ip, ror #30]!
  fc:	736e7520 	cmnvc	lr, #32, 10	; 0x8000000
 100:	656e6769 	strbvs	r6, [lr, #-1897]!	; 0x769
 104:	6e692064 	cdpvs	0, 6, cr2, cr9, cr4, {3}
 108:	6e750074 	mrcvs	0, 3, r0, cr5, cr4, {3}
 10c:	6e676973 	mcrvs	9, 3, r6, cr7, cr3, {3}
 110:	63206465 	teqvs	r0, #1694498816	; 0x65000000
 114:	00726168 	rsbseq	r6, r2, r8, ror #2
 118:	726f6873 	rsbvc	r6, pc, #7536640	; 0x730000
 11c:	6e752074 	mrcvs	0, 3, r2, cr5, cr4, {3}
 120:	6e676973 	mcrvs	9, 3, r6, cr7, cr3, {3}
 124:	69206465 	stmdbvs	r0!, {r0, r2, r5, r6, sl, sp, lr}
 128:	4700746e 	strmi	r7, [r0, -lr, ror #8]
 12c:	4320554e 	teqmi	r0, #327155712	; 0x13800000
 130:	392e3420 	stmdbcc	lr!, {r5, sl, ip, sp}
 134:	2d20342e 	cfstrscs	mvf3, [r0, #-184]!	; 0xffffff48
 138:	6372616d 	cmnvs	r2, #1073741851	; 0x4000001b
 13c:	72613d68 	rsbvc	r3, r1, #104, 26	; 0x1a00
 140:	2d37766d 	ldccs	6, cr7, [r7, #-436]!	; 0xfffffe4c
 144:	6d2d2061 	stcvs	0, cr2, [sp, #-388]!	; 0xfffffe7c
 148:	656e7574 	strbvs	r7, [lr, #-1396]!	; 0x574
 14c:	726f633d 	rsbvc	r6, pc, #-201326592	; 0xf4000000
 150:	2d786574 	cfldr64cs	mvdx6, [r8, #-464]!	; 0xfffffe30
 154:	2d203961 	stccs	9, cr3, [r0, #-388]!	; 0xfffffe7c
 158:	6f6c666d 	svcvs	0x006c666d
 15c:	612d7461 	teqvs	sp, r1, ror #8
 160:	683d6962 	ldmdavs	sp!, {r1, r5, r6, r8, fp, sp, lr}
 164:	20647261 	rsbcs	r7, r4, r1, ror #4
 168:	70666d2d 	rsbvc	r6, r6, sp, lsr #26
 16c:	66763d75 			; <UNDEFINED> instruction: 0x66763d75
 170:	2d337670 	ldccs	6, cr7, [r3, #-448]!	; 0xfffffe40
 174:	20363164 	eorscs	r3, r6, r4, ror #2
 178:	68746d2d 	ldmdavs	r4!, {r0, r2, r3, r5, r8, sl, fp, sp, lr}^
 17c:	20626d75 	rsbcs	r6, r2, r5, ror sp
 180:	6c746d2d 	ldclvs	13, cr6, [r4], #-180	; 0xffffff4c
 184:	69642d73 	stmdbvs	r4!, {r0, r1, r4, r5, r6, r8, sl, fp, sp}^
 188:	63656c61 	cmnvs	r5, #24832	; 0x6100
 18c:	6e673d74 	mcrvs	13, 3, r3, cr7, cr4, {3}
 190:	672d2075 			; <UNDEFINED> instruction: 0x672d2075
 194:	20672d20 	rsbcs	r2, r7, r0, lsr #26
 198:	2d20672d 	stccs	7, cr6, [r0, #-180]!	; 0xffffff4c
 19c:	2d20324f 	sfmcs	f3, 4, [r0, #-316]!	; 0xfffffec4
 1a0:	2d20324f 	sfmcs	f3, 4, [r0, #-316]!	; 0xfffffec4
 1a4:	2d20324f 	sfmcs	f3, 4, [r0, #-316]!	; 0xfffffec4
 1a8:	69756266 	ldmdbvs	r5!, {r1, r2, r5, r6, r9, sp, lr}^
 1ac:	6e69646c 	cdpvs	4, 6, cr6, cr9, cr12, {3}
 1b0:	696c2d67 	stmdbvs	ip!, {r0, r1, r2, r5, r6, r8, sl, fp, sp}^
 1b4:	63636762 	cmnvs	r3, #25690112	; 0x1880000
 1b8:	6e662d20 	cdpvs	13, 6, cr2, cr6, cr0, {1}
 1bc:	74732d6f 	ldrbtvc	r2, [r3], #-3439	; 0xd6f
 1c0:	2d6b6361 	stclcs	3, cr6, [fp, #-388]!	; 0xfffffe7c
 1c4:	746f7270 	strbtvc	r7, [pc], #-624	; 1cc <SYS_MODE+0x1ad>
 1c8:	6f746365 	svcvs	0x00746365
 1cc:	662d2072 			; <UNDEFINED> instruction: 0x662d2072
 1d0:	20434950 	subcs	r4, r3, r0, asr r9
 1d4:	6f6e662d 	svcvs	0x006e662d
 1d8:	6c6e692d 	stclvs	9, cr6, [lr], #-180	; 0xffffff4c
 1dc:	20656e69 	rsbcs	r6, r5, r9, ror #28
 1e0:	7865662d 	stmdavc	r5!, {r0, r2, r3, r5, r9, sl, sp, lr}^
 1e4:	74706563 	ldrbtvc	r6, [r0], #-1379	; 0x563
 1e8:	736e6f69 	cmnvc	lr, #420	; 0x1a4
 1ec:	76662d20 	strbtvc	r2, [r6], -r0, lsr #26
 1f0:	62697369 	rsbvs	r7, r9, #-1543503871	; 0xa4000001
 1f4:	74696c69 	strbtvc	r6, [r9], #-3177	; 0xc69
 1f8:	69683d79 	stmdbvs	r8!, {r0, r3, r4, r5, r6, r8, sl, fp, ip, sp}^
 1fc:	6e656464 	cdpvs	4, 6, cr6, cr5, cr4, {3}
 200:	49445500 	stmdbmi	r4, {r8, sl, ip, lr}^
 204:	65707974 	ldrbvs	r7, [r0, #-2420]!	; 0x974
 208:	6d6f6300 	stclvs	3, cr6, [pc, #-0]	; 210 <SYS_MODE+0x1f1>
 20c:	78656c70 	stmdavc	r5!, {r4, r5, r6, sl, fp, sp, lr}^
 210:	6f6c6620 	svcvs	0x006c6620
 214:	73007461 	movwvc	r7, #1121	; 0x461
 218:	74657a69 	strbtvc	r7, [r5], #-2665	; 0xa69
 21c:	00657079 	rsbeq	r7, r5, r9, ror r0
 220:	676e6f6c 	strbvs	r6, [lr, -ip, ror #30]!
 224:	6e6f6c20 	cdpvs	12, 6, cr6, cr15, cr0, {1}
 228:	6e692067 	cdpvs	0, 6, cr2, cr9, cr7, {3}
 22c:	53550074 	cmppl	r5, #116	; 0x74
 230:	70797449 	rsbsvc	r7, r9, r9, asr #8
 234:	68730065 	ldmdavs	r3!, {r0, r2, r5, r6}^
 238:	2074726f 	rsbscs	r7, r4, pc, ror #4
 23c:	00746e69 	rsbseq	r6, r4, r9, ror #28
 240:	706d6f63 	rsbvc	r6, sp, r3, ror #30
 244:	2078656c 	rsbscs	r6, r8, ip, ror #10
 248:	62756f64 	rsbsvs	r6, r5, #100, 30	; 0x190
 24c:	2f00656c 	svccs	0x0000656c
 250:	656d6f68 	strbvs	r6, [sp, #-3944]!	; 0xf68
 254:	7763742f 	strbvc	r7, [r3, -pc, lsr #8]!
 258:	75622d67 	strbvc	r2, [r2, #-3431]!	; 0xd67
 25c:	73646c69 	cmnvc	r4, #26880	; 0x6900
 260:	6576616c 	ldrbvs	r6, [r6, #-364]!	; 0x16c
 264:	726f772f 	rsbvc	r7, pc, #12320768	; 0xbc0000
 268:	6170736b 	cmnvs	r0, fp, ror #6
 26c:	742f6563 	strtvc	r6, [pc], #-1379	; 274 <SYS_MODE+0x255>
 270:	2d677763 	stclcs	7, cr7, [r7, #-396]!	; 0xfffffe74
 274:	656b616d 	strbvs	r6, [fp, #-365]!	; 0x16d
 278:	6c65722d 	sfmvs	f7, 2, [r5], #-180	; 0xffffff4c
 27c:	65736165 	ldrbvs	r6, [r3, #-357]!	; 0x165
 280:	62616c2f 	rsbvs	r6, r1, #12032	; 0x2f00
 284:	642f6c65 	strtvs	r6, [pc], #-3173	; 28c <SYS_MODE+0x26d>
 288:	656b636f 	strbvs	r6, [fp, #-879]!	; 0x36f
 28c:	72742d72 	rsbsvc	r2, r4, #7296	; 0x1c80
 290:	79747375 	ldmdbvc	r4!, {r0, r2, r4, r5, r6, r8, r9, ip, sp, lr}^
 294:	646d612d 	strbtvs	r6, [sp], #-301	; 0x12d
 298:	742d3436 	strtvc	r3, [sp], #-1078	; 0x436
 29c:	2d677763 	stclcs	7, cr7, [r7, #-396]!	; 0xfffffe74
 2a0:	6c697562 	cfstr64vs	mvdx7, [r9], #-392	; 0xfffffe78
 2a4:	61742f64 	cmnvs	r4, r4, ror #30
 2a8:	74656772 	strbtvc	r6, [r5], #-1906	; 0x772
 2ac:	6d72612f 	ldfvse	f6, [r2, #-188]!	; 0xffffff44
 2b0:	6e696c2d 	cdpvs	12, 6, cr6, cr9, cr13, {1}
 2b4:	672d7875 			; <UNDEFINED> instruction: 0x672d7875
 2b8:	6165756e 	cmnvs	r5, lr, ror #10
 2bc:	66686962 	strbtvs	r6, [r8], -r2, ror #18
 2c0:	616e732f 	cmnvs	lr, pc, lsr #6
 2c4:	6f687370 	svcvs	0x00687370
 2c8:	672f7374 			; <UNDEFINED> instruction: 0x672f7374
 2cc:	6c2d6363 	stcvs	3, cr6, [sp], #-396	; 0xfffffe74
 2d0:	72616e69 	rsbvc	r6, r1, #1680	; 0x690
 2d4:	2e342d6f 	cdpcs	13, 3, cr2, cr4, cr15, {3}
 2d8:	30322d39 	eorscc	r2, r2, r9, lsr sp
 2dc:	302e3731 	eorcc	r3, lr, r1, lsr r7
 2e0:	696c2f31 	stmdbvs	ip!, {r0, r4, r5, r8, r9, sl, fp, sp}^
 2e4:	63636762 	cmnvs	r3, #25690112	; 0x1880000
 2e8:	62696c2f 	rsbvs	r6, r9, #12032	; 0x2f00
 2ec:	32636367 	rsbcc	r6, r3, #-1677721599	; 0x9c000001
 2f0:	地址 0x00000000000002f0 越界。

